     1                                  bits 16
     2                                  
     3                                  ; glb intptr_t : int
     4                                  ; glb uintptr_t : unsigned
     5                                  ; glb intmax_t : int
     6                                  ; glb uintmax_t : unsigned
     7                                  ; glb int8_t : signed char
     8                                  ; glb int_least8_t : signed char
     9                                  ; glb int_fast8_t : signed char
    10                                  ; glb uint8_t : unsigned char
    11                                  ; glb uint_least8_t : unsigned char
    12                                  ; glb uint_fast8_t : unsigned char
    13                                  ; glb int16_t : short
    14                                  ; glb int_least16_t : short
    15                                  ; glb int_fast16_t : short
    16                                  ; glb uint16_t : unsigned short
    17                                  ; glb uint_least16_t : unsigned short
    18                                  ; glb uint_fast16_t : unsigned short
    19                                  ; glb int32_t : int
    20                                  ; glb int_least32_t : int
    21                                  ; glb int_fast32_t : int
    22                                  ; glb uint32_t : unsigned
    23                                  ; glb uint_least32_t : unsigned
    24                                  ; glb uint_fast32_t : unsigned
    25                                  ; glb imaxdiv_t : struct <something>
    26                                  ; glb bool_t : int
    27                                  ; glb pointer_t : * unsigned char
    28                                  ; glb funcion_t : * (
    29                                  ; prm     <something> : * void
    30                                  ;     ) * void
    31                                  ; glb manejador_t : * (void) void
    32                                  ; glb rti_t : * (void) void
    33                                  ; glb isr_t : * (void) void
    34                                  ; glb handler_t : * (void) void
    35                                  ; glb retardarThread_t : * (void) int
    36                                  ; glb ptrTVI_t : * * (void) void
    37                                  ; glb modoSO1_t : int
    38                                  ; glb lh_t : struct <something>
    39                                  ; glb address_t : struct <something>
    40                                  ; glb uPtrAdr_t : union <something>
    41                                  ; glb pid_t : int
    42                                  ; glb tid_t : int
    43                                  ; glb uid_t : int
    44                                  ; glb gid_t : int
    45                                  ; glb pindx_t : int
    46                                  ; glb tindx_t : int
    47                                  ; glb df_t : int
    48                                  ; glb dfs_t : int
    49                                  ; glb rindx_t : int
    50                                  ; glb tipoOrdenador : (void) unsigned char
    51                                  ; glb rebootLegacy : (void) void
    52                                  ; glb tipoTeclado : (void) unsigned char
    53                                  ; glb leerTeclaBIOS : (void) unsigned short
    54                                  ; glb leerTeclaExtBIOS : (void) unsigned short
    55                                  ; glb teclaListaBIOS : (void) unsigned short
    56                                  ; glb leerTeclaListaBDA : (void) unsigned short
    57                                  ; glb teclaListaBDA : (void) unsigned short
    58                                  ; glb printCarBIOS : (
    59                                  ; prm     car : char
    60                                  ;     ) int
    61                                  ; glb printCarPagBIOS : (
    62                                  ; prm     car : char
    63                                  ; prm     pag : unsigned char
    64                                  ;     ) int
    65                                  ; glb printCarAtrPagBIOS : (
    66                                  ; prm     car : char
    67                                  ; prm     atr : unsigned char
    68                                  ; prm     pag : unsigned char
    69                                  ;     ) int
    70                                  ; glb printLnBIOS : (void) int
    71                                  ; glb printStrBIOS : (
    72                                  ; prm     str : * char
    73                                  ;     ) int
    74                                  ; glb printStrHastaBIOS : (
    75                                  ; prm     str : * char
    76                                  ; prm     n : unsigned short
    77                                  ; prm     lleno : int
    78                                  ;     ) int
    79                                  ; glb printDecBIOS : (
    80                                  ; prm     num : unsigned short
    81                                  ; prm     l : unsigned short
    82                                  ;     ) int
    83                                  ; glb printLDecBIOS : (
    84                                  ; prm     num : unsigned
    85                                  ; prm     l : unsigned short
    86                                  ;     ) int
    87                                  ; glb printIntBIOS : (
    88                                  ; prm     num : short
    89                                  ; prm     l : unsigned short
    90                                  ;     ) int
    91                                  ; glb printLIntBIOS : (
    92                                  ; prm     num : int
    93                                  ; prm     l : unsigned short
    94                                  ;     ) int
    95                                  ; glb printHexBIOS : (
    96                                  ; prm     num : unsigned short
    97                                  ; prm     l : unsigned short
    98                                  ;     ) int
    99                                  ; glb printLHexBIOS : (
   100                                  ; prm     num : unsigned
   101                                  ; prm     l : unsigned short
   102                                  ;     ) int
   103                                  ; glb printBinBIOS : (
   104                                  ; prm     num : unsigned short
   105                                  ; prm     l : unsigned short
   106                                  ;     ) int
   107                                  ; glb printLBinBIOS : (
   108                                  ; prm     num : unsigned
   109                                  ; prm     l : unsigned short
   110                                  ;     ) int
   111                                  ; glb printPtrBIOS : (
   112                                  ; prm     ptr : * unsigned char
   113                                  ;     ) int
   114                                  ; glb printByteBIOS : (
   115                                  ; prm     b : unsigned char
   116                                  ;     ) int
   117                                  ; glb printWordBIOS : (
   118                                  ; prm     w : unsigned short
   119                                  ;     ) int
   120                                  ; glb printCadBIOS : (
   121                                  ; prm     cad : * char
   122                                  ;     ) int
   123                                  ; glb esperarTicsBIOS : (
   124                                  ; prm     tics : unsigned short
   125                                  ;     ) void
   126                                  ; glb modoDeVideo : (void) unsigned char
   127                                  ; glb establecerModoDeVideo : (
   128                                  ; prm     modo : unsigned char
   129                                  ;     ) void
   130                                  ; glb paginaActiva : (void) unsigned char
   131                                  ; glb establecerPaginaActiva : (
   132                                  ; prm     num : unsigned char
   133                                  ;     ) void
   134                                  ; glb numPagsVideo : (void) unsigned char
   135                                  ; glb scrollPagBDA : (
   136                                  ; prm     numLineas : unsigned char
   137                                  ; prm     pag : unsigned char
   138                                  ;     ) void
   139                                  ; glb scrollPagBIOS : (
   140                                  ; prm     numLineas : unsigned char
   141                                  ; prm     pag : unsigned char
   142                                  ;     ) void
   143                                  ; glb scrollBIOS : (
   144                                  ; prm     numLineas : unsigned char
   145                                  ;     ) void
   146                                  ; glb goToXYPag : (
   147                                  ; prm     fila : unsigned char
   148                                  ; prm     columna : unsigned char
   149                                  ; prm     pag : unsigned char
   150                                  ;     ) void
   151                                  ; glb goToXYBIOS : (
   152                                  ; prm     fila : unsigned char
   153                                  ; prm     columna : unsigned char
   154                                  ;     ) void
   155                                  ; glb setCursorBIOS : (
   156                                  ; prm     linea1 : unsigned char
   157                                  ; prm     linea2 : unsigned char
   158                                  ;     ) void
   159                                  ; glb ocultaCursorBIOS : (void) void
   160                                  ; glb readXYPagBIOS : (
   161                                  ; prm     fila : * unsigned char
   162                                  ; prm     columna : * unsigned char
   163                                  ; prm     linea1 : * unsigned char
   164                                  ; prm     linea2 : * unsigned char
   165                                  ; prm     pag : unsigned char
   166                                  ;     ) void
   167                                  ; glb readXYBIOS : (
   168                                  ; prm     fila : * unsigned char
   169                                  ; prm     columna : * unsigned char
   170                                  ; prm     linea1 : * unsigned char
   171                                  ; prm     linea2 : * unsigned char
   172                                  ;     ) void
   173                                  ; glb memBIOS : (void) unsigned short
   174                                  ; glb enviarBIOS : (
   175                                  ; prm     car : char
   176                                  ;     ) void
   177                                  ; glb recibirBIOS : (void) char
   178                                  ; glb hayApmBIOS : (
   179                                  ; prm     version : * unsigned short
   180                                  ;     ) int
   181                                  ; glb connectApmBIOS : (void) int
   182                                  ; glb disconnectApmBIOS : (void) int
   183                                  ; glb cpuIdleBIOS : (void) void
   184                                  ; glb cpuBusyBIOS : (void) void
   185                                  ; glb pos_t : struct <something>
   186                                  ; RPN'ized expression: "50 "
   187                                  ; Expanded expression: "50 "
   188                                  ; Expression value: 50
   189                                  ; RPN'ized expression: "80 "
   190                                  ; Expanded expression: "80 "
   191                                  ; Expression value: 80
   192                                  ; glb pantalla_t : union <something>
   193                                  ; glb tamPantalla : (
   194                                  ; prm     numFilas : unsigned char
   195                                  ;     ) unsigned short
   196                                  ; glb pantallazo : (
   197                                  ; prm     pantalla : * union <something>
   198                                  ; prm     numFilas : unsigned short
   199                                  ; prm     car : char
   200                                  ; prm     atr : char
   201                                  ; prm     esqSupDeF : unsigned char
   202                                  ; prm     esqSupDeC : unsigned char
   203                                  ; prm     esqInfIzF : unsigned char
   204                                  ; prm     esqInfIzC : unsigned char
   205                                  ;     ) void
   206                                  ; glb borrarPantalla : (
   207                                  ; prm     pantalla : * union <something>
   208                                  ; prm     numFilas : unsigned short
   209                                  ;     ) void
   210                                  ; glb borrarCPantalla : (
   211                                  ; prm     pantalla : * union <something>
   212                                  ; prm     numFilas : unsigned short
   213                                  ;     ) void
   214                                  ; glb copiarPantalla : (
   215                                  ; prm     p1 : * union <something>
   216                                  ; prm     p2 : * union <something>
   217                                  ; prm     numFilas : unsigned short
   218                                  ;     ) void
   219                                  ; glb copiarCPantalla : (
   220                                  ; prm     p1 : * union <something>
   221                                  ; prm     p2 : * union <something>
   222                                  ; prm     numFilas : unsigned short
   223                                  ;     ) void
   224                                  ; glb scrollPantalla : (
   225                                  ; prm     pantalla : * union <something>
   226                                  ; prm     numFilas : unsigned short
   227                                  ;     ) void
   228                                  ; glb scrollCPantalla : (
   229                                  ; prm     pantalla : * union <something>
   230                                  ; prm     numFilas : unsigned short
   231                                  ;     ) void
   232                                  ; RPN'ized expression: "4 "
   233                                  ; Expanded expression: "4 "
   234                                  ; Expression value: 4
   235                                  ; RPN'ized expression: "7 "
   236                                  ; Expanded expression: "7 "
   237                                  ; Expression value: 7
   238                                  ; RPN'ized expression: "10 "
   239                                  ; Expanded expression: "10 "
   240                                  ; Expression value: 10
   241                                  ; RPN'ized expression: "48 "
   242                                  ; Expanded expression: "48 "
   243                                  ; Expression value: 48
   244                                  ; glb tipoAdaptador_t : int
   245                                  ; RPN'ized expression: "8 "
   246                                  ; Expanded expression: "8 "
   247                                  ; Expression value: 8
   248                                  ; RPN'ized expression: "14 "
   249                                  ; Expanded expression: "14 "
   250                                  ; Expression value: 14
   251                                  ; glb fontSize_t : int
   252                                  ; glb numFilas : unsigned char
   253                                  ; glb numColumnas : unsigned char
   254                                  ; glb ptrPant : * union <something>
   255                                  ; glb tipoAdaptador : int
   256                                  ; glb redimensionable : int
   257                                  ; glb fontSize : unsigned char
   258                                  ; glb visibilidad : unsigned char
   259                                  ; glb inicBiosCrt : (void) void
   260                                  ; glb finBiosCrt : (void) void
   261                                  ; glb getFontSize : (void) int
   262                                  ; glb getFilas : (void) unsigned char
   263                                  ; glb comprobarAdaptador : (
   264                                  ; prm     tipoAdaptador : int
   265                                  ;     ) int
   266                                  ; glb tipoDeAdaptador : (void) int
   267                                  ; glb setCursorVisibilidad : (
   268                                  ; prm     valorDeVisibilidad : int
   269                                  ;     ) unsigned char
   270                                  ; glb setFontSize : (
   271                                  ; prm     size : int
   272                                  ;     ) void
   273                                  ; glb set25x80 : (void) void
   274                                  ; glb redimensionar : (
   275                                  ; prm     nFilas : unsigned char
   276                                  ; prm     nCols : unsigned char
   277                                  ;     ) void
   278                                  ; glb HWLIST_t : unsigned short
   279                                  ; glb KBDFLAGS_t : unsigned short
   280                                  ; glb KBDSTATUS_t : unsigned short
   281                                  ; glb VIDEOCONTROL_t : unsigned char
   282                                  ; glb DRECSTATUS_t : unsigned char
   283                                  ; glb DMOTORSTATUS_t : unsigned char
   284                                  ; glb FDOPSTATUS_t : unsigned char
   285                                  ; glb VIDEOSWITCHES_t : unsigned char
   286                                  ; glb VGAOPTIONS_t : unsigned char
   287                                  ; glb VIDEOSAVETBL_t : struct <something>
   288                                  ; RPN'ized expression: "4 "
   289                                  ; Expanded expression: "4 "
   290                                  ; Expression value: 4
   291                                  ; RPN'ized expression: "25 "
   292                                  ; Expanded expression: "25 "
   293                                  ; Expression value: 25
   294                                  ; RPN'ized expression: "20 "
   295                                  ; Expanded expression: "20 "
   296                                  ; Expression value: 20
   297                                  ; RPN'ized expression: "9 "
   298                                  ; Expanded expression: "9 "
   299                                  ; Expression value: 9
   300                                  ; glb VIDEOPARAM_t : struct <something>
   301                                  ; RPN'ized expression: "256 "
   302                                  ; Expanded expression: "256 "
   303                                  ; Expression value: 256
   304                                  ; RPN'ized expression: "4 "
   305                                  ; Expanded expression: "4 "
   306                                  ; Expression value: 4
   307                                  ; RPN'ized expression: "3 "
   308                                  ; Expanded expression: "3 "
   309                                  ; Expression value: 3
   310                                  ; RPN'ized expression: "16 "
   311                                  ; Expanded expression: "16 "
   312                                  ; Expression value: 16
   313                                  ; RPN'ized expression: "7 "
   314                                  ; Expanded expression: "7 "
   315                                  ; Expression value: 7
   316                                  ; RPN'ized expression: "8 "
   317                                  ; Expanded expression: "8 "
   318                                  ; Expression value: 8
   319                                  ; RPN'ized expression: "2 "
   320                                  ; Expanded expression: "2 "
   321                                  ; Expression value: 2
   322                                  ; RPN'ized expression: "2 "
   323                                  ; Expanded expression: "2 "
   324                                  ; Expression value: 2
   325                                  ; RPN'ized expression: "5 "
   326                                  ; Expanded expression: "5 "
   327                                  ; Expression value: 5
   328                                  ; RPN'ized expression: "2 "
   329                                  ; Expanded expression: "2 "
   330                                  ; Expression value: 2
   331                                  ; RPN'ized expression: "3 "
   332                                  ; Expanded expression: "3 "
   333                                  ; Expression value: 3
   334                                  ; RPN'ized expression: "4 "
   335                                  ; Expanded expression: "4 "
   336                                  ; Expression value: 4
   337                                  ; RPN'ized expression: "11 "
   338                                  ; Expanded expression: "11 "
   339                                  ; Expression value: 11
   340                                  ; RPN'ized expression: "7 "
   341                                  ; Expanded expression: "7 "
   342                                  ; Expression value: 7
   343                                  ; RPN'ized expression: "68 "
   344                                  ; Expanded expression: "68 "
   345                                  ; Expression value: 68
   346                                  ; RPN'ized expression: "16 "
   347                                  ; Expanded expression: "16 "
   348                                  ; Expression value: 16
   349                                  ; glb BIOSAREA_t : struct <something>
   350                                  ; glb ptrBiosArea : * struct <something>
   351                                  ; glb ptrFechaBios : * unsigned char
   352                                  ; glb numFilas : unsigned char
   353                                  section .bss
   354                                  	global	_numFilas
   355                                  _numFilas:
   356 00000000 <res 00000001>          	resb	1
   357                                  
   358                                  ; glb numColumnas : unsigned char
   359                                  section .bss
   360                                  	global	_numColumnas
   361                                  _numColumnas:
   362 00000001 <res 00000001>          	resb	1
   363                                  
   364                                  ; glb ptrPant : * union <something>
   365                                  section .bss
   366 00000002 <res 00000002>          	alignb 4
   367                                  	global	_ptrPant
   368                                  _ptrPant:
   369 00000004 <res 00000004>          	resb	4
   370                                  
   371                                  ; glb tipoAdaptador : int
   372                                  section .bss
   373                                  	alignb 4
   374                                  	global	_tipoAdaptador
   375                                  _tipoAdaptador:
   376 00000008 <res 00000004>          	resb	4
   377                                  
   378                                  ; glb enColor : int
   379                                  section .bss
   380                                  	alignb 4
   381                                  _enColor:
   382 0000000C <res 00000004>          	resb	4
   383                                  
   384                                  ; glb videoDirecto : int
   385                                  section .bss
   386                                  	alignb 4
   387                                  _videoDirecto:
   388 00000010 <res 00000004>          	resb	4
   389                                  
   390                                  ; glb redimensionable : int
   391                                  section .bss
   392                                  	alignb 4
   393                                  	global	_redimensionable
   394                                  _redimensionable:
   395 00000014 <res 00000004>          	resb	4
   396                                  
   397                                  ; glb adaptadorNoFiable : int
   398                                  section .bss
   399                                  	alignb 4
   400                                  _adaptadorNoFiable:
   401 00000018 <res 00000004>          	resb	4
   402                                  
   403                                  ; glb fontSize : unsigned char
   404                                  section .bss
   405                                  	global	_fontSize
   406                                  _fontSize:
   407 0000001C <res 00000001>          	resb	1
   408                                  
   409                                  ; glb visibilidad : unsigned char
   410                                  section .data
   411                                  	global	_visibilidad
   412                                  _visibilidad:
   413                                  ; =
   414                                  ; RPN'ized expression: "1 "
   415                                  ; Expanded expression: "1 "
   416                                  ; Expression value: 1
   417 00000000 01                      	db	1
   418                                  
   419                                  ; glb cursorOriginalF : unsigned char
   420                                  section .bss
   421                                  _cursorOriginalF:
   422 0000001D <res 00000001>          	resb	1
   423                                  
   424                                  ; glb cursorOriginalC : unsigned char
   425                                  section .bss
   426                                  _cursorOriginalC:
   427 0000001E <res 00000001>          	resb	1
   428                                  
   429                                  ; glb lineaOriginal1 : unsigned char
   430                                  section .bss
   431                                  _lineaOriginal1:
   432 0000001F <res 00000001>          	resb	1
   433                                  
   434                                  ; glb lineaOriginal2 : unsigned char
   435                                  section .bss
   436                                  _lineaOriginal2:
   437 00000020 <res 00000001>          	resb	1
   438                                  
   439                                  ; glb numFilasOriginal : unsigned char
   440                                  section .bss
   441                                  _numFilasOriginal:
   442 00000021 <res 00000001>          	resb	1
   443                                  
   444                                  ; glb numColumnasOriginal : unsigned char
   445                                  section .bss
   446                                  _numColumnasOriginal:
   447 00000022 <res 00000001>          	resb	1
   448                                  
   449                                  ; glb fontSizeOriginal : unsigned char
   450                                  section .bss
   451                                  _fontSizeOriginal:
   452 00000023 <res 00000001>          	resb	1
   453                                  
   454                                  ; glb VIDEO_mode : unsigned char
   455                                  section .bss
   456                                  _VIDEO_mode:
   457 00000024 <res 00000001>          	resb	1
   458                                  
   459                                  ; glb VIDEO_pagesize : unsigned short
   460                                  section .bss
   461 00000025 <res 00000003>          	alignb 4
   462                                  _VIDEO_pagesize:
   463 00000028 <res 00000002>          	resb	2
   464                                  
   465                                  ; glb VIDEO_pageoff : unsigned short
   466                                  section .bss
   467 0000002A <res 00000002>          	alignb 4
   468                                  _VIDEO_pageoff:
   469 0000002C <res 00000002>          	resb	2
   470                                  
   471                                  ; glb segMemVideo : unsigned short
   472                                  section .bss
   473 0000002E <res 00000002>          	alignb 4
   474                                  _segMemVideo:
   475 00000030 <res 00000002>          	resb	2
   476                                  
   477                                  ; glb inicBiosCrt : (void) void
   478                                  section .text
   479                                  	global	_inicBiosCrt
   480                                  _inicBiosCrt:
   481 00000000 6655                    	push	ebp
   482 00000002 660FB7EC                	movzx	ebp, sp
   483                                  	;sub	sp,          0
   484                                  ; RPN'ized expression: "numFilasOriginal ptrBiosArea VIDEO_lastrow -> *u 1 + = "
   485                                  ; Expanded expression: "numFilasOriginal ptrBiosArea *(4) 1156 + *(1) 1 + =(1) "
   486                                  ; Fused expression:    "numFilasOriginal push-ax ptrBiosArea + *ax 1156 + *ax 1 =(156) **sp ax "
   487                                  section .relod
   488 00000000 [08000000]              	dd	L3
   489                                  section .text
   490 00000006 66B8                    	db	0x66, 0xB8
   491                                  L3:
   492 00000008 [21000000]              	dd	_numFilasOriginal
   493 0000000C 6650                    	push	eax
   494                                  section .relod
   495 00000004 [10000000]              	dd	L4
   496                                  section .text
   497 0000000E 66B8                    	db	0x66, 0xB8
   498                                  L4:
   499 00000010 [00000000]              	dd	_ptrBiosArea
   500 00000014 6689C3                  	mov	ebx, eax
   501 00000017 6689DE                  	mov	esi, ebx
   502 0000001A 66C1CE04                	ror	esi, 4
   503 0000001E 8EDE                    	mov	ds, si
   504 00000020 66C1EE1C                	shr	esi, 28
   505 00000024 668B04                  	mov	eax, [si]
   506 00000027 660584040000            	add	eax, 1156
   507 0000002D 6689C3                  	mov	ebx, eax
   508 00000030 6689DE                  	mov	esi, ebx
   509 00000033 66C1CE04                	ror	esi, 4
   510 00000037 8EDE                    	mov	ds, si
   511 00000039 66C1EE1C                	shr	esi, 28
   512 0000003D 8A04                    	mov	al, [si]
   513 0000003F 660FB6C0                	movzx	eax, al
   514 00000043 6640                    	inc	eax
   515 00000045 665B                    	pop	ebx
   516 00000047 6689DE                  	mov	esi, ebx
   517 0000004A 66C1CE04                	ror	esi, 4
   518 0000004E 8EDE                    	mov	ds, si
   519 00000050 66C1EE1C                	shr	esi, 28
   520 00000054 8804                    	mov	[si], al
   521 00000056 660FB6C0                	movzx	eax, al
   522                                  ; RPN'ized expression: "numColumnasOriginal ptrBiosArea VIDEO_width -> *u = "
   523                                  ; Expanded expression: "numColumnasOriginal ptrBiosArea *(4) 1098 + *(2) =(1) "
   524                                  ; Fused expression:    "numColumnasOriginal push-ax ptrBiosArea + *ax 1098 =(154) **sp *ax "
   525                                  section .relod
   526 00000008 [5C000000]              	dd	L5
   527                                  section .text
   528 0000005A 66B8                    	db	0x66, 0xB8
   529                                  L5:
   530 0000005C [22000000]              	dd	_numColumnasOriginal
   531 00000060 6650                    	push	eax
   532                                  section .relod
   533 0000000C [64000000]              	dd	L6
   534                                  section .text
   535 00000062 66B8                    	db	0x66, 0xB8
   536                                  L6:
   537 00000064 [00000000]              	dd	_ptrBiosArea
   538 00000068 6689C3                  	mov	ebx, eax
   539 0000006B 6689DE                  	mov	esi, ebx
   540 0000006E 66C1CE04                	ror	esi, 4
   541 00000072 8EDE                    	mov	ds, si
   542 00000074 66C1EE1C                	shr	esi, 28
   543 00000078 668B04                  	mov	eax, [si]
   544 0000007B 66054A040000            	add	eax, 1098
   545 00000081 6689C3                  	mov	ebx, eax
   546 00000084 6689DE                  	mov	esi, ebx
   547 00000087 66C1CE04                	ror	esi, 4
   548 0000008B 8EDE                    	mov	ds, si
   549 0000008D 66C1EE1C                	shr	esi, 28
   550 00000091 8B04                    	mov	ax, [si]
   551 00000093 660FB7C0                	movzx	eax, ax
   552 00000097 665B                    	pop	ebx
   553 00000099 6689DE                  	mov	esi, ebx
   554 0000009C 66C1CE04                	ror	esi, 4
   555 000000A0 8EDE                    	mov	ds, si
   556 000000A2 66C1EE1C                	shr	esi, 28
   557 000000A6 8804                    	mov	[si], al
   558 000000A8 660FB6C0                	movzx	eax, al
   559                                  ; RPN'ized expression: "fontSizeOriginal ptrBiosArea VIDEO_hchar -> *u = "
   560                                  ; Expanded expression: "fontSizeOriginal ptrBiosArea *(4) 1157 + *(2) =(1) "
   561                                  ; Fused expression:    "fontSizeOriginal push-ax ptrBiosArea + *ax 1157 =(154) **sp *ax "
   562                                  section .relod
   563 00000010 [AE000000]              	dd	L7
   564                                  section .text
   565 000000AC 66B8                    	db	0x66, 0xB8
   566                                  L7:
   567 000000AE [23000000]              	dd	_fontSizeOriginal
   568 000000B2 6650                    	push	eax
   569                                  section .relod
   570 00000014 [B6000000]              	dd	L8
   571                                  section .text
   572 000000B4 66B8                    	db	0x66, 0xB8
   573                                  L8:
   574 000000B6 [00000000]              	dd	_ptrBiosArea
   575 000000BA 6689C3                  	mov	ebx, eax
   576 000000BD 6689DE                  	mov	esi, ebx
   577 000000C0 66C1CE04                	ror	esi, 4
   578 000000C4 8EDE                    	mov	ds, si
   579 000000C6 66C1EE1C                	shr	esi, 28
   580 000000CA 668B04                  	mov	eax, [si]
   581 000000CD 660585040000            	add	eax, 1157
   582 000000D3 6689C3                  	mov	ebx, eax
   583 000000D6 6689DE                  	mov	esi, ebx
   584 000000D9 66C1CE04                	ror	esi, 4
   585 000000DD 8EDE                    	mov	ds, si
   586 000000DF 66C1EE1C                	shr	esi, 28
   587 000000E3 8B04                    	mov	ax, [si]
   588 000000E5 660FB7C0                	movzx	eax, ax
   589 000000E9 665B                    	pop	ebx
   590 000000EB 6689DE                  	mov	esi, ebx
   591 000000EE 66C1CE04                	ror	esi, 4
   592 000000F2 8EDE                    	mov	ds, si
   593 000000F4 66C1EE1C                	shr	esi, 28
   594 000000F8 8804                    	mov	[si], al
   595 000000FA 660FB6C0                	movzx	eax, al
   596                                  ; RPN'ized expression: "( lineaOriginal2 &u , lineaOriginal1 &u , cursorOriginalC &u , cursorOriginalF &u readXYBIOS ) "
   597                                  ; Expanded expression: " lineaOriginal2  lineaOriginal1  cursorOriginalC  cursorOriginalF  readXYBIOS ()16 "
   598                                  ; Fused expression:    "( lineaOriginal2 , lineaOriginal1 , cursorOriginalC , cursorOriginalF , readXYBIOS )16 "
   599                                  section .relod
   600 00000018 [00010000]              	dd	L9
   601                                  section .text
   602 000000FE 6668                    	db	0x66, 0x68
   603                                  L9:
   604 00000100 [20000000]              	dd	_lineaOriginal2
   605                                  section .relod
   606 0000001C [06010000]              	dd	L10
   607                                  section .text
   608 00000104 6668                    	db	0x66, 0x68
   609                                  L10:
   610 00000106 [1F000000]              	dd	_lineaOriginal1
   611                                  section .relod
   612 00000020 [0C010000]              	dd	L11
   613                                  section .text
   614 0000010A 6668                    	db	0x66, 0x68
   615                                  L11:
   616 0000010C [1E000000]              	dd	_cursorOriginalC
   617                                  section .relod
   618 00000024 [12010000]              	dd	L12
   619                                  section .text
   620 00000110 6668                    	db	0x66, 0x68
   621                                  L12:
   622 00000112 [1D000000]              	dd	_cursorOriginalF
   623 00000116 9A                      	db	0x9A
   624                                  section .relot
   625 00000000 [17010000]              	dd	L13
   626                                  section .text
   627                                  L13:
   628 00000117 [00000000]              	dd	_readXYBIOS
   629 0000011B 83ECF0                  	sub	sp, -16
   630                                  ; RPN'ized expression: "tipoAdaptador ( tipoDeAdaptador ) = "
   631                                  ; Expanded expression: "tipoAdaptador  tipoDeAdaptador ()0 =(4) "
   632                                  ; Fused expression:    "tipoAdaptador push-ax ( tipoDeAdaptador )0 =(204) **sp ax "
   633                                  section .relod
   634 00000028 [20010000]              	dd	L14
   635                                  section .text
   636 0000011E 66B8                    	db	0x66, 0xB8
   637                                  L14:
   638 00000120 [08000000]              	dd	_tipoAdaptador
   639 00000124 6650                    	push	eax
   640 00000126 9A                      	db	0x9A
   641                                  section .relot
   642 00000004 [27010000]              	dd	L15
   643                                  section .text
   644                                  L15:
   645 00000127 [CA070000]              	dd	_tipoDeAdaptador
   646 0000012B 665B                    	pop	ebx
   647 0000012D 6689DE                  	mov	esi, ebx
   648 00000130 66C1CE04                	ror	esi, 4
   649 00000134 8EDE                    	mov	ds, si
   650 00000136 66C1EE1C                	shr	esi, 28
   651 0000013A 668904                  	mov	[si], eax
   652                                  ; loc     <something> : * union <something>
   653                                  ; loc     <something> : unsigned
   654                                  ; RPN'ized expression: "ptrPant segMemVideo (something17) 4 << (something16) = "
   655                                  ; Expanded expression: "ptrPant segMemVideo *(2) 4 << =(4) "
   656                                  ; Fused expression:    "ptrPant push-ax segMemVideo << *ax 4 =(204) **sp ax "
   657                                  section .relod
   658 0000002C [3F010000]              	dd	L18
   659                                  section .text
   660 0000013D 66B8                    	db	0x66, 0xB8
   661                                  L18:
   662 0000013F [04000000]              	dd	_ptrPant
   663 00000143 6650                    	push	eax
   664                                  section .relod
   665 00000030 [47010000]              	dd	L19
   666                                  section .text
   667 00000145 66B8                    	db	0x66, 0xB8
   668                                  L19:
   669 00000147 [30000000]              	dd	_segMemVideo
   670 0000014B 6689C3                  	mov	ebx, eax
   671 0000014E 6689DE                  	mov	esi, ebx
   672 00000151 66C1CE04                	ror	esi, 4
   673 00000155 8EDE                    	mov	ds, si
   674 00000157 66C1EE1C                	shr	esi, 28
   675 0000015B 8B04                    	mov	ax, [si]
   676 0000015D 660FB7C0                	movzx	eax, ax
   677 00000161 66C1E004                	shl	eax, 4
   678 00000165 665B                    	pop	ebx
   679 00000167 6689DE                  	mov	esi, ebx
   680 0000016A 66C1CE04                	ror	esi, 4
   681 0000016E 8EDE                    	mov	ds, si
   682 00000170 66C1EE1C                	shr	esi, 28
   683 00000174 668904                  	mov	[si], eax
   684                                  ; RPN'ized expression: "redimensionable TRUE = "
   685                                  ; Expanded expression: "redimensionable 1 =(4) "
   686                                  ; Fused expression:    "redimensionable =(204) *ax 1 "
   687                                  section .relod
   688 00000034 [79010000]              	dd	L20
   689                                  section .text
   690 00000177 66B8                    	db	0x66, 0xB8
   691                                  L20:
   692 00000179 [14000000]              	dd	_redimensionable
   693 0000017D 6689C3                  	mov	ebx, eax
   694 00000180 66B801000000            	mov	eax, 1
   695 00000186 6689DE                  	mov	esi, ebx
   696 00000189 66C1CE04                	ror	esi, 4
   697 0000018D 8EDE                    	mov	ds, si
   698 0000018F 66C1EE1C                	shr	esi, 28
   699 00000193 668904                  	mov	[si], eax
   700                                  ; RPN'ized expression: "numFilas ptrBiosArea VIDEO_lastrow -> *u 1 + = "
   701                                  ; Expanded expression: "numFilas ptrBiosArea *(4) 1156 + *(1) 1 + =(1) "
   702                                  ; Fused expression:    "numFilas push-ax ptrBiosArea + *ax 1156 + *ax 1 =(156) **sp ax "
   703                                  section .relod
   704 00000038 [98010000]              	dd	L21
   705                                  section .text
   706 00000196 66B8                    	db	0x66, 0xB8
   707                                  L21:
   708 00000198 [00000000]              	dd	_numFilas
   709 0000019C 6650                    	push	eax
   710                                  section .relod
   711 0000003C [A0010000]              	dd	L22
   712                                  section .text
   713 0000019E 66B8                    	db	0x66, 0xB8
   714                                  L22:
   715 000001A0 [00000000]              	dd	_ptrBiosArea
   716 000001A4 6689C3                  	mov	ebx, eax
   717 000001A7 6689DE                  	mov	esi, ebx
   718 000001AA 66C1CE04                	ror	esi, 4
   719 000001AE 8EDE                    	mov	ds, si
   720 000001B0 66C1EE1C                	shr	esi, 28
   721 000001B4 668B04                  	mov	eax, [si]
   722 000001B7 660584040000            	add	eax, 1156
   723 000001BD 6689C3                  	mov	ebx, eax
   724 000001C0 6689DE                  	mov	esi, ebx
   725 000001C3 66C1CE04                	ror	esi, 4
   726 000001C7 8EDE                    	mov	ds, si
   727 000001C9 66C1EE1C                	shr	esi, 28
   728 000001CD 8A04                    	mov	al, [si]
   729 000001CF 660FB6C0                	movzx	eax, al
   730 000001D3 6640                    	inc	eax
   731 000001D5 665B                    	pop	ebx
   732 000001D7 6689DE                  	mov	esi, ebx
   733 000001DA 66C1CE04                	ror	esi, 4
   734 000001DE 8EDE                    	mov	ds, si
   735 000001E0 66C1EE1C                	shr	esi, 28
   736 000001E4 8804                    	mov	[si], al
   737 000001E6 660FB6C0                	movzx	eax, al
   738                                  ; loc     <something> : unsigned char
   739                                  ; RPN'ized expression: "numColumnas ptrBiosArea VIDEO_width -> *u (something23) = "
   740                                  ; Expanded expression: "numColumnas ptrBiosArea *(4) 1098 + *(2) unsigned char =(1) "
   741                                  ; Fused expression:    "numColumnas push-ax ptrBiosArea + *ax 1098 *(2) ax unsigned char =(156) **sp ax "
   742                                  section .relod
   743 00000040 [EC010000]              	dd	L24
   744                                  section .text
   745 000001EA 66B8                    	db	0x66, 0xB8
   746                                  L24:
   747 000001EC [01000000]              	dd	_numColumnas
   748 000001F0 6650                    	push	eax
   749                                  section .relod
   750 00000044 [F4010000]              	dd	L25
   751                                  section .text
   752 000001F2 66B8                    	db	0x66, 0xB8
   753                                  L25:
   754 000001F4 [00000000]              	dd	_ptrBiosArea
   755 000001F8 6689C3                  	mov	ebx, eax
   756 000001FB 6689DE                  	mov	esi, ebx
   757 000001FE 66C1CE04                	ror	esi, 4
   758 00000202 8EDE                    	mov	ds, si
   759 00000204 66C1EE1C                	shr	esi, 28
   760 00000208 668B04                  	mov	eax, [si]
   761 0000020B 66054A040000            	add	eax, 1098
   762 00000211 6689C3                  	mov	ebx, eax
   763 00000214 6689DE                  	mov	esi, ebx
   764 00000217 66C1CE04                	ror	esi, 4
   765 0000021B 8EDE                    	mov	ds, si
   766 0000021D 66C1EE1C                	shr	esi, 28
   767 00000221 8B04                    	mov	ax, [si]
   768 00000223 660FB7C0                	movzx	eax, ax
   769 00000227 6625FF000000            	and	eax, 255
   770 0000022D 665B                    	pop	ebx
   771 0000022F 6689DE                  	mov	esi, ebx
   772 00000232 66C1CE04                	ror	esi, 4
   773 00000236 8EDE                    	mov	ds, si
   774 00000238 66C1EE1C                	shr	esi, 28
   775 0000023C 8804                    	mov	[si], al
   776 0000023E 660FB6C0                	movzx	eax, al
   777                                  ; RPN'ized expression: "redimensionable numFilas 50 == = "
   778                                  ; Expanded expression: "redimensionable numFilas *(1) 50 == =(4) "
   779                                  ; Fused expression:    "redimensionable push-ax numFilas == *ax 50 =(204) **sp ax "
   780                                  section .relod
   781 00000048 [44020000]              	dd	L26
   782                                  section .text
   783 00000242 66B8                    	db	0x66, 0xB8
   784                                  L26:
   785 00000244 [14000000]              	dd	_redimensionable
   786 00000248 6650                    	push	eax
   787                                  section .relod
   788 0000004C [4C020000]              	dd	L27
   789                                  section .text
   790 0000024A 66B8                    	db	0x66, 0xB8
   791                                  L27:
   792 0000024C [00000000]              	dd	_numFilas
   793 00000250 6689C3                  	mov	ebx, eax
   794 00000253 6689DE                  	mov	esi, ebx
   795 00000256 66C1CE04                	ror	esi, 4
   796 0000025A 8EDE                    	mov	ds, si
   797 0000025C 66C1EE1C                	shr	esi, 28
   798 00000260 8A04                    	mov	al, [si]
   799 00000262 660FB6C0                	movzx	eax, al
   800 00000266 6683F832                	cmp	eax, 50
   801 0000026A 0F94C0                  	sete	al
   802 0000026D 660FB6C0                	movzx	eax, al
   803 00000271 665B                    	pop	ebx
   804 00000273 6689DE                  	mov	esi, ebx
   805 00000276 66C1CE04                	ror	esi, 4
   806 0000027A 8EDE                    	mov	ds, si
   807 0000027C 66C1EE1C                	shr	esi, 28
   808 00000280 668904                  	mov	[si], eax
   809                                  ; RPN'ized expression: "VIDEO_mode ptrBiosArea VIDEO_mode -> *u = "
   810                                  ; Expanded expression: "VIDEO_mode ptrBiosArea *(4) 1097 + *(1) =(1) "
   811                                  ; Fused expression:    "VIDEO_mode push-ax ptrBiosArea + *ax 1097 =(153) **sp *ax "
   812                                  section .relod
   813 00000050 [85020000]              	dd	L28
   814                                  section .text
   815 00000283 66B8                    	db	0x66, 0xB8
   816                                  L28:
   817 00000285 [24000000]              	dd	_VIDEO_mode
   818 00000289 6650                    	push	eax
   819                                  section .relod
   820 00000054 [8D020000]              	dd	L29
   821                                  section .text
   822 0000028B 66B8                    	db	0x66, 0xB8
   823                                  L29:
   824 0000028D [00000000]              	dd	_ptrBiosArea
   825 00000291 6689C3                  	mov	ebx, eax
   826 00000294 6689DE                  	mov	esi, ebx
   827 00000297 66C1CE04                	ror	esi, 4
   828 0000029B 8EDE                    	mov	ds, si
   829 0000029D 66C1EE1C                	shr	esi, 28
   830 000002A1 668B04                  	mov	eax, [si]
   831 000002A4 660549040000            	add	eax, 1097
   832 000002AA 6689C3                  	mov	ebx, eax
   833 000002AD 6689DE                  	mov	esi, ebx
   834 000002B0 66C1CE04                	ror	esi, 4
   835 000002B4 8EDE                    	mov	ds, si
   836 000002B6 66C1EE1C                	shr	esi, 28
   837 000002BA 8A04                    	mov	al, [si]
   838 000002BC 660FB6C0                	movzx	eax, al
   839 000002C0 665B                    	pop	ebx
   840 000002C2 6689DE                  	mov	esi, ebx
   841 000002C5 66C1CE04                	ror	esi, 4
   842 000002C9 8EDE                    	mov	ds, si
   843 000002CB 66C1EE1C                	shr	esi, 28
   844 000002CF 8804                    	mov	[si], al
   845 000002D1 660FB6C0                	movzx	eax, al
   846                                  ; RPN'ized expression: "VIDEO_pagesize ptrBiosArea VIDEO_pagesize -> *u = "
   847                                  ; Expanded expression: "VIDEO_pagesize ptrBiosArea *(4) 1100 + *(2) =(2) "
   848                                  ; Fused expression:    "VIDEO_pagesize push-ax ptrBiosArea + *ax 1100 =(170) **sp *ax "
   849                                  section .relod
   850 00000058 [D7020000]              	dd	L30
   851                                  section .text
   852 000002D5 66B8                    	db	0x66, 0xB8
   853                                  L30:
   854 000002D7 [28000000]              	dd	_VIDEO_pagesize
   855 000002DB 6650                    	push	eax
   856                                  section .relod
   857 0000005C [DF020000]              	dd	L31
   858                                  section .text
   859 000002DD 66B8                    	db	0x66, 0xB8
   860                                  L31:
   861 000002DF [00000000]              	dd	_ptrBiosArea
   862 000002E3 6689C3                  	mov	ebx, eax
   863 000002E6 6689DE                  	mov	esi, ebx
   864 000002E9 66C1CE04                	ror	esi, 4
   865 000002ED 8EDE                    	mov	ds, si
   866 000002EF 66C1EE1C                	shr	esi, 28
   867 000002F3 668B04                  	mov	eax, [si]
   868 000002F6 66054C040000            	add	eax, 1100
   869 000002FC 6689C3                  	mov	ebx, eax
   870 000002FF 6689DE                  	mov	esi, ebx
   871 00000302 66C1CE04                	ror	esi, 4
   872 00000306 8EDE                    	mov	ds, si
   873 00000308 66C1EE1C                	shr	esi, 28
   874 0000030C 8B04                    	mov	ax, [si]
   875 0000030E 660FB7C0                	movzx	eax, ax
   876 00000312 665B                    	pop	ebx
   877 00000314 6689DE                  	mov	esi, ebx
   878 00000317 66C1CE04                	ror	esi, 4
   879 0000031B 8EDE                    	mov	ds, si
   880 0000031D 66C1EE1C                	shr	esi, 28
   881 00000321 8904                    	mov	[si], ax
   882 00000323 660FB7C0                	movzx	eax, ax
   883                                  ; RPN'ized expression: "VIDEO_pageoff ptrBiosArea VIDEO_pageoff -> *u = "
   884                                  ; Expanded expression: "VIDEO_pageoff ptrBiosArea *(4) 1102 + *(2) =(2) "
   885                                  ; Fused expression:    "VIDEO_pageoff push-ax ptrBiosArea + *ax 1102 =(170) **sp *ax "
   886                                  section .relod
   887 00000060 [29030000]              	dd	L32
   888                                  section .text
   889 00000327 66B8                    	db	0x66, 0xB8
   890                                  L32:
   891 00000329 [2C000000]              	dd	_VIDEO_pageoff
   892 0000032D 6650                    	push	eax
   893                                  section .relod
   894 00000064 [31030000]              	dd	L33
   895                                  section .text
   896 0000032F 66B8                    	db	0x66, 0xB8
   897                                  L33:
   898 00000331 [00000000]              	dd	_ptrBiosArea
   899 00000335 6689C3                  	mov	ebx, eax
   900 00000338 6689DE                  	mov	esi, ebx
   901 0000033B 66C1CE04                	ror	esi, 4
   902 0000033F 8EDE                    	mov	ds, si
   903 00000341 66C1EE1C                	shr	esi, 28
   904 00000345 668B04                  	mov	eax, [si]
   905 00000348 66054E040000            	add	eax, 1102
   906 0000034E 6689C3                  	mov	ebx, eax
   907 00000351 6689DE                  	mov	esi, ebx
   908 00000354 66C1CE04                	ror	esi, 4
   909 00000358 8EDE                    	mov	ds, si
   910 0000035A 66C1EE1C                	shr	esi, 28
   911 0000035E 8B04                    	mov	ax, [si]
   912 00000360 660FB7C0                	movzx	eax, ax
   913 00000364 665B                    	pop	ebx
   914 00000366 6689DE                  	mov	esi, ebx
   915 00000369 66C1CE04                	ror	esi, 4
   916 0000036D 8EDE                    	mov	ds, si
   917 0000036F 66C1EE1C                	shr	esi, 28
   918 00000373 8904                    	mov	[si], ax
   919 00000375 660FB7C0                	movzx	eax, ax
   920                                  L1:
   921 00000379 66                      	db	0x66
   922 0000037A C9                      	leave
   923 0000037B CB                      	retf
   924                                  L34:
   925                                  
   926                                  section .fxnsz noalloc
   927 00000000 7C030000                	dd	L34 - _inicBiosCrt
   928                                  
   929                                  ; glb finBiosCrt : (void) void
   930                                  section .text
   931                                  	global	_finBiosCrt
   932                                  _finBiosCrt:
   933 0000037C 6655                    	push	ebp
   934 0000037E 660FB7EC                	movzx	ebp, sp
   935                                  	;sub	sp,          0
   936                                  ; RPN'ized expression: "( numColumnasOriginal , numFilasOriginal redimensionar ) "
   937                                  ; Expanded expression: " numColumnasOriginal *(1)  numFilasOriginal *(1)  redimensionar ()8 "
   938                                  ; Fused expression:    "( numColumnasOriginal *(1) ax , numFilasOriginal *(1) ax , redimensionar )8 "
   939                                  section .relod
   940 00000068 [84030000]              	dd	L37
   941                                  section .text
   942 00000382 66B8                    	db	0x66, 0xB8
   943                                  L37:
   944 00000384 [22000000]              	dd	_numColumnasOriginal
   945 00000388 6689C3                  	mov	ebx, eax
   946 0000038B 6689DE                  	mov	esi, ebx
   947 0000038E 66C1CE04                	ror	esi, 4
   948 00000392 8EDE                    	mov	ds, si
   949 00000394 66C1EE1C                	shr	esi, 28
   950 00000398 8A04                    	mov	al, [si]
   951 0000039A 660FB6C0                	movzx	eax, al
   952 0000039E 6650                    	push	eax
   953                                  section .relod
   954 0000006C [A2030000]              	dd	L38
   955                                  section .text
   956 000003A0 66B8                    	db	0x66, 0xB8
   957                                  L38:
   958 000003A2 [21000000]              	dd	_numFilasOriginal
   959 000003A6 6689C3                  	mov	ebx, eax
   960 000003A9 6689DE                  	mov	esi, ebx
   961 000003AC 66C1CE04                	ror	esi, 4
   962 000003B0 8EDE                    	mov	ds, si
   963 000003B2 66C1EE1C                	shr	esi, 28
   964 000003B6 8A04                    	mov	al, [si]
   965 000003B8 660FB6C0                	movzx	eax, al
   966 000003BC 6650                    	push	eax
   967 000003BE 9A                      	db	0x9A
   968                                  section .relot
   969 00000008 [BF030000]              	dd	L39
   970                                  section .text
   971                                  L39:
   972 000003BF [910E0000]              	dd	_redimensionar
   973 000003C3 83ECF8                  	sub	sp, -8
   974                                  L35:
   975 000003C6 66                      	db	0x66
   976 000003C7 C9                      	leave
   977 000003C8 CB                      	retf
   978                                  L40:
   979                                  
   980                                  section .fxnsz
   981 00000004 4D000000                	dd	L40 - _finBiosCrt
   982                                  
   983                                  ; glb getFontSize : (void) int
   984                                  section .text
   985                                  	global	_getFontSize
   986                                  _getFontSize:
   987 000003C9 6655                    	push	ebp
   988 000003CB 660FB7EC                	movzx	ebp, sp
   989 000003CF 83EC04                  	 sub	sp,          4
   990                                  ; loc     res : (@-4): int
   991                                  ; RPN'ized expression: "res ptrBiosArea VIDEO_hchar -> *u = "
   992                                  ; Expanded expression: "(@-4) ptrBiosArea *(4) 1157 + *(2) =(4) "
   993                                  ; Fused expression:    "ptrBiosArea + *ax 1157 =(202) *(@-4) *ax "
   994                                  section .relod
   995 00000070 [D4030000]              	dd	L43
   996                                  section .text
   997 000003D2 66B8                    	db	0x66, 0xB8
   998                                  L43:
   999 000003D4 [00000000]              	dd	_ptrBiosArea
  1000 000003D8 6689C3                  	mov	ebx, eax
  1001 000003DB 6689DE                  	mov	esi, ebx
  1002 000003DE 66C1CE04                	ror	esi, 4
  1003 000003E2 8EDE                    	mov	ds, si
  1004 000003E4 66C1EE1C                	shr	esi, 28
  1005 000003E8 668B04                  	mov	eax, [si]
  1006 000003EB 660585040000            	add	eax, 1157
  1007 000003F1 6689C3                  	mov	ebx, eax
  1008 000003F4 6689DE                  	mov	esi, ebx
  1009 000003F7 66C1CE04                	ror	esi, 4
  1010 000003FB 8EDE                    	mov	ds, si
  1011 000003FD 66C1EE1C                	shr	esi, 28
  1012 00000401 8B04                    	mov	ax, [si]
  1013 00000403 660FB7C0                	movzx	eax, ax
  1014 00000407 668946FC                	mov	[bp-4], eax
  1015                                  ; if
  1016                                  ; RPN'ized expression: "res 0 == tipoAdaptador _MDS_GENIUS == && "
  1017                                  ; Expanded expression: "(@-4) *(4) 0 == [sh&&->46] tipoAdaptador *(4) 48 == &&[46] "
  1018                                  ; Fused expression:    "== *(@-4) 0 [sh&&->46] tipoAdaptador == *ax 48 &&[46]  "
  1019 0000040B 668B46FC                	mov	eax, [bp-4]
  1020 0000040F 6683F800                	cmp	eax, 0
  1021 00000413 0F94C0                  	sete	al
  1022 00000416 660FB6C0                	movzx	eax, al
  1023                                  ; JumpIfZero
  1024 0000041A 6685C0                  	test	eax, eax
  1025 0000041D 7424                    	je	L46
  1026                                  section .relod
  1027 00000074 [21040000]              	dd	L47
  1028                                  section .text
  1029 0000041F 66B8                    	db	0x66, 0xB8
  1030                                  L47:
  1031 00000421 [08000000]              	dd	_tipoAdaptador
  1032 00000425 6689C3                  	mov	ebx, eax
  1033 00000428 6689DE                  	mov	esi, ebx
  1034 0000042B 66C1CE04                	ror	esi, 4
  1035 0000042F 8EDE                    	mov	ds, si
  1036 00000431 66C1EE1C                	shr	esi, 28
  1037 00000435 668B04                  	mov	eax, [si]
  1038 00000438 6683F830                	cmp	eax, 48
  1039 0000043C 0F94C0                  	sete	al
  1040 0000043F 660FB6C0                	movzx	eax, al
  1041                                  L46:
  1042                                  ; JumpIfZero
  1043 00000443 6685C0                  	test	eax, eax
  1044 00000446 740A                    	je	L44
  1045                                  ; RPN'ized expression: "res _FONT15 = "
  1046                                  ; Expanded expression: "(@-4) 15 =(4) "
  1047                                  ; Fused expression:    "=(204) *(@-4) 15 "
  1048 00000448 66B80F000000            	mov	eax, 15
  1049 0000044E 668946FC                	mov	[bp-4], eax
  1050                                  L44:
  1051                                  ; switch
  1052                                  ; RPN'ized expression: "tipoAdaptador "
  1053                                  ; Expanded expression: "tipoAdaptador *(4) "
  1054                                  ; Fused expression:    "tipoAdaptador *(4) ax  "
  1055                                  section .relod
  1056 00000078 [54040000]              	dd	L50
  1057                                  section .text
  1058 00000452 66B8                    	db	0x66, 0xB8
  1059                                  L50:
  1060 00000454 [08000000]              	dd	_tipoAdaptador
  1061 00000458 6689C3                  	mov	ebx, eax
  1062 0000045B 6689DE                  	mov	esi, ebx
  1063 0000045E 66C1CE04                	ror	esi, 4
  1064 00000462 8EDE                    	mov	ds, si
  1065 00000464 66C1EE1C                	shr	esi, 28
  1066 00000468 668B04                  	mov	eax, [si]
  1067 0000046B EB3C                    	jmp	L49
  1068                                  ; {
  1069                                  ; case
  1070                                  ; RPN'ized expression: "_MDA "
  1071                                  ; Expanded expression: "1 "
  1072                                  ; Expression value: 1
  1073                                  L51:
  1074                                  ; RPN'ized expression: "res 10 = "
  1075                                  ; Expanded expression: "(@-4) 10 =(4) "
  1076                                  ; Fused expression:    "=(204) *(@-4) 10 "
  1077 0000046D 66B80A000000            	mov	eax, 10
  1078 00000473 668946FC                	mov	[bp-4], eax
  1079                                  ; break
  1080 00000477 EB48                    	jmp	L48
  1081                                  ; case
  1082                                  ; RPN'ized expression: "_EGACOLOR "
  1083                                  ; Expanded expression: "4 "
  1084                                  ; Expression value: 4
  1085                                  L52:
  1086                                  ; case
  1087                                  ; RPN'ized expression: "_EGAMONO "
  1088                                  ; Expanded expression: "5 "
  1089                                  ; Expression value: 5
  1090                                  L53:
  1091                                  ; switch
  1092                                  ; RPN'ized expression: "res "
  1093                                  ; Expanded expression: "(@-4) *(4) "
  1094                                  ; Fused expression:    "*(4) (@-4)  "
  1095 00000479 668B46FC                	mov	eax, [bp-4]
  1096 0000047D EB0E                    	jmp	L55
  1097                                  ; {
  1098                                  ; case
  1099                                  ; RPN'ized expression: "_FONT08 "
  1100                                  ; Expanded expression: "8 "
  1101                                  ; Expression value: 8
  1102                                  L56:
  1103                                  ; case
  1104                                  ; RPN'ized expression: "_FONT14 "
  1105                                  ; Expanded expression: "14 "
  1106                                  ; Expression value: 14
  1107                                  L57:
  1108                                  ; break
  1109 0000047F EB1A                    	jmp	L54
  1110                                  ; default
  1111                                  L58:
  1112                                  ; RPN'ized expression: "res _FONT14 = "
  1113                                  ; Expanded expression: "(@-4) 14 =(4) "
  1114                                  ; Fused expression:    "=(204) *(@-4) 14 "
  1115 00000481 66B80E000000            	mov	eax, 14
  1116 00000487 668946FC                	mov	[bp-4], eax
  1117                                  ; }
  1118 0000048B EB0E                    	jmp	L54
  1119                                  L55:
  1120 0000048D 6683F808                	cmp	eax, 8
  1121 00000491 74EC                    	je	L56
  1122 00000493 6683F80E                	cmp	eax, 14
  1123 00000497 74E6                    	je	L57
  1124 00000499 EBE6                    	jmp	L58
  1125                                  L54:
  1126                                  ; break
  1127 0000049B EB24                    	jmp	L48
  1128                                  ; case
  1129                                  ; RPN'ized expression: "_CGA "
  1130                                  ; Expanded expression: "2 "
  1131                                  ; Expression value: 2
  1132                                  L59:
  1133                                  ; RPN'ized expression: "res _FONT08 = "
  1134                                  ; Expanded expression: "(@-4) 8 =(4) "
  1135                                  ; Fused expression:    "=(204) *(@-4) 8 "
  1136 0000049D 66B808000000            	mov	eax, 8
  1137 000004A3 668946FC                	mov	[bp-4], eax
  1138                                  ; }
  1139 000004A7 EB18                    	jmp	L48
  1140                                  L49:
  1141 000004A9 6683F801                	cmp	eax, 1
  1142 000004AD 74BE                    	je	L51
  1143 000004AF 6683F804                	cmp	eax, 4
  1144 000004B3 74C4                    	je	L52
  1145 000004B5 6683F805                	cmp	eax, 5
  1146 000004B9 74BE                    	je	L53
  1147 000004BB 6683F802                	cmp	eax, 2
  1148 000004BF 74DC                    	je	L59
  1149                                  L48:
  1150                                  ; return
  1151                                  ; RPN'ized expression: "res "
  1152                                  ; Expanded expression: "(@-4) *(4) "
  1153                                  ; Fused expression:    "*(4) (@-4)  "
  1154 000004C1 668B46FC                	mov	eax, [bp-4]
  1155                                  L41:
  1156 000004C5 66                      	db	0x66
  1157 000004C6 C9                      	leave
  1158 000004C7 CB                      	retf
  1159                                  L60:
  1160                                  
  1161                                  section .fxnsz
  1162 00000008 FF000000                	dd	L60 - _getFontSize
  1163                                  
  1164                                  ; glb getFilas : (void) unsigned char
  1165                                  section .text
  1166                                  	global	_getFilas
  1167                                  _getFilas:
  1168 000004C8 6655                    	push	ebp
  1169 000004CA 660FB7EC                	movzx	ebp, sp
  1170 000004CE 83EC04                  	 sub	sp,          4
  1171                                  ; loc     filas : (@-4): int
  1172                                  ; RPN'ized expression: "filas ptrBiosArea VIDEO_lastrow -> *u 1 + = "
  1173                                  ; Expanded expression: "(@-4) ptrBiosArea *(4) 1156 + *(1) 1 + =(4) "
  1174                                  ; Fused expression:    "ptrBiosArea + *ax 1156 + *ax 1 =(204) *(@-4) ax "
  1175                                  section .relod
  1176 0000007C [D3040000]              	dd	L63
  1177                                  section .text
  1178 000004D1 66B8                    	db	0x66, 0xB8
  1179                                  L63:
  1180 000004D3 [00000000]              	dd	_ptrBiosArea
  1181 000004D7 6689C3                  	mov	ebx, eax
  1182 000004DA 6689DE                  	mov	esi, ebx
  1183 000004DD 66C1CE04                	ror	esi, 4
  1184 000004E1 8EDE                    	mov	ds, si
  1185 000004E3 66C1EE1C                	shr	esi, 28
  1186 000004E7 668B04                  	mov	eax, [si]
  1187 000004EA 660584040000            	add	eax, 1156
  1188 000004F0 6689C3                  	mov	ebx, eax
  1189 000004F3 6689DE                  	mov	esi, ebx
  1190 000004F6 66C1CE04                	ror	esi, 4
  1191 000004FA 8EDE                    	mov	ds, si
  1192 000004FC 66C1EE1C                	shr	esi, 28
  1193 00000500 8A04                    	mov	al, [si]
  1194 00000502 660FB6C0                	movzx	eax, al
  1195 00000506 6640                    	inc	eax
  1196 00000508 668946FC                	mov	[bp-4], eax
  1197                                  ; if
  1198                                  ; RPN'ized expression: "filas 1 == tipoAdaptador _MDS_GENIUS == && "
  1199                                  ; Expanded expression: "(@-4) *(4) 1 == [sh&&->66] tipoAdaptador *(4) 48 == &&[66] "
  1200                                  ; Fused expression:    "== *(@-4) 1 [sh&&->66] tipoAdaptador == *ax 48 &&[66]  "
  1201 0000050C 668B46FC                	mov	eax, [bp-4]
  1202 00000510 6683F801                	cmp	eax, 1
  1203 00000514 0F94C0                  	sete	al
  1204 00000517 660FB6C0                	movzx	eax, al
  1205                                  ; JumpIfZero
  1206 0000051B 6685C0                  	test	eax, eax
  1207 0000051E 7424                    	je	L66
  1208                                  section .relod
  1209 00000080 [22050000]              	dd	L67
  1210                                  section .text
  1211 00000520 66B8                    	db	0x66, 0xB8
  1212                                  L67:
  1213 00000522 [08000000]              	dd	_tipoAdaptador
  1214 00000526 6689C3                  	mov	ebx, eax
  1215 00000529 6689DE                  	mov	esi, ebx
  1216 0000052C 66C1CE04                	ror	esi, 4
  1217 00000530 8EDE                    	mov	ds, si
  1218 00000532 66C1EE1C                	shr	esi, 28
  1219 00000536 668B04                  	mov	eax, [si]
  1220 00000539 6683F830                	cmp	eax, 48
  1221 0000053D 0F94C0                  	sete	al
  1222 00000540 660FB6C0                	movzx	eax, al
  1223                                  L66:
  1224                                  ; JumpIfZero
  1225 00000544 6685C0                  	test	eax, eax
  1226 00000547 740A                    	je	L64
  1227                                  ; RPN'ized expression: "filas 66 = "
  1228                                  ; Expanded expression: "(@-4) 66 =(4) "
  1229                                  ; Fused expression:    "=(204) *(@-4) 66 "
  1230 00000549 66B842000000            	mov	eax, 66
  1231 0000054F 668946FC                	mov	[bp-4], eax
  1232                                  L64:
  1233                                  ; if
  1234                                  ; RPN'ized expression: "filas 1 == tipoAdaptador _MDA == && "
  1235                                  ; Expanded expression: "(@-4) *(4) 1 == [sh&&->70] tipoAdaptador *(4) 1 == &&[70] "
  1236                                  ; Fused expression:    "== *(@-4) 1 [sh&&->70] tipoAdaptador == *ax 1 &&[70]  "
  1237 00000553 668B46FC                	mov	eax, [bp-4]
  1238 00000557 6683F801                	cmp	eax, 1
  1239 0000055B 0F94C0                  	sete	al
  1240 0000055E 660FB6C0                	movzx	eax, al
  1241                                  ; JumpIfZero
  1242 00000562 6685C0                  	test	eax, eax
  1243 00000565 7424                    	je	L70
  1244                                  section .relod
  1245 00000084 [69050000]              	dd	L71
  1246                                  section .text
  1247 00000567 66B8                    	db	0x66, 0xB8
  1248                                  L71:
  1249 00000569 [08000000]              	dd	_tipoAdaptador
  1250 0000056D 6689C3                  	mov	ebx, eax
  1251 00000570 6689DE                  	mov	esi, ebx
  1252 00000573 66C1CE04                	ror	esi, 4
  1253 00000577 8EDE                    	mov	ds, si
  1254 00000579 66C1EE1C                	shr	esi, 28
  1255 0000057D 668B04                  	mov	eax, [si]
  1256 00000580 6683F801                	cmp	eax, 1
  1257 00000584 0F94C0                  	sete	al
  1258 00000587 660FB6C0                	movzx	eax, al
  1259                                  L70:
  1260                                  ; JumpIfZero
  1261 0000058B 6685C0                  	test	eax, eax
  1262 0000058E 740A                    	je	L68
  1263                                  ; RPN'ized expression: "filas 25 = "
  1264                                  ; Expanded expression: "(@-4) 25 =(4) "
  1265                                  ; Fused expression:    "=(204) *(@-4) 25 "
  1266 00000590 66B819000000            	mov	eax, 25
  1267 00000596 668946FC                	mov	[bp-4], eax
  1268                                  L68:
  1269                                  ; if
  1270                                  ; RPN'ized expression: "filas 1 == "
  1271                                  ; Expanded expression: "(@-4) *(4) 1 == "
  1272                                  ; Fused expression:    "== *(@-4) 1 IF! "
  1273 0000059A 668B46FC                	mov	eax, [bp-4]
  1274 0000059E 6683F801                	cmp	eax, 1
  1275 000005A2 7529                    	jne	L72
  1276                                  ; {
  1277                                  ; RPN'ized expression: "filas 25 = "
  1278                                  ; Expanded expression: "(@-4) 25 =(4) "
  1279                                  ; Fused expression:    "=(204) *(@-4) 25 "
  1280 000005A4 66B819000000            	mov	eax, 25
  1281 000005AA 668946FC                	mov	[bp-4], eax
  1282                                  ; RPN'ized expression: "videoDirecto FALSE = "
  1283                                  ; Expanded expression: "videoDirecto 0 =(4) "
  1284                                  ; Fused expression:    "videoDirecto =(204) *ax 0 "
  1285                                  section .relod
  1286 00000088 [B0050000]              	dd	L74
  1287                                  section .text
  1288 000005AE 66B8                    	db	0x66, 0xB8
  1289                                  L74:
  1290 000005B0 [10000000]              	dd	_videoDirecto
  1291 000005B4 6689C3                  	mov	ebx, eax
  1292 000005B7 66B800000000            	mov	eax, 0
  1293 000005BD 6689DE                  	mov	esi, ebx
  1294 000005C0 66C1CE04                	ror	esi, 4
  1295 000005C4 8EDE                    	mov	ds, si
  1296 000005C6 66C1EE1C                	shr	esi, 28
  1297 000005CA 668904                  	mov	[si], eax
  1298                                  ; }
  1299                                  L72:
  1300                                  ; switch
  1301                                  ; RPN'ized expression: "tipoAdaptador "
  1302                                  ; Expanded expression: "tipoAdaptador *(4) "
  1303                                  ; Fused expression:    "tipoAdaptador *(4) ax  "
  1304                                  section .relod
  1305 0000008C [CF050000]              	dd	L77
  1306                                  section .text
  1307 000005CD 66B8                    	db	0x66, 0xB8
  1308                                  L77:
  1309 000005CF [08000000]              	dd	_tipoAdaptador
  1310 000005D3 6689C3                  	mov	ebx, eax
  1311 000005D6 6689DE                  	mov	esi, ebx
  1312 000005D9 66C1CE04                	ror	esi, 4
  1313 000005DD 8EDE                    	mov	ds, si
  1314 000005DF 66C1EE1C                	shr	esi, 28
  1315 000005E3 668B04                  	mov	eax, [si]
  1316 000005E6 EB34                    	jmp	L76
  1317                                  ; {
  1318                                  ; case
  1319                                  ; RPN'ized expression: "_EGACOLOR "
  1320                                  ; Expanded expression: "4 "
  1321                                  ; Expression value: 4
  1322                                  L78:
  1323                                  ; case
  1324                                  ; RPN'ized expression: "_EGAMONO "
  1325                                  ; Expanded expression: "5 "
  1326                                  ; Expression value: 5
  1327                                  L79:
  1328                                  ; switch
  1329                                  ; RPN'ized expression: "filas "
  1330                                  ; Expanded expression: "(@-4) *(4) "
  1331                                  ; Fused expression:    "*(4) (@-4)  "
  1332 000005E8 668B46FC                	mov	eax, [bp-4]
  1333 000005EC EB0E                    	jmp	L81
  1334                                  ; {
  1335                                  ; case
  1336                                  ; RPN'ized expression: "25 "
  1337                                  ; Expanded expression: "25 "
  1338                                  ; Expression value: 25
  1339                                  L82:
  1340                                  ; case
  1341                                  ; RPN'ized expression: "43 "
  1342                                  ; Expanded expression: "43 "
  1343                                  ; Expression value: 43
  1344                                  L83:
  1345                                  ; break
  1346 000005EE EB1A                    	jmp	L80
  1347                                  ; default
  1348                                  L84:
  1349                                  ; RPN'ized expression: "filas 25 = "
  1350                                  ; Expanded expression: "(@-4) 25 =(4) "
  1351                                  ; Fused expression:    "=(204) *(@-4) 25 "
  1352 000005F0 66B819000000            	mov	eax, 25
  1353 000005F6 668946FC                	mov	[bp-4], eax
  1354                                  ; }
  1355 000005FA EB0E                    	jmp	L80
  1356                                  L81:
  1357 000005FC 6683F819                	cmp	eax, 25
  1358 00000600 74EC                    	je	L82
  1359 00000602 6683F82B                	cmp	eax, 43
  1360 00000606 74E6                    	je	L83
  1361 00000608 EBE6                    	jmp	L84
  1362                                  L80:
  1363                                  ; break
  1364 0000060A EB2A                    	jmp	L75
  1365                                  ; case
  1366                                  ; RPN'ized expression: "_VGACOLOR "
  1367                                  ; Expanded expression: "7 "
  1368                                  ; Expression value: 7
  1369                                  L85:
  1370                                  ; case
  1371                                  ; RPN'ized expression: "_VGAMONO "
  1372                                  ; Expanded expression: "8 "
  1373                                  ; Expression value: 8
  1374                                  L86:
  1375                                  ; break
  1376 0000060C EB28                    	jmp	L75
  1377                                  ; default
  1378                                  L87:
  1379                                  ; RPN'ized expression: "filas 25 = "
  1380                                  ; Expanded expression: "(@-4) 25 =(4) "
  1381                                  ; Fused expression:    "=(204) *(@-4) 25 "
  1382 0000060E 66B819000000            	mov	eax, 25
  1383 00000614 668946FC                	mov	[bp-4], eax
  1384                                  ; break
  1385 00000618 EB1C                    	jmp	L75
  1386                                  ; }
  1387 0000061A EB1A                    	jmp	L75
  1388                                  L76:
  1389 0000061C 6683F804                	cmp	eax, 4
  1390 00000620 74C6                    	je	L78
  1391 00000622 6683F805                	cmp	eax, 5
  1392 00000626 74C0                    	je	L79
  1393 00000628 6683F807                	cmp	eax, 7
  1394 0000062C 74DE                    	je	L85
  1395 0000062E 6683F808                	cmp	eax, 8
  1396 00000632 74D8                    	je	L86
  1397 00000634 EBD8                    	jmp	L87
  1398                                  L75:
  1399                                  ; return
  1400                                  ; RPN'ized expression: "filas "
  1401                                  ; Expanded expression: "(@-4) *(4) "
  1402                                  ; Fused expression:    "*(4) (@-4) unsigned char  "
  1403 00000636 668B46FC                	mov	eax, [bp-4]
  1404 0000063A 6625FF000000            	and	eax, 255
  1405                                  L61:
  1406 00000640 66                      	db	0x66
  1407 00000641 C9                      	leave
  1408 00000642 CB                      	retf
  1409                                  L88:
  1410                                  
  1411                                  section .fxnsz
  1412 0000000C 7B010000                	dd	L88 - _getFilas
  1413                                  
  1414                                  ; glb comprobarAdaptador : (
  1415                                  ; prm     tipoAdaptador : int
  1416                                  ;     ) int
  1417                                  section .text
  1418                                  	global	_comprobarAdaptador
  1419                                  _comprobarAdaptador:
  1420 00000643 6655                    	push	ebp
  1421 00000645 660FB7EC                	movzx	ebp, sp
  1422 00000649 83EC08                  	 sub	sp,          8
  1423                                  ; loc     tipoAdaptador : (@8): int
  1424                                  ; loc     fontSize : (@-4): int
  1425                                  ; RPN'ized expression: "fontSize ( getFontSize ) = "
  1426                                  ; Expanded expression: "(@-4)  getFontSize ()0 =(4) "
  1427                                  ; Fused expression:    "( getFontSize )0 =(204) *(@-4) ax "
  1428 0000064C 9A                      	db	0x9A
  1429                                  section .relot
  1430 0000000C [4D060000]              	dd	L91
  1431                                  section .text
  1432                                  L91:
  1433 0000064D [C9030000]              	dd	_getFontSize
  1434 00000651 668946FC                	mov	[bp-4], eax
  1435                                  ; loc     filas : (@-8): int
  1436                                  ; RPN'ized expression: "filas ( getFilas ) = "
  1437                                  ; Expanded expression: "(@-8)  getFilas ()0 =(4) "
  1438                                  ; Fused expression:    "( getFilas )0 =(204) *(@-8) ax "
  1439 00000655 9A                      	db	0x9A
  1440                                  section .relot
  1441 00000010 [56060000]              	dd	L92
  1442                                  section .text
  1443                                  L92:
  1444 00000656 [C8040000]              	dd	_getFilas
  1445 0000065A 668946F8                	mov	[bp-8], eax
  1446                                  ; switch
  1447                                  ; RPN'ized expression: "tipoAdaptador "
  1448                                  ; Expanded expression: "(@8) *(4) "
  1449                                  ; Fused expression:    "*(4) (@8)  "
  1450 0000065E 668B4608                	mov	eax, [bp+8]
  1451 00000662 E9C800                  	jmp	L94
  1452                                  ; {
  1453                                  ; case
  1454                                  ; RPN'ized expression: "_EGACOLOR "
  1455                                  ; Expanded expression: "4 "
  1456                                  ; Expression value: 4
  1457                                  L95:
  1458                                  ; case
  1459                                  ; RPN'ized expression: "_EGAMONO "
  1460                                  ; Expanded expression: "5 "
  1461                                  ; Expression value: 5
  1462                                  L96:
  1463                                  ; switch
  1464                                  ; RPN'ized expression: "filas "
  1465                                  ; Expanded expression: "(@-8) *(4) "
  1466                                  ; Fused expression:    "*(4) (@-8)  "
  1467 00000665 668B46F8                	mov	eax, [bp-8]
  1468 00000669 EB23                    	jmp	L98
  1469                                  ; {
  1470                                  ; case
  1471                                  ; RPN'ized expression: "25 "
  1472                                  ; Expanded expression: "25 "
  1473                                  ; Expression value: 25
  1474                                  L99:
  1475                                  ; case
  1476                                  ; RPN'ized expression: "43 "
  1477                                  ; Expanded expression: "43 "
  1478                                  ; Expression value: 43
  1479                                  L100:
  1480                                  ; break
  1481 0000066B EB2F                    	jmp	L97
  1482                                  ; default
  1483                                  L101:
  1484                                  ; RPN'ized expression: "adaptadorNoFiable TRUE = "
  1485                                  ; Expanded expression: "adaptadorNoFiable 1 =(4) "
  1486                                  ; Fused expression:    "adaptadorNoFiable =(204) *ax 1 "
  1487                                  section .relod
  1488 00000090 [6F060000]              	dd	L102
  1489                                  section .text
  1490 0000066D 66B8                    	db	0x66, 0xB8
  1491                                  L102:
  1492 0000066F [18000000]              	dd	_adaptadorNoFiable
  1493 00000673 6689C3                  	mov	ebx, eax
  1494 00000676 66B801000000            	mov	eax, 1
  1495 0000067C 6689DE                  	mov	esi, ebx
  1496 0000067F 66C1CE04                	ror	esi, 4
  1497 00000683 8EDE                    	mov	ds, si
  1498 00000685 66C1EE1C                	shr	esi, 28
  1499 00000689 668904                  	mov	[si], eax
  1500                                  ; }
  1501 0000068C EB0E                    	jmp	L97
  1502                                  L98:
  1503 0000068E 6683F819                	cmp	eax, 25
  1504 00000692 74D7                    	je	L99
  1505 00000694 6683F82B                	cmp	eax, 43
  1506 00000698 74D1                    	je	L100
  1507 0000069A EBD1                    	jmp	L101
  1508                                  L97:
  1509                                  ; switch
  1510                                  ; RPN'ized expression: "fontSize "
  1511                                  ; Expanded expression: "(@-4) *(4) "
  1512                                  ; Fused expression:    "*(4) (@-4)  "
  1513 0000069C 668B46FC                	mov	eax, [bp-4]
  1514 000006A0 EB23                    	jmp	L104
  1515                                  ; {
  1516                                  ; case
  1517                                  ; RPN'ized expression: "_FONT08 "
  1518                                  ; Expanded expression: "8 "
  1519                                  ; Expression value: 8
  1520                                  L105:
  1521                                  ; case
  1522                                  ; RPN'ized expression: "_FONT14 "
  1523                                  ; Expanded expression: "14 "
  1524                                  ; Expression value: 14
  1525                                  L106:
  1526                                  ; break
  1527 000006A2 EB2F                    	jmp	L103
  1528                                  ; default
  1529                                  L107:
  1530                                  ; RPN'ized expression: "adaptadorNoFiable TRUE = "
  1531                                  ; Expanded expression: "adaptadorNoFiable 1 =(4) "
  1532                                  ; Fused expression:    "adaptadorNoFiable =(204) *ax 1 "
  1533                                  section .relod
  1534 00000094 [A6060000]              	dd	L108
  1535                                  section .text
  1536 000006A4 66B8                    	db	0x66, 0xB8
  1537                                  L108:
  1538 000006A6 [18000000]              	dd	_adaptadorNoFiable
  1539 000006AA 6689C3                  	mov	ebx, eax
  1540 000006AD 66B801000000            	mov	eax, 1
  1541 000006B3 6689DE                  	mov	esi, ebx
  1542 000006B6 66C1CE04                	ror	esi, 4
  1543 000006BA 8EDE                    	mov	ds, si
  1544 000006BC 66C1EE1C                	shr	esi, 28
  1545 000006C0 668904                  	mov	[si], eax
  1546                                  ; }
  1547 000006C3 EB0E                    	jmp	L103
  1548                                  L104:
  1549 000006C5 6683F808                	cmp	eax, 8
  1550 000006C9 74D7                    	je	L105
  1551 000006CB 6683F80E                	cmp	eax, 14
  1552 000006CF 74D1                    	je	L106
  1553 000006D1 EBD1                    	jmp	L107
  1554                                  L103:
  1555                                  ; break
  1556 000006D3 E99100                  	jmp	L93
  1557                                  ; case
  1558                                  ; RPN'ized expression: "_VGACOLOR "
  1559                                  ; Expanded expression: "7 "
  1560                                  ; Expression value: 7
  1561                                  L109:
  1562                                  ; case
  1563                                  ; RPN'ized expression: "_VGAMONO "
  1564                                  ; Expanded expression: "8 "
  1565                                  ; Expression value: 8
  1566                                  L110:
  1567                                  ; break
  1568 000006D6 E98E00                  	jmp	L93
  1569                                  ; case
  1570                                  ; RPN'ized expression: "_CGA "
  1571                                  ; Expanded expression: "2 "
  1572                                  ; Expression value: 2
  1573                                  L111:
  1574                                  ; case
  1575                                  ; RPN'ized expression: "_MDA "
  1576                                  ; Expanded expression: "1 "
  1577                                  ; Expression value: 1
  1578                                  L112:
  1579                                  ; case
  1580                                  ; RPN'ized expression: "_MCGACOLOR "
  1581                                  ; Expanded expression: "10 "
  1582                                  ; Expression value: 10
  1583                                  L113:
  1584                                  ; case
  1585                                  ; RPN'ized expression: "_MCGAMONO "
  1586                                  ; Expanded expression: "11 "
  1587                                  ; Expression value: 11
  1588                                  L114:
  1589                                  ; switch
  1590                                  ; RPN'ized expression: "filas "
  1591                                  ; Expanded expression: "(@-8) *(4) "
  1592                                  ; Fused expression:    "*(4) (@-8)  "
  1593 000006D9 668B46F8                	mov	eax, [bp-8]
  1594 000006DD EB23                    	jmp	L116
  1595                                  ; {
  1596                                  ; case
  1597                                  ; RPN'ized expression: "25 "
  1598                                  ; Expanded expression: "25 "
  1599                                  ; Expression value: 25
  1600                                  L117:
  1601                                  ; break
  1602 000006DF EB29                    	jmp	L115
  1603                                  ; default
  1604                                  L118:
  1605                                  ; RPN'ized expression: "adaptadorNoFiable TRUE = "
  1606                                  ; Expanded expression: "adaptadorNoFiable 1 =(4) "
  1607                                  ; Fused expression:    "adaptadorNoFiable =(204) *ax 1 "
  1608                                  section .relod
  1609 00000098 [E3060000]              	dd	L119
  1610                                  section .text
  1611 000006E1 66B8                    	db	0x66, 0xB8
  1612                                  L119:
  1613 000006E3 [18000000]              	dd	_adaptadorNoFiable
  1614 000006E7 6689C3                  	mov	ebx, eax
  1615 000006EA 66B801000000            	mov	eax, 1
  1616 000006F0 6689DE                  	mov	esi, ebx
  1617 000006F3 66C1CE04                	ror	esi, 4
  1618 000006F7 8EDE                    	mov	ds, si
  1619 000006F9 66C1EE1C                	shr	esi, 28
  1620 000006FD 668904                  	mov	[si], eax
  1621                                  ; }
  1622 00000700 EB08                    	jmp	L115
  1623                                  L116:
  1624 00000702 6683F819                	cmp	eax, 25
  1625 00000706 74D7                    	je	L117
  1626 00000708 EBD7                    	jmp	L118
  1627                                  L115:
  1628                                  ; break
  1629 0000070A EB5B                    	jmp	L93
  1630                                  ; default
  1631                                  L120:
  1632                                  ; RPN'ized expression: "adaptadorNoFiable TRUE = "
  1633                                  ; Expanded expression: "adaptadorNoFiable 1 =(4) "
  1634                                  ; Fused expression:    "adaptadorNoFiable =(204) *ax 1 "
  1635                                  section .relod
  1636 0000009C [0E070000]              	dd	L121
  1637                                  section .text
  1638 0000070C 66B8                    	db	0x66, 0xB8
  1639                                  L121:
  1640 0000070E [18000000]              	dd	_adaptadorNoFiable
  1641 00000712 6689C3                  	mov	ebx, eax
  1642 00000715 66B801000000            	mov	eax, 1
  1643 0000071B 6689DE                  	mov	esi, ebx
  1644 0000071E 66C1CE04                	ror	esi, 4
  1645 00000722 8EDE                    	mov	ds, si
  1646 00000724 66C1EE1C                	shr	esi, 28
  1647 00000728 668904                  	mov	[si], eax
  1648                                  ; }
  1649 0000072B EB3A                    	jmp	L93
  1650                                  L94:
  1651 0000072D 6683F804                	cmp	eax, 4
  1652 00000731 0F8430FF                	je	L95
  1653 00000735 6683F805                	cmp	eax, 5
  1654 00000739 0F8428FF                	je	L96
  1655 0000073D 6683F807                	cmp	eax, 7
  1656 00000741 7493                    	je	L109
  1657 00000743 6683F808                	cmp	eax, 8
  1658 00000747 748D                    	je	L110
  1659 00000749 6683F802                	cmp	eax, 2
  1660 0000074D 748A                    	je	L111
  1661 0000074F 6683F801                	cmp	eax, 1
  1662 00000753 7484                    	je	L112
  1663 00000755 6683F80A                	cmp	eax, 10
  1664 00000759 0F847CFF                	je	L113
  1665 0000075D 6683F80B                	cmp	eax, 11
  1666 00000761 0F8474FF                	je	L114
  1667 00000765 EBA5                    	jmp	L120
  1668                                  L93:
  1669                                  ; if
  1670                                  ; RPN'ized expression: "adaptadorNoFiable "
  1671                                  ; Expanded expression: "adaptadorNoFiable *(4) "
  1672                                  ; Fused expression:    "adaptadorNoFiable *(4) ax  "
  1673                                  section .relod
  1674 000000A0 [69070000]              	dd	L124
  1675                                  section .text
  1676 00000767 66B8                    	db	0x66, 0xB8
  1677                                  L124:
  1678 00000769 [18000000]              	dd	_adaptadorNoFiable
  1679 0000076D 6689C3                  	mov	ebx, eax
  1680 00000770 6689DE                  	mov	esi, ebx
  1681 00000773 66C1CE04                	ror	esi, 4
  1682 00000777 8EDE                    	mov	ds, si
  1683 00000779 66C1EE1C                	shr	esi, 28
  1684 0000077D 668B04                  	mov	eax, [si]
  1685                                  ; JumpIfZero
  1686 00000780 6685C0                  	test	eax, eax
  1687 00000783 743E                    	je	L122
  1688                                  ; {
  1689                                  ; RPN'ized expression: "redimensionable FALSE = "
  1690                                  ; Expanded expression: "redimensionable 0 =(4) "
  1691                                  ; Fused expression:    "redimensionable =(204) *ax 0 "
  1692                                  section .relod
  1693 000000A4 [87070000]              	dd	L125
  1694                                  section .text
  1695 00000785 66B8                    	db	0x66, 0xB8
  1696                                  L125:
  1697 00000787 [14000000]              	dd	_redimensionable
  1698 0000078B 6689C3                  	mov	ebx, eax
  1699 0000078E 66B800000000            	mov	eax, 0
  1700 00000794 6689DE                  	mov	esi, ebx
  1701 00000797 66C1CE04                	ror	esi, 4
  1702 0000079B 8EDE                    	mov	ds, si
  1703 0000079D 66C1EE1C                	shr	esi, 28
  1704 000007A1 668904                  	mov	[si], eax
  1705                                  ; RPN'ized expression: "videoDirecto FALSE = "
  1706                                  ; Expanded expression: "videoDirecto 0 =(4) "
  1707                                  ; Fused expression:    "videoDirecto =(204) *ax 0 "
  1708                                  section .relod
  1709 000000A8 [A6070000]              	dd	L126
  1710                                  section .text
  1711 000007A4 66B8                    	db	0x66, 0xB8
  1712                                  L126:
  1713 000007A6 [10000000]              	dd	_videoDirecto
  1714 000007AA 6689C3                  	mov	ebx, eax
  1715 000007AD 66B800000000            	mov	eax, 0
  1716 000007B3 6689DE                  	mov	esi, ebx
  1717 000007B6 66C1CE04                	ror	esi, 4
  1718 000007BA 8EDE                    	mov	ds, si
  1719 000007BC 66C1EE1C                	shr	esi, 28
  1720 000007C0 668904                  	mov	[si], eax
  1721                                  ; }
  1722                                  L122:
  1723                                  ; return
  1724                                  ; RPN'ized expression: "tipoAdaptador "
  1725                                  ; Expanded expression: "(@8) *(4) "
  1726                                  ; Fused expression:    "*(4) (@8)  "
  1727 000007C3 668B4608                	mov	eax, [bp+8]
  1728                                  L89:
  1729 000007C7 66                      	db	0x66
  1730 000007C8 C9                      	leave
  1731 000007C9 CB                      	retf
  1732                                  L127:
  1733                                  
  1734                                  section .fxnsz
  1735 00000010 87010000                	dd	L127 - _comprobarAdaptador
  1736                                  
  1737                                  ; glb tipoDeAdaptador : (void) int
  1738                                  section .text
  1739                                  	global	_tipoDeAdaptador
  1740                                  _tipoDeAdaptador:
  1741 000007CA 6655                    	push	ebp
  1742 000007CC 660FB7EC                	movzx	ebp, sp
  1743 000007D0 83EC18                  	 sub	sp,         24
  1744                                  ; loc     CRTC_base : (@-4): unsigned short
  1745                                  ; loc     res : (@-8): int
  1746                                  ; RPN'ized expression: "res _NONE = "
  1747                                  ; Expanded expression: "(@-8) 0 =(4) "
  1748                                  ; Fused expression:    "=(204) *(@-8) 0 "
  1749 000007D3 66B800000000            	mov	eax, 0
  1750 000007D9 668946F8                	mov	[bp-8], eax
  1751                                  ; loc     DCC : (@-12): unsigned short
  1752                                  ; loc     reg_AL : (@-16): unsigned char
  1753                                  ; loc     reg_BL : (@-20): unsigned char
  1754                                  ; loc     reg_BH : (@-24): unsigned char
  1755                                  ; RPN'ized expression: "redimensionable FALSE = "
  1756                                  ; Expanded expression: "redimensionable 0 =(4) "
  1757                                  ; Fused expression:    "redimensionable =(204) *ax 0 "
  1758                                  section .relod
  1759 000000AC [DF070000]              	dd	L130
  1760                                  section .text
  1761 000007DD 66B8                    	db	0x66, 0xB8
  1762                                  L130:
  1763 000007DF [14000000]              	dd	_redimensionable
  1764 000007E3 6689C3                  	mov	ebx, eax
  1765 000007E6 66B800000000            	mov	eax, 0
  1766 000007EC 6689DE                  	mov	esi, ebx
  1767 000007EF 66C1CE04                	ror	esi, 4
  1768 000007F3 8EDE                    	mov	ds, si
  1769 000007F5 66C1EE1C                	shr	esi, 28
  1770 000007F9 668904                  	mov	[si], eax
  1771 000007FC B8001A                     mov ax,01a00h  
  1772 000007FF CD10                       int 10h        
  1773 00000801 895EF4                     mov [bp-12],bx 
  1774 00000804 8846F0                     mov [bp-16],al 
  1775                                  
  1776                                  ; if
  1777                                  ; RPN'ized expression: "reg_AL 26 == "
  1778                                  ; Expanded expression: "(@-16) *(1) 26 == "
  1779                                  ; Fused expression:    "== *(@-16) 26 IF! "
  1780 00000807 8A46F0                  	mov	al, [bp-16]
  1781 0000080A 660FB6C0                	movzx	eax, al
  1782 0000080E 6683F81A                	cmp	eax, 26
  1783 00000812 0F852101                	jne	L131
  1784                                  ; {
  1785                                  ; switch
  1786                                  ; loc         <something> : unsigned char
  1787                                  ; RPN'ized expression: "DCC (something135) "
  1788                                  ; Expanded expression: "(@-12) *(2) unsigned char "
  1789                                  ; Fused expression:    "*(2) (@-12) unsigned char  "
  1790 00000816 8B46F4                  	mov	ax, [bp-12]
  1791 00000819 660FB7C0                	movzx	eax, ax
  1792 0000081D 6625FF000000            	and	eax, 255
  1793 00000823 E9BC00                  	jmp	L134
  1794                                  ; {
  1795                                  ; case
  1796                                  ; RPN'ized expression: "0 "
  1797                                  ; Expanded expression: "0 "
  1798                                  ; Expression value: 0
  1799                                  L136:
  1800                                  ; RPN'ized expression: "res _NONE = "
  1801                                  ; Expanded expression: "(@-8) 0 =(4) "
  1802                                  ; Fused expression:    "=(204) *(@-8) 0 "
  1803 00000826 66B800000000            	mov	eax, 0
  1804 0000082C 668946F8                	mov	[bp-8], eax
  1805                                  ; break
  1806 00000830 E90101                  	jmp	L133
  1807                                  ; case
  1808                                  ; RPN'ized expression: "1 "
  1809                                  ; Expanded expression: "1 "
  1810                                  ; Expression value: 1
  1811                                  L137:
  1812                                  ; RPN'ized expression: "res _MDA = "
  1813                                  ; Expanded expression: "(@-8) 1 =(4) "
  1814                                  ; Fused expression:    "=(204) *(@-8) 1 "
  1815 00000833 66B801000000            	mov	eax, 1
  1816 00000839 668946F8                	mov	[bp-8], eax
  1817                                  ; break
  1818 0000083D E9F400                  	jmp	L133
  1819                                  ; case
  1820                                  ; RPN'ized expression: "2 "
  1821                                  ; Expanded expression: "2 "
  1822                                  ; Expression value: 2
  1823                                  L138:
  1824                                  ; RPN'ized expression: "res _CGA = "
  1825                                  ; Expanded expression: "(@-8) 2 =(4) "
  1826                                  ; Fused expression:    "=(204) *(@-8) 2 "
  1827 00000840 66B802000000            	mov	eax, 2
  1828 00000846 668946F8                	mov	[bp-8], eax
  1829                                  ; break
  1830 0000084A E9E700                  	jmp	L133
  1831                                  ; case
  1832                                  ; RPN'ized expression: "4 "
  1833                                  ; Expanded expression: "4 "
  1834                                  ; Expression value: 4
  1835                                  L139:
  1836                                  ; RPN'ized expression: "res _EGACOLOR = "
  1837                                  ; Expanded expression: "(@-8) 4 =(4) "
  1838                                  ; Fused expression:    "=(204) *(@-8) 4 "
  1839 0000084D 66B804000000            	mov	eax, 4
  1840 00000853 668946F8                	mov	[bp-8], eax
  1841                                  ; RPN'ized expression: "redimensionable TRUE = "
  1842                                  ; Expanded expression: "redimensionable 1 =(4) "
  1843                                  ; Fused expression:    "redimensionable =(204) *ax 1 "
  1844                                  section .relod
  1845 000000B0 [59080000]              	dd	L140
  1846                                  section .text
  1847 00000857 66B8                    	db	0x66, 0xB8
  1848                                  L140:
  1849 00000859 [14000000]              	dd	_redimensionable
  1850 0000085D 6689C3                  	mov	ebx, eax
  1851 00000860 66B801000000            	mov	eax, 1
  1852 00000866 6689DE                  	mov	esi, ebx
  1853 00000869 66C1CE04                	ror	esi, 4
  1854 0000086D 8EDE                    	mov	ds, si
  1855 0000086F 66C1EE1C                	shr	esi, 28
  1856 00000873 668904                  	mov	[si], eax
  1857                                  ; break
  1858 00000876 E9BB00                  	jmp	L133
  1859                                  ; case
  1860                                  ; RPN'ized expression: "5 "
  1861                                  ; Expanded expression: "5 "
  1862                                  ; Expression value: 5
  1863                                  L141:
  1864                                  ; RPN'ized expression: "res _EGAMONO = "
  1865                                  ; Expanded expression: "(@-8) 5 =(4) "
  1866                                  ; Fused expression:    "=(204) *(@-8) 5 "
  1867 00000879 66B805000000            	mov	eax, 5
  1868 0000087F 668946F8                	mov	[bp-8], eax
  1869                                  ; break
  1870 00000883 E9AE00                  	jmp	L133
  1871                                  ; case
  1872                                  ; RPN'ized expression: "26 "
  1873                                  ; Expanded expression: "26 "
  1874                                  ; Expression value: 26
  1875                                  L142:
  1876                                  ; case
  1877                                  ; RPN'ized expression: "7 "
  1878                                  ; Expanded expression: "7 "
  1879                                  ; Expression value: 7
  1880                                  L143:
  1881                                  ; RPN'ized expression: "res _VGACOLOR = "
  1882                                  ; Expanded expression: "(@-8) 7 =(4) "
  1883                                  ; Fused expression:    "=(204) *(@-8) 7 "
  1884 00000886 66B807000000            	mov	eax, 7
  1885 0000088C 668946F8                	mov	[bp-8], eax
  1886                                  ; RPN'ized expression: "redimensionable TRUE = "
  1887                                  ; Expanded expression: "redimensionable 1 =(4) "
  1888                                  ; Fused expression:    "redimensionable =(204) *ax 1 "
  1889                                  section .relod
  1890 000000B4 [92080000]              	dd	L144
  1891                                  section .text
  1892 00000890 66B8                    	db	0x66, 0xB8
  1893                                  L144:
  1894 00000892 [14000000]              	dd	_redimensionable
  1895 00000896 6689C3                  	mov	ebx, eax
  1896 00000899 66B801000000            	mov	eax, 1
  1897 0000089F 6689DE                  	mov	esi, ebx
  1898 000008A2 66C1CE04                	ror	esi, 4
  1899 000008A6 8EDE                    	mov	ds, si
  1900 000008A8 66C1EE1C                	shr	esi, 28
  1901 000008AC 668904                  	mov	[si], eax
  1902                                  ; break
  1903 000008AF E98200                  	jmp	L133
  1904                                  ; case
  1905                                  ; RPN'ized expression: "8 "
  1906                                  ; Expanded expression: "8 "
  1907                                  ; Expression value: 8
  1908                                  L145:
  1909                                  ; RPN'ized expression: "res _VGAMONO = "
  1910                                  ; Expanded expression: "(@-8) 8 =(4) "
  1911                                  ; Fused expression:    "=(204) *(@-8) 8 "
  1912 000008B2 66B808000000            	mov	eax, 8
  1913 000008B8 668946F8                	mov	[bp-8], eax
  1914                                  ; break
  1915 000008BC EB76                    	jmp	L133
  1916                                  ; case
  1917                                  ; RPN'ized expression: "10 "
  1918                                  ; Expanded expression: "10 "
  1919                                  ; Expression value: 10
  1920                                  L146:
  1921                                  ; case
  1922                                  ; RPN'ized expression: "13 "
  1923                                  ; Expanded expression: "13 "
  1924                                  ; Expression value: 13
  1925                                  L147:
  1926                                  ; RPN'ized expression: "res _MCGACOLOR = "
  1927                                  ; Expanded expression: "(@-8) 10 =(4) "
  1928                                  ; Fused expression:    "=(204) *(@-8) 10 "
  1929 000008BE 66B80A000000            	mov	eax, 10
  1930 000008C4 668946F8                	mov	[bp-8], eax
  1931                                  ; break
  1932 000008C8 EB6A                    	jmp	L133
  1933                                  ; case
  1934                                  ; RPN'ized expression: "12 "
  1935                                  ; Expanded expression: "12 "
  1936                                  ; Expression value: 12
  1937                                  L148:
  1938                                  ; RPN'ized expression: "res _MCGAMONO = "
  1939                                  ; Expanded expression: "(@-8) 11 =(4) "
  1940                                  ; Fused expression:    "=(204) *(@-8) 11 "
  1941 000008CA 66B80B000000            	mov	eax, 11
  1942 000008D0 668946F8                	mov	[bp-8], eax
  1943                                  ; break
  1944 000008D4 EB5E                    	jmp	L133
  1945                                  ; default
  1946                                  L149:
  1947                                  ; RPN'ized expression: "res _CGA = "
  1948                                  ; Expanded expression: "(@-8) 2 =(4) "
  1949                                  ; Fused expression:    "=(204) *(@-8) 2 "
  1950 000008D6 66B802000000            	mov	eax, 2
  1951 000008DC 668946F8                	mov	[bp-8], eax
  1952                                  ; }
  1953 000008E0 EB52                    	jmp	L133
  1954                                  L134:
  1955 000008E2 6683F800                	cmp	eax, 0
  1956 000008E6 0F843CFF                	je	L136
  1957 000008EA 6683F801                	cmp	eax, 1
  1958 000008EE 0F8441FF                	je	L137
  1959 000008F2 6683F802                	cmp	eax, 2
  1960 000008F6 0F8446FF                	je	L138
  1961 000008FA 6683F804                	cmp	eax, 4
  1962 000008FE 0F844BFF                	je	L139
  1963 00000902 6683F805                	cmp	eax, 5
  1964 00000906 0F846FFF                	je	L141
  1965 0000090A 6683F81A                	cmp	eax, 26
  1966 0000090E 0F8474FF                	je	L142
  1967 00000912 6683F807                	cmp	eax, 7
  1968 00000916 0F846CFF                	je	L143
  1969 0000091A 6683F808                	cmp	eax, 8
  1970 0000091E 7492                    	je	L145
  1971 00000920 6683F80A                	cmp	eax, 10
  1972 00000924 7498                    	je	L146
  1973 00000926 6683F80D                	cmp	eax, 13
  1974 0000092A 7492                    	je	L147
  1975 0000092C 6683F80C                	cmp	eax, 12
  1976 00000930 7498                    	je	L148
  1977 00000932 EBA2                    	jmp	L149
  1978                                  L133:
  1979                                  ; }
  1980 00000934 E9B800                  	jmp	L132
  1981                                  L131:
  1982                                  ; else
  1983                                  ; {
  1984 00000937 B412                       mov ah,12h     
  1985 00000939 BB1000                     mov bx,0010h   
  1986 0000093C CD10                       int 10h        
  1987 0000093E 885EEC                     mov [bp-20],bl 
  1988                                  
  1989                                  ; if
  1990                                  ; RPN'ized expression: "reg_BL 16 != res _NONE == && "
  1991                                  ; Expanded expression: "(@-20) *(1) 16 != [sh&&->152] (@-8) *(4) 0 == &&[152] "
  1992                                  ; Fused expression:    "!= *(@-20) 16 [sh&&->152] == *(@-8) 0 &&[152]  "
  1993 00000941 8A46EC                  	mov	al, [bp-20]
  1994 00000944 660FB6C0                	movzx	eax, al
  1995 00000948 6683F810                	cmp	eax, 16
  1996 0000094C 0F95C0                  	setne	al
  1997 0000094F 660FB6C0                	movzx	eax, al
  1998                                  ; JumpIfZero
  1999 00000953 6685C0                  	test	eax, eax
  2000 00000956 740F                    	je	L152
  2001 00000958 668B46F8                	mov	eax, [bp-8]
  2002 0000095C 6683F800                	cmp	eax, 0
  2003 00000960 0F94C0                  	sete	al
  2004 00000963 660FB6C0                	movzx	eax, al
  2005                                  L152:
  2006                                  ; JumpIfZero
  2007 00000967 6685C0                  	test	eax, eax
  2008 0000096A 742F                    	je	L150
  2009                                  ; {
  2010 0000096C B412                       mov ah,12h     
  2011 0000096E BB1000                     mov bx,0010h   
  2012 00000971 CD10                       int 10h        
  2013 00000973 885EE8                     mov [bp-24],bl 
  2014                                  
  2015                                  ; if
  2016                                  ; RPN'ized expression: "reg_BH 0 == "
  2017                                  ; Expanded expression: "(@-24) *(1) 0 == "
  2018                                  ; Fused expression:    "== *(@-24) 0 IF! "
  2019 00000976 8A46E8                  	mov	al, [bp-24]
  2020 00000979 660FB6C0                	movzx	eax, al
  2021 0000097D 6683F800                	cmp	eax, 0
  2022 00000981 750C                    	jne	L153
  2023                                  ; RPN'ized expression: "res _EGACOLOR = "
  2024                                  ; Expanded expression: "(@-8) 4 =(4) "
  2025                                  ; Fused expression:    "=(204) *(@-8) 4 "
  2026 00000983 66B804000000            	mov	eax, 4
  2027 00000989 668946F8                	mov	[bp-8], eax
  2028 0000098D EB0A                    	jmp	L154
  2029                                  L153:
  2030                                  ; else
  2031                                  ; RPN'ized expression: "res _EGAMONO = "
  2032                                  ; Expanded expression: "(@-8) 5 =(4) "
  2033                                  ; Fused expression:    "=(204) *(@-8) 5 "
  2034 0000098F 66B805000000            	mov	eax, 5
  2035 00000995 668946F8                	mov	[bp-8], eax
  2036                                  L154:
  2037                                  ; }
  2038 00000999 EB54                    	jmp	L151
  2039                                  L150:
  2040                                  ; else
  2041                                  ; if
  2042                                  ; RPN'ized expression: "res _NONE == "
  2043                                  ; Expanded expression: "(@-8) *(4) 0 == "
  2044                                  ; Fused expression:    "== *(@-8) 0 IF! "
  2045 0000099B 668B46F8                	mov	eax, [bp-8]
  2046 0000099F 6683F800                	cmp	eax, 0
  2047 000009A3 754A                    	jne	L155
  2048                                  ; {
  2049 000009A5 CD11                       int 11h   
  2050 000009A7 8846F0                     mov [bp-16],al 
  2051                                  
  2052                                  ; switch
  2053                                  ; RPN'ized expression: "reg_AL 48 & "
  2054                                  ; Expanded expression: "(@-16) *(1) 48 & "
  2055                                  ; Fused expression:    "& *(@-16) 48  "
  2056 000009AA 8A46F0                  	mov	al, [bp-16]
  2057 000009AD 660FB6C0                	movzx	eax, al
  2058 000009B1 6683E030                	and	eax, 48
  2059 000009B5 EB24                    	jmp	L158
  2060                                  ; {
  2061                                  ; case
  2062                                  ; RPN'ized expression: "16 "
  2063                                  ; Expanded expression: "16 "
  2064                                  ; Expression value: 16
  2065                                  L159:
  2066                                  ; case
  2067                                  ; RPN'ized expression: "32 "
  2068                                  ; Expanded expression: "32 "
  2069                                  ; Expression value: 32
  2070                                  L160:
  2071                                  ; RPN'ized expression: "res _CGA = "
  2072                                  ; Expanded expression: "(@-8) 2 =(4) "
  2073                                  ; Fused expression:    "=(204) *(@-8) 2 "
  2074 000009B7 66B802000000            	mov	eax, 2
  2075 000009BD 668946F8                	mov	[bp-8], eax
  2076                                  ; break
  2077 000009C1 EB2C                    	jmp	L157
  2078                                  ; case
  2079                                  ; RPN'ized expression: "48 "
  2080                                  ; Expanded expression: "48 "
  2081                                  ; Expression value: 48
  2082                                  L161:
  2083                                  ; RPN'ized expression: "res _MDA = "
  2084                                  ; Expanded expression: "(@-8) 1 =(4) "
  2085                                  ; Fused expression:    "=(204) *(@-8) 1 "
  2086 000009C3 66B801000000            	mov	eax, 1
  2087 000009C9 668946F8                	mov	[bp-8], eax
  2088                                  ; break
  2089 000009CD EB20                    	jmp	L157
  2090                                  ; default
  2091                                  L162:
  2092                                  ; RPN'ized expression: "res _NONE = "
  2093                                  ; Expanded expression: "(@-8) 0 =(4) "
  2094                                  ; Fused expression:    "=(204) *(@-8) 0 "
  2095 000009CF 66B800000000            	mov	eax, 0
  2096 000009D5 668946F8                	mov	[bp-8], eax
  2097                                  ; }
  2098 000009D9 EB14                    	jmp	L157
  2099                                  L158:
  2100 000009DB 6683F810                	cmp	eax, 16
  2101 000009DF 74D6                    	je	L159
  2102 000009E1 6683F820                	cmp	eax, 32
  2103 000009E5 74D0                    	je	L160
  2104 000009E7 6683F830                	cmp	eax, 48
  2105 000009EB 74D6                    	je	L161
  2106 000009ED EBE0                    	jmp	L162
  2107                                  L157:
  2108                                  ; }
  2109                                  L155:
  2110                                  L151:
  2111                                  ; }
  2112                                  L132:
  2113                                  ; RPN'ized expression: "CRTC_base ptrBiosArea CRTC_base -> *u = "
  2114                                  ; Expanded expression: "(@-4) ptrBiosArea *(4) 1123 + *(2) =(2) "
  2115                                  ; Fused expression:    "ptrBiosArea + *ax 1123 =(170) *(@-4) *ax "
  2116                                  section .relod
  2117 000000B8 [F1090000]              	dd	L163
  2118                                  section .text
  2119 000009EF 66B8                    	db	0x66, 0xB8
  2120                                  L163:
  2121 000009F1 [00000000]              	dd	_ptrBiosArea
  2122 000009F5 6689C3                  	mov	ebx, eax
  2123 000009F8 6689DE                  	mov	esi, ebx
  2124 000009FB 66C1CE04                	ror	esi, 4
  2125 000009FF 8EDE                    	mov	ds, si
  2126 00000A01 66C1EE1C                	shr	esi, 28
  2127 00000A05 668B04                  	mov	eax, [si]
  2128 00000A08 660563040000            	add	eax, 1123
  2129 00000A0E 6689C3                  	mov	ebx, eax
  2130 00000A11 6689DE                  	mov	esi, ebx
  2131 00000A14 66C1CE04                	ror	esi, 4
  2132 00000A18 8EDE                    	mov	ds, si
  2133 00000A1A 66C1EE1C                	shr	esi, 28
  2134 00000A1E 8B04                    	mov	ax, [si]
  2135 00000A20 660FB7C0                	movzx	eax, ax
  2136 00000A24 8946FC                  	mov	[bp-4], ax
  2137 00000A27 660FB7C0                	movzx	eax, ax
  2138                                  ; if
  2139                                  ; RPN'ized expression: "CRTC_base 980 == "
  2140                                  ; Expanded expression: "(@-4) *(2) 980 == "
  2141                                  ; Fused expression:    "== *(@-4) 980 IF! "
  2142 00000A2B 8B46FC                  	mov	ax, [bp-4]
  2143 00000A2E 660FB7C0                	movzx	eax, ax
  2144 00000A32 663DD4030000            	cmp	eax, 980
  2145 00000A38 754E                    	jne	L164
  2146                                  ; {
  2147                                  ; RPN'ized expression: "segMemVideo 47104 = "
  2148                                  ; Expanded expression: "segMemVideo 47104 =(2) "
  2149                                  ; Fused expression:    "segMemVideo =(172) *ax 47104 "
  2150                                  section .relod
  2151 000000BC [3C0A0000]              	dd	L166
  2152                                  section .text
  2153 00000A3A 66B8                    	db	0x66, 0xB8
  2154                                  L166:
  2155 00000A3C [30000000]              	dd	_segMemVideo
  2156 00000A40 6689C3                  	mov	ebx, eax
  2157 00000A43 66B800B80000            	mov	eax, 47104
  2158 00000A49 6689DE                  	mov	esi, ebx
  2159 00000A4C 66C1CE04                	ror	esi, 4
  2160 00000A50 8EDE                    	mov	ds, si
  2161 00000A52 66C1EE1C                	shr	esi, 28
  2162 00000A56 8904                    	mov	[si], ax
  2163 00000A58 660FB7C0                	movzx	eax, ax
  2164                                  ; switch
  2165                                  ; RPN'ized expression: "res "
  2166                                  ; Expanded expression: "(@-8) *(4) "
  2167                                  ; Fused expression:    "*(4) (@-8)  "
  2168 00000A5C 668B46F8                	mov	eax, [bp-8]
  2169 00000A60 EB18                    	jmp	L168
  2170                                  ; {
  2171                                  ; case
  2172                                  ; RPN'ized expression: "_EGAMONO "
  2173                                  ; Expanded expression: "5 "
  2174                                  ; Expression value: 5
  2175                                  L169:
  2176                                  ; RPN'ized expression: "res _EGACOLOR = "
  2177                                  ; Expanded expression: "(@-8) 4 =(4) "
  2178                                  ; Fused expression:    "=(204) *(@-8) 4 "
  2179 00000A62 66B804000000            	mov	eax, 4
  2180 00000A68 668946F8                	mov	[bp-8], eax
  2181                                  ; break
  2182 00000A6C EB18                    	jmp	L167
  2183                                  ; case
  2184                                  ; RPN'ized expression: "_VGAMONO "
  2185                                  ; Expanded expression: "8 "
  2186                                  ; Expression value: 8
  2187                                  L170:
  2188                                  ; RPN'ized expression: "res _VGACOLOR = "
  2189                                  ; Expanded expression: "(@-8) 7 =(4) "
  2190                                  ; Fused expression:    "=(204) *(@-8) 7 "
  2191 00000A6E 66B807000000            	mov	eax, 7
  2192 00000A74 668946F8                	mov	[bp-8], eax
  2193                                  ; }
  2194 00000A78 EB0C                    	jmp	L167
  2195                                  L168:
  2196 00000A7A 6683F805                	cmp	eax, 5
  2197 00000A7E 74E2                    	je	L169
  2198 00000A80 6683F808                	cmp	eax, 8
  2199 00000A84 74E8                    	je	L170
  2200                                  L167:
  2201                                  ; }
  2202 00000A86 EB5B                    	jmp	L165
  2203                                  L164:
  2204                                  ; else
  2205                                  ; if
  2206                                  ; RPN'ized expression: "CRTC_base 948 == "
  2207                                  ; Expanded expression: "(@-4) *(2) 948 == "
  2208                                  ; Fused expression:    "== *(@-4) 948 IF! "
  2209 00000A88 8B46FC                  	mov	ax, [bp-4]
  2210 00000A8B 660FB7C0                	movzx	eax, ax
  2211 00000A8F 663DB4030000            	cmp	eax, 948
  2212 00000A95 754C                    	jne	L171
  2213                                  ; {
  2214                                  ; RPN'ized expression: "segMemVideo 45056 = "
  2215                                  ; Expanded expression: "segMemVideo 45056 =(2) "
  2216                                  ; Fused expression:    "segMemVideo =(172) *ax 45056 "
  2217                                  section .relod
  2218 000000C0 [990A0000]              	dd	L173
  2219                                  section .text
  2220 00000A97 66B8                    	db	0x66, 0xB8
  2221                                  L173:
  2222 00000A99 [30000000]              	dd	_segMemVideo
  2223 00000A9D 6689C3                  	mov	ebx, eax
  2224 00000AA0 66B800B00000            	mov	eax, 45056
  2225 00000AA6 6689DE                  	mov	esi, ebx
  2226 00000AA9 66C1CE04                	ror	esi, 4
  2227 00000AAD 8EDE                    	mov	ds, si
  2228 00000AAF 66C1EE1C                	shr	esi, 28
  2229 00000AB3 8904                    	mov	[si], ax
  2230 00000AB5 660FB7C0                	movzx	eax, ax
  2231                                  ; switch
  2232                                  ; RPN'ized expression: "res "
  2233                                  ; Expanded expression: "(@-8) *(4) "
  2234                                  ; Fused expression:    "*(4) (@-8)  "
  2235 00000AB9 668B46F8                	mov	eax, [bp-8]
  2236 00000ABD EB18                    	jmp	L175
  2237                                  ; {
  2238                                  ; case
  2239                                  ; RPN'ized expression: "_EGACOLOR "
  2240                                  ; Expanded expression: "4 "
  2241                                  ; Expression value: 4
  2242                                  L176:
  2243                                  ; RPN'ized expression: "res _EGAMONO = "
  2244                                  ; Expanded expression: "(@-8) 5 =(4) "
  2245                                  ; Fused expression:    "=(204) *(@-8) 5 "
  2246 00000ABF 66B805000000            	mov	eax, 5
  2247 00000AC5 668946F8                	mov	[bp-8], eax
  2248                                  ; break
  2249 00000AC9 EB18                    	jmp	L174
  2250                                  ; case
  2251                                  ; RPN'ized expression: "_VGACOLOR "
  2252                                  ; Expanded expression: "7 "
  2253                                  ; Expression value: 7
  2254                                  L177:
  2255                                  ; RPN'ized expression: "res _VGAMONO = "
  2256                                  ; Expanded expression: "(@-8) 8 =(4) "
  2257                                  ; Fused expression:    "=(204) *(@-8) 8 "
  2258 00000ACB 66B808000000            	mov	eax, 8
  2259 00000AD1 668946F8                	mov	[bp-8], eax
  2260                                  ; }
  2261 00000AD5 EB0C                    	jmp	L174
  2262                                  L175:
  2263 00000AD7 6683F804                	cmp	eax, 4
  2264 00000ADB 74E2                    	je	L176
  2265 00000ADD 6683F807                	cmp	eax, 7
  2266 00000AE1 74E8                    	je	L177
  2267                                  L174:
  2268                                  ; }
  2269                                  L171:
  2270                                  L165:
  2271                                  ; RPN'ized expression: "enColor segMemVideo 47104 == = "
  2272                                  ; Expanded expression: "enColor segMemVideo *(2) 47104 == =(4) "
  2273                                  ; Fused expression:    "enColor push-ax segMemVideo == *ax 47104 =(204) **sp ax "
  2274                                  section .relod
  2275 000000C4 [E50A0000]              	dd	L178
  2276                                  section .text
  2277 00000AE3 66B8                    	db	0x66, 0xB8
  2278                                  L178:
  2279 00000AE5 [0C000000]              	dd	_enColor
  2280 00000AE9 6650                    	push	eax
  2281                                  section .relod
  2282 000000C8 [ED0A0000]              	dd	L179
  2283                                  section .text
  2284 00000AEB 66B8                    	db	0x66, 0xB8
  2285                                  L179:
  2286 00000AED [30000000]              	dd	_segMemVideo
  2287 00000AF1 6689C3                  	mov	ebx, eax
  2288 00000AF4 6689DE                  	mov	esi, ebx
  2289 00000AF7 66C1CE04                	ror	esi, 4
  2290 00000AFB 8EDE                    	mov	ds, si
  2291 00000AFD 66C1EE1C                	shr	esi, 28
  2292 00000B01 8B04                    	mov	ax, [si]
  2293 00000B03 660FB7C0                	movzx	eax, ax
  2294 00000B07 663D00B80000            	cmp	eax, 47104
  2295 00000B0D 0F94C0                  	sete	al
  2296 00000B10 660FB6C0                	movzx	eax, al
  2297 00000B14 665B                    	pop	ebx
  2298 00000B16 6689DE                  	mov	esi, ebx
  2299 00000B19 66C1CE04                	ror	esi, 4
  2300 00000B1D 8EDE                    	mov	ds, si
  2301 00000B1F 66C1EE1C                	shr	esi, 28
  2302 00000B23 668904                  	mov	[si], eax
  2303                                  ; return
  2304                                  ; loc     <something> : int
  2305                                  ; RPN'ized expression: "( res (something180) comprobarAdaptador ) "
  2306                                  ; Expanded expression: " (@-8) *(4)  comprobarAdaptador ()4 "
  2307                                  ; Fused expression:    "( *(4) (@-8) , comprobarAdaptador )4  "
  2308 00000B26 66FF76F8                	push	dword [bp-8]
  2309 00000B2A 9A                      	db	0x9A
  2310                                  section .relot
  2311 00000014 [2B0B0000]              	dd	L181
  2312                                  section .text
  2313                                  L181:
  2314 00000B2B [43060000]              	dd	_comprobarAdaptador
  2315 00000B2F 83ECFC                  	sub	sp, -4
  2316                                  L128:
  2317 00000B32 66                      	db	0x66
  2318 00000B33 C9                      	leave
  2319 00000B34 CB                      	retf
  2320                                  L182:
  2321                                  
  2322                                  section .fxnsz
  2323 00000014 6B030000                	dd	L182 - _tipoDeAdaptador
  2324                                  
  2325                                  ; glb setCursorVisibilidad : (
  2326                                  ; prm     valorDeVisibilidad : int
  2327                                  ;     ) unsigned char
  2328                                  section .text
  2329                                  	global	_setCursorVisibilidad
  2330                                  _setCursorVisibilidad:
  2331 00000B35 6655                    	push	ebp
  2332 00000B37 660FB7EC                	movzx	ebp, sp
  2333 00000B3B 83EC0C                  	 sub	sp,         12
  2334                                  ; loc     valorDeVisibilidad : (@8): int
  2335                                  ; loc     res : (@-4): int
  2336                                  ; RPN'ized expression: "res visibilidad = "
  2337                                  ; Expanded expression: "(@-4) visibilidad *(1) =(4) "
  2338                                  ; Fused expression:    "visibilidad =(201) *(@-4) *ax "
  2339                                  section .relod
  2340 000000CC [400B0000]              	dd	L185
  2341                                  section .text
  2342 00000B3E 66B8                    	db	0x66, 0xB8
  2343                                  L185:
  2344 00000B40 [00000000]              	dd	_visibilidad
  2345 00000B44 6689C3                  	mov	ebx, eax
  2346 00000B47 6689DE                  	mov	esi, ebx
  2347 00000B4A 66C1CE04                	ror	esi, 4
  2348 00000B4E 8EDE                    	mov	ds, si
  2349 00000B50 66C1EE1C                	shr	esi, 28
  2350 00000B54 8A04                    	mov	al, [si]
  2351 00000B56 660FB6C0                	movzx	eax, al
  2352 00000B5A 668946FC                	mov	[bp-4], eax
  2353                                  ; loc     start : (@-8): unsigned char
  2354                                  ; loc     end : (@-12): unsigned char
  2355                                  ; RPN'ized expression: "visibilidad valorDeVisibilidad = "
  2356                                  ; Expanded expression: "visibilidad (@8) *(4) =(1) "
  2357                                  ; Fused expression:    "visibilidad =(156) *ax *(@8) "
  2358                                  section .relod
  2359 000000D0 [600B0000]              	dd	L186
  2360                                  section .text
  2361 00000B5E 66B8                    	db	0x66, 0xB8
  2362                                  L186:
  2363 00000B60 [00000000]              	dd	_visibilidad
  2364 00000B64 6689C3                  	mov	ebx, eax
  2365 00000B67 668B4608                	mov	eax, [bp+8]
  2366 00000B6B 6689DE                  	mov	esi, ebx
  2367 00000B6E 66C1CE04                	ror	esi, 4
  2368 00000B72 8EDE                    	mov	ds, si
  2369 00000B74 66C1EE1C                	shr	esi, 28
  2370 00000B78 8804                    	mov	[si], al
  2371 00000B7A 660FB6C0                	movzx	eax, al
  2372                                  ; switch
  2373                                  ; RPN'ized expression: "visibilidad "
  2374                                  ; Expanded expression: "visibilidad *(1) "
  2375                                  ; Fused expression:    "visibilidad *(1) ax  "
  2376                                  section .relod
  2377 000000D4 [800B0000]              	dd	L189
  2378                                  section .text
  2379 00000B7E 66B8                    	db	0x66, 0xB8
  2380                                  L189:
  2381 00000B80 [00000000]              	dd	_visibilidad
  2382 00000B84 6689C3                  	mov	ebx, eax
  2383 00000B87 6689DE                  	mov	esi, ebx
  2384 00000B8A 66C1CE04                	ror	esi, 4
  2385 00000B8E 8EDE                    	mov	ds, si
  2386 00000B90 66C1EE1C                	shr	esi, 28
  2387 00000B94 8A04                    	mov	al, [si]
  2388 00000B96 660FB6C0                	movzx	eax, al
  2389 00000B9A E98000                  	jmp	L188
  2390                                  ; {
  2391                                  ; case
  2392                                  ; RPN'ized expression: "0 "
  2393                                  ; Expanded expression: "0 "
  2394                                  ; Expression value: 0
  2395                                  L190:
  2396                                  ; RPN'ized expression: "start 32 = "
  2397                                  ; Expanded expression: "(@-8) 32 =(1) "
  2398                                  ; Fused expression:    "=(156) *(@-8) 32 "
  2399 00000B9D 66B820000000            	mov	eax, 32
  2400 00000BA3 8846F8                  	mov	[bp-8], al
  2401 00000BA6 660FB6C0                	movzx	eax, al
  2402                                  ; RPN'ized expression: "end 0 = "
  2403                                  ; Expanded expression: "(@-12) 0 =(1) "
  2404                                  ; Fused expression:    "=(156) *(@-12) 0 "
  2405 00000BAA 66B800000000            	mov	eax, 0
  2406 00000BB0 8846F4                  	mov	[bp-12], al
  2407 00000BB3 660FB6C0                	movzx	eax, al
  2408                                  ; break
  2409 00000BB7 EB74                    	jmp	L187
  2410                                  ; case
  2411                                  ; RPN'ized expression: "2 "
  2412                                  ; Expanded expression: "2 "
  2413                                  ; Expression value: 2
  2414                                  L191:
  2415                                  ; RPN'ized expression: "start 0 = "
  2416                                  ; Expanded expression: "(@-8) 0 =(1) "
  2417                                  ; Fused expression:    "=(156) *(@-8) 0 "
  2418 00000BB9 66B800000000            	mov	eax, 0
  2419 00000BBF 8846F8                  	mov	[bp-8], al
  2420 00000BC2 660FB6C0                	movzx	eax, al
  2421                                  ; RPN'ized expression: "end 7 = "
  2422                                  ; Expanded expression: "(@-12) 7 =(1) "
  2423                                  ; Fused expression:    "=(156) *(@-12) 7 "
  2424 00000BC6 66B807000000            	mov	eax, 7
  2425 00000BCC 8846F4                  	mov	[bp-12], al
  2426 00000BCF 660FB6C0                	movzx	eax, al
  2427                                  ; break
  2428 00000BD3 EB58                    	jmp	L187
  2429                                  ; default
  2430                                  L192:
  2431                                  ; RPN'ized expression: "start lineaOriginal1 = "
  2432                                  ; Expanded expression: "(@-8) lineaOriginal1 *(1) =(1) "
  2433                                  ; Fused expression:    "lineaOriginal1 =(153) *(@-8) *ax "
  2434                                  section .relod
  2435 000000D8 [D70B0000]              	dd	L193
  2436                                  section .text
  2437 00000BD5 66B8                    	db	0x66, 0xB8
  2438                                  L193:
  2439 00000BD7 [1F000000]              	dd	_lineaOriginal1
  2440 00000BDB 6689C3                  	mov	ebx, eax
  2441 00000BDE 6689DE                  	mov	esi, ebx
  2442 00000BE1 66C1CE04                	ror	esi, 4
  2443 00000BE5 8EDE                    	mov	ds, si
  2444 00000BE7 66C1EE1C                	shr	esi, 28
  2445 00000BEB 8A04                    	mov	al, [si]
  2446 00000BED 660FB6C0                	movzx	eax, al
  2447 00000BF1 8846F8                  	mov	[bp-8], al
  2448 00000BF4 660FB6C0                	movzx	eax, al
  2449                                  ; RPN'ized expression: "end lineaOriginal2 = "
  2450                                  ; Expanded expression: "(@-12) lineaOriginal2 *(1) =(1) "
  2451                                  ; Fused expression:    "lineaOriginal2 =(153) *(@-12) *ax "
  2452                                  section .relod
  2453 000000DC [FA0B0000]              	dd	L194
  2454                                  section .text
  2455 00000BF8 66B8                    	db	0x66, 0xB8
  2456                                  L194:
  2457 00000BFA [20000000]              	dd	_lineaOriginal2
  2458 00000BFE 6689C3                  	mov	ebx, eax
  2459 00000C01 6689DE                  	mov	esi, ebx
  2460 00000C04 66C1CE04                	ror	esi, 4
  2461 00000C08 8EDE                    	mov	ds, si
  2462 00000C0A 66C1EE1C                	shr	esi, 28
  2463 00000C0E 8A04                    	mov	al, [si]
  2464 00000C10 660FB6C0                	movzx	eax, al
  2465 00000C14 8846F4                  	mov	[bp-12], al
  2466 00000C17 660FB6C0                	movzx	eax, al
  2467                                  ; }
  2468 00000C1B EB10                    	jmp	L187
  2469                                  L188:
  2470 00000C1D 6683F800                	cmp	eax, 0
  2471 00000C21 0F8478FF                	je	L190
  2472 00000C25 6683F802                	cmp	eax, 2
  2473 00000C29 748E                    	je	L191
  2474 00000C2B EBA8                    	jmp	L192
  2475                                  L187:
  2476 00000C2D B401                       mov ah,01h     
  2477 00000C2F 8A6EF8                     mov ch,[bp-8]  
  2478 00000C32 8A4EF4                     mov cl,[bp-12] 
  2479 00000C35 CD10                       int 10h        
  2480                                  
  2481                                  ; return
  2482                                  ; RPN'ized expression: "res "
  2483                                  ; Expanded expression: "(@-4) *(4) "
  2484                                  ; Fused expression:    "*(4) (@-4) unsigned char  "
  2485 00000C37 668B46FC                	mov	eax, [bp-4]
  2486 00000C3B 6625FF000000            	and	eax, 255
  2487                                  L183:
  2488 00000C41 66                      	db	0x66
  2489 00000C42 C9                      	leave
  2490 00000C43 CB                      	retf
  2491                                  L195:
  2492                                  
  2493                                  section .fxnsz
  2494 00000018 0F010000                	dd	L195 - _setCursorVisibilidad
  2495                                  
  2496                                  ; glb setFontSize : (
  2497                                  ; prm     size : int
  2498                                  ;     ) void
  2499                                  section .text
  2500                                  	global	_setFontSize
  2501                                  _setFontSize:
  2502 00000C44 6655                    	push	ebp
  2503 00000C46 660FB7EC                	movzx	ebp, sp
  2504                                  	;sub	sp,          0
  2505                                  ; loc     size : (@8): int
  2506                                  ; if
  2507                                  ; RPN'ized expression: "adaptadorNoFiable "
  2508                                  ; Expanded expression: "adaptadorNoFiable *(4) "
  2509                                  ; Fused expression:    "adaptadorNoFiable *(4) ax  "
  2510                                  section .relod
  2511 000000E0 [4C0C0000]              	dd	L200
  2512                                  section .text
  2513 00000C4A 66B8                    	db	0x66, 0xB8
  2514                                  L200:
  2515 00000C4C [18000000]              	dd	_adaptadorNoFiable
  2516 00000C50 6689C3                  	mov	ebx, eax
  2517 00000C53 6689DE                  	mov	esi, ebx
  2518 00000C56 66C1CE04                	ror	esi, 4
  2519 00000C5A 8EDE                    	mov	ds, si
  2520 00000C5C 66C1EE1C                	shr	esi, 28
  2521 00000C60 668B04                  	mov	eax, [si]
  2522                                  ; JumpIfZero
  2523 00000C63 6685C0                  	test	eax, eax
  2524 00000C66 7403                    	je	L198
  2525                                  ; return
  2526 00000C68 E9B301                  	jmp	L196
  2527                                  L198:
  2528                                  ; switch
  2529                                  ; RPN'ized expression: "tipoAdaptador "
  2530                                  ; Expanded expression: "tipoAdaptador *(4) "
  2531                                  ; Fused expression:    "tipoAdaptador *(4) ax  "
  2532                                  section .relod
  2533 000000E4 [6D0C0000]              	dd	L203
  2534                                  section .text
  2535 00000C6B 66B8                    	db	0x66, 0xB8
  2536                                  L203:
  2537 00000C6D [08000000]              	dd	_tipoAdaptador
  2538 00000C71 6689C3                  	mov	ebx, eax
  2539 00000C74 6689DE                  	mov	esi, ebx
  2540 00000C77 66C1CE04                	ror	esi, 4
  2541 00000C7B 8EDE                    	mov	ds, si
  2542 00000C7D 66C1EE1C                	shr	esi, 28
  2543 00000C81 668B04                  	mov	eax, [si]
  2544 00000C84 E90701                  	jmp	L202
  2545                                  ; {
  2546                                  ; case
  2547                                  ; RPN'ized expression: "_CGA "
  2548                                  ; Expanded expression: "2 "
  2549                                  ; Expression value: 2
  2550                                  L204:
  2551                                  ; case
  2552                                  ; RPN'ized expression: "_MDA "
  2553                                  ; Expanded expression: "1 "
  2554                                  ; Expression value: 1
  2555                                  L205:
  2556                                  ; case
  2557                                  ; RPN'ized expression: "_MCGACOLOR "
  2558                                  ; Expanded expression: "10 "
  2559                                  ; Expression value: 10
  2560                                  L206:
  2561                                  ; case
  2562                                  ; RPN'ized expression: "_MCGAMONO "
  2563                                  ; Expanded expression: "11 "
  2564                                  ; Expression value: 11
  2565                                  L207:
  2566                                  ; case
  2567                                  ; RPN'ized expression: "_MDS_GENIUS "
  2568                                  ; Expanded expression: "48 "
  2569                                  ; Expression value: 48
  2570                                  L208:
  2571                                  ; break
  2572 00000C87 E94C01                  	jmp	L201
  2573                                  ; case
  2574                                  ; RPN'ized expression: "_EGACOLOR "
  2575                                  ; Expanded expression: "4 "
  2576                                  ; Expression value: 4
  2577                                  L209:
  2578                                  ; case
  2579                                  ; RPN'ized expression: "_EGAMONO "
  2580                                  ; Expanded expression: "5 "
  2581                                  ; Expression value: 5
  2582                                  L210:
  2583                                  ; if
  2584                                  ; RPN'ized expression: "redimensionable fontSize size != && "
  2585                                  ; Expanded expression: "redimensionable *(4) _Bool [sh&&->213] fontSize *(1) (@8) *(4) != &&[213] "
  2586                                  ; Fused expression:    "redimensionable *(4) ax _Bool [sh&&->213] fontSize != *ax *(@8) &&[213]  "
  2587                                  section .relod
  2588 000000E8 [8C0C0000]              	dd	L214
  2589                                  section .text
  2590 00000C8A 66B8                    	db	0x66, 0xB8
  2591                                  L214:
  2592 00000C8C [14000000]              	dd	_redimensionable
  2593 00000C90 6689C3                  	mov	ebx, eax
  2594 00000C93 6689DE                  	mov	esi, ebx
  2595 00000C96 66C1CE04                	ror	esi, 4
  2596 00000C9A 8EDE                    	mov	ds, si
  2597 00000C9C 66C1EE1C                	shr	esi, 28
  2598 00000CA0 668B04                  	mov	eax, [si]
  2599 00000CA3 6685C0                  	test	eax, eax
  2600 00000CA6 0F95C0                  	setne	al
  2601 00000CA9 660FBEC0                	movsx	eax, al
  2602                                  ; JumpIfZero
  2603 00000CAD 6685C0                  	test	eax, eax
  2604 00000CB0 7427                    	je	L213
  2605                                  section .relod
  2606 000000EC [B40C0000]              	dd	L215
  2607                                  section .text
  2608 00000CB2 66B8                    	db	0x66, 0xB8
  2609                                  L215:
  2610 00000CB4 [1C000000]              	dd	_fontSize
  2611 00000CB8 6689C3                  	mov	ebx, eax
  2612 00000CBB 6689DE                  	mov	esi, ebx
  2613 00000CBE 66C1CE04                	ror	esi, 4
  2614 00000CC2 8EDE                    	mov	ds, si
  2615 00000CC4 66C1EE1C                	shr	esi, 28
  2616 00000CC8 8A04                    	mov	al, [si]
  2617 00000CCA 660FB6C0                	movzx	eax, al
  2618 00000CCE 663B4608                	cmp	eax, [bp+8]
  2619 00000CD2 0F95C0                  	setne	al
  2620 00000CD5 660FB6C0                	movzx	eax, al
  2621                                  L213:
  2622                                  ; JumpIfZero
  2623 00000CD9 6685C0                  	test	eax, eax
  2624 00000CDC 7424                    	je	L211
  2625                                  ; {
  2626                                  ; switch
  2627                                  ; RPN'ized expression: "size "
  2628                                  ; Expanded expression: "(@8) *(4) "
  2629                                  ; Fused expression:    "*(4) (@8)  "
  2630 00000CDE 668B4608                	mov	eax, [bp+8]
  2631 00000CE2 EB12                    	jmp	L217
  2632                                  ; {
  2633                                  ; case
  2634                                  ; RPN'ized expression: "_FONT08 "
  2635                                  ; Expanded expression: "8 "
  2636                                  ; Expression value: 8
  2637                                  L218:
  2638 00000CE4 B81211                     mov ax,1112h  
  2639 00000CE7 B300                       mov bl,00h    
  2640 00000CE9 CD10                       int 10h       
  2641                                  
  2642                                  ; break
  2643 00000CEB EB15                    	jmp	L216
  2644                                  ; case
  2645                                  ; RPN'ized expression: "_FONT14 "
  2646                                  ; Expanded expression: "14 "
  2647                                  ; Expression value: 14
  2648                                  L219:
  2649 00000CED B81111                     mov ax,1111h  
  2650 00000CF0 B300                       mov bl,00h    
  2651 00000CF2 CD10                       int 10h       
  2652                                  
  2653                                  ; }
  2654 00000CF4 EB0C                    	jmp	L216
  2655                                  L217:
  2656 00000CF6 6683F808                	cmp	eax, 8
  2657 00000CFA 74E8                    	je	L218
  2658 00000CFC 6683F80E                	cmp	eax, 14
  2659 00000D00 74EB                    	je	L219
  2660                                  L216:
  2661                                  ; }
  2662                                  L211:
  2663                                  ; break
  2664 00000D02 E9D100                  	jmp	L201
  2665                                  ; case
  2666                                  ; RPN'ized expression: "_VGACOLOR "
  2667                                  ; Expanded expression: "7 "
  2668                                  ; Expression value: 7
  2669                                  L220:
  2670                                  ; case
  2671                                  ; RPN'ized expression: "_VGAMONO "
  2672                                  ; Expanded expression: "8 "
  2673                                  ; Expression value: 8
  2674                                  L221:
  2675                                  ; if
  2676                                  ; RPN'ized expression: "redimensionable fontSize size != && "
  2677                                  ; Expanded expression: "redimensionable *(4) _Bool [sh&&->224] fontSize *(1) (@8) *(4) != &&[224] "
  2678                                  ; Fused expression:    "redimensionable *(4) ax _Bool [sh&&->224] fontSize != *ax *(@8) &&[224]  "
  2679                                  section .relod
  2680 000000F0 [070D0000]              	dd	L225
  2681                                  section .text
  2682 00000D05 66B8                    	db	0x66, 0xB8
  2683                                  L225:
  2684 00000D07 [14000000]              	dd	_redimensionable
  2685 00000D0B 6689C3                  	mov	ebx, eax
  2686 00000D0E 6689DE                  	mov	esi, ebx
  2687 00000D11 66C1CE04                	ror	esi, 4
  2688 00000D15 8EDE                    	mov	ds, si
  2689 00000D17 66C1EE1C                	shr	esi, 28
  2690 00000D1B 668B04                  	mov	eax, [si]
  2691 00000D1E 6685C0                  	test	eax, eax
  2692 00000D21 0F95C0                  	setne	al
  2693 00000D24 660FBEC0                	movsx	eax, al
  2694                                  ; JumpIfZero
  2695 00000D28 6685C0                  	test	eax, eax
  2696 00000D2B 7427                    	je	L224
  2697                                  section .relod
  2698 000000F4 [2F0D0000]              	dd	L226
  2699                                  section .text
  2700 00000D2D 66B8                    	db	0x66, 0xB8
  2701                                  L226:
  2702 00000D2F [1C000000]              	dd	_fontSize
  2703 00000D33 6689C3                  	mov	ebx, eax
  2704 00000D36 6689DE                  	mov	esi, ebx
  2705 00000D39 66C1CE04                	ror	esi, 4
  2706 00000D3D 8EDE                    	mov	ds, si
  2707 00000D3F 66C1EE1C                	shr	esi, 28
  2708 00000D43 8A04                    	mov	al, [si]
  2709 00000D45 660FB6C0                	movzx	eax, al
  2710 00000D49 663B4608                	cmp	eax, [bp+8]
  2711 00000D4D 0F95C0                  	setne	al
  2712 00000D50 660FB6C0                	movzx	eax, al
  2713                                  L224:
  2714                                  ; JumpIfZero
  2715 00000D54 6685C0                  	test	eax, eax
  2716 00000D57 7433                    	je	L222
  2717                                  ; {
  2718                                  ; switch
  2719                                  ; RPN'ized expression: "size "
  2720                                  ; Expanded expression: "(@8) *(4) "
  2721                                  ; Fused expression:    "*(4) (@8)  "
  2722 00000D59 668B4608                	mov	eax, [bp+8]
  2723 00000D5D EB1B                    	jmp	L228
  2724                                  ; {
  2725                                  ; case
  2726                                  ; RPN'ized expression: "_FONT08 "
  2727                                  ; Expanded expression: "8 "
  2728                                  ; Expression value: 8
  2729                                  L229:
  2730 00000D5F B81211                     mov ax,1112h  
  2731 00000D62 B300                       mov bl,00h    
  2732 00000D64 CD10                       int 10h       
  2733                                  
  2734                                  ; break
  2735 00000D66 EB24                    	jmp	L227
  2736                                  ; case
  2737                                  ; RPN'ized expression: "_FONT14 "
  2738                                  ; Expanded expression: "14 "
  2739                                  ; Expression value: 14
  2740                                  L230:
  2741 00000D68 B81111                     mov ax,1111h  
  2742 00000D6B B300                       mov bl,00h    
  2743 00000D6D CD10                       int 10h       
  2744                                  
  2745                                  ; break
  2746 00000D6F EB1B                    	jmp	L227
  2747                                  ; case
  2748                                  ; RPN'ized expression: "_FONT16 "
  2749                                  ; Expanded expression: "16 "
  2750                                  ; Expression value: 16
  2751                                  L231:
  2752 00000D71 B81411                     mov ax,1114h  
  2753 00000D74 B300                       mov bl,00h    
  2754 00000D76 CD10                       int 10h       
  2755                                  
  2756                                  ; }
  2757 00000D78 EB12                    	jmp	L227
  2758                                  L228:
  2759 00000D7A 6683F808                	cmp	eax, 8
  2760 00000D7E 74DF                    	je	L229
  2761 00000D80 6683F80E                	cmp	eax, 14
  2762 00000D84 74E2                    	je	L230
  2763 00000D86 6683F810                	cmp	eax, 16
  2764 00000D8A 74E5                    	je	L231
  2765                                  L227:
  2766                                  ; }
  2767                                  L222:
  2768                                  ; }
  2769 00000D8C EB48                    	jmp	L201
  2770                                  L202:
  2771 00000D8E 6683F802                	cmp	eax, 2
  2772 00000D92 0F84F1FE                	je	L204
  2773 00000D96 6683F801                	cmp	eax, 1
  2774 00000D9A 0F84E9FE                	je	L205
  2775 00000D9E 6683F80A                	cmp	eax, 10
  2776 00000DA2 0F84E1FE                	je	L206
  2777 00000DA6 6683F80B                	cmp	eax, 11
  2778 00000DAA 0F84D9FE                	je	L207
  2779 00000DAE 6683F830                	cmp	eax, 48
  2780 00000DB2 0F84D1FE                	je	L208
  2781 00000DB6 6683F804                	cmp	eax, 4
  2782 00000DBA 0F84CCFE                	je	L209
  2783 00000DBE 6683F805                	cmp	eax, 5
  2784 00000DC2 0F84C4FE                	je	L210
  2785 00000DC6 6683F807                	cmp	eax, 7
  2786 00000DCA 0F8437FF                	je	L220
  2787 00000DCE 6683F808                	cmp	eax, 8
  2788 00000DD2 0F842FFF                	je	L221
  2789                                  L201:
  2790                                  ; RPN'ized expression: "( visibilidad setCursorVisibilidad ) "
  2791                                  ; Expanded expression: " visibilidad *(1)  setCursorVisibilidad ()4 "
  2792                                  ; Fused expression:    "( visibilidad *(1) ax , setCursorVisibilidad )4 "
  2793                                  section .relod
  2794 000000F8 [D80D0000]              	dd	L232
  2795                                  section .text
  2796 00000DD6 66B8                    	db	0x66, 0xB8
  2797                                  L232:
  2798 00000DD8 [00000000]              	dd	_visibilidad
  2799 00000DDC 6689C3                  	mov	ebx, eax
  2800 00000DDF 6689DE                  	mov	esi, ebx
  2801 00000DE2 66C1CE04                	ror	esi, 4
  2802 00000DE6 8EDE                    	mov	ds, si
  2803 00000DE8 66C1EE1C                	shr	esi, 28
  2804 00000DEC 8A04                    	mov	al, [si]
  2805 00000DEE 660FB6C0                	movzx	eax, al
  2806 00000DF2 6650                    	push	eax
  2807 00000DF4 9A                      	db	0x9A
  2808                                  section .relot
  2809 00000018 [F50D0000]              	dd	L233
  2810                                  section .text
  2811                                  L233:
  2812 00000DF5 [350B0000]              	dd	_setCursorVisibilidad
  2813 00000DF9 83ECFC                  	sub	sp, -4
  2814                                  ; RPN'ized expression: "fontSize ( getFontSize ) = "
  2815                                  ; Expanded expression: "fontSize  getFontSize ()0 =(1) "
  2816                                  ; Fused expression:    "fontSize push-ax ( getFontSize )0 =(156) **sp ax "
  2817                                  section .relod
  2818 000000FC [FE0D0000]              	dd	L234
  2819                                  section .text
  2820 00000DFC 66B8                    	db	0x66, 0xB8
  2821                                  L234:
  2822 00000DFE [1C000000]              	dd	_fontSize
  2823 00000E02 6650                    	push	eax
  2824 00000E04 9A                      	db	0x9A
  2825                                  section .relot
  2826 0000001C [050E0000]              	dd	L235
  2827                                  section .text
  2828                                  L235:
  2829 00000E05 [C9030000]              	dd	_getFontSize
  2830 00000E09 665B                    	pop	ebx
  2831 00000E0B 6689DE                  	mov	esi, ebx
  2832 00000E0E 66C1CE04                	ror	esi, 4
  2833 00000E12 8EDE                    	mov	ds, si
  2834 00000E14 66C1EE1C                	shr	esi, 28
  2835 00000E18 8804                    	mov	[si], al
  2836 00000E1A 660FB6C0                	movzx	eax, al
  2837                                  L196:
  2838 00000E1E 66                      	db	0x66
  2839 00000E1F C9                      	leave
  2840 00000E20 CB                      	retf
  2841                                  L236:
  2842                                  
  2843                                  section .fxnsz
  2844 0000001C DD010000                	dd	L236 - _setFontSize
  2845                                  
  2846                                  ; glb set25x80 : (void) void
  2847                                  section .text
  2848                                  	global	_set25x80
  2849                                  _set25x80:
  2850 00000E21 6655                    	push	ebp
  2851 00000E23 660FB7EC                	movzx	ebp, sp
  2852                                  	;sub	sp,          0
  2853                                  ; switch
  2854                                  ; RPN'ized expression: "tipoAdaptador "
  2855                                  ; Expanded expression: "tipoAdaptador *(4) "
  2856                                  ; Fused expression:    "tipoAdaptador *(4) ax  "
  2857                                  section .relod
  2858 00000100 [290E0000]              	dd	L241
  2859                                  section .text
  2860 00000E27 66B8                    	db	0x66, 0xB8
  2861                                  L241:
  2862 00000E29 [08000000]              	dd	_tipoAdaptador
  2863 00000E2D 6689C3                  	mov	ebx, eax
  2864 00000E30 6689DE                  	mov	esi, ebx
  2865 00000E33 66C1CE04                	ror	esi, 4
  2866 00000E37 8EDE                    	mov	ds, si
  2867 00000E39 66C1EE1C                	shr	esi, 28
  2868 00000E3D 668B04                  	mov	eax, [si]
  2869 00000E40 EB1C                    	jmp	L240
  2870                                  ; {
  2871                                  ; case
  2872                                  ; RPN'ized expression: "_CGA "
  2873                                  ; Expanded expression: "2 "
  2874                                  ; Expression value: 2
  2875                                  L242:
  2876                                  ; case
  2877                                  ; RPN'ized expression: "_EGACOLOR "
  2878                                  ; Expanded expression: "4 "
  2879                                  ; Expression value: 4
  2880                                  L243:
  2881                                  ; case
  2882                                  ; RPN'ized expression: "_EGAMONO "
  2883                                  ; Expanded expression: "5 "
  2884                                  ; Expression value: 5
  2885                                  L244:
  2886                                  ; case
  2887                                  ; RPN'ized expression: "_VGACOLOR "
  2888                                  ; Expanded expression: "7 "
  2889                                  ; Expression value: 7
  2890                                  L245:
  2891                                  ; case
  2892                                  ; RPN'ized expression: "_VGAMONO "
  2893                                  ; Expanded expression: "8 "
  2894                                  ; Expression value: 8
  2895                                  L246:
  2896                                  ; case
  2897                                  ; RPN'ized expression: "_MCGACOLOR "
  2898                                  ; Expanded expression: "10 "
  2899                                  ; Expression value: 10
  2900                                  L247:
  2901                                  ; case
  2902                                  ; RPN'ized expression: "_MCGAMONO "
  2903                                  ; Expanded expression: "11 "
  2904                                  ; Expression value: 11
  2905                                  L248:
  2906                                  ; RPN'ized expression: "( 3 establecerModoDeVideo ) "
  2907                                  ; Expanded expression: " 3  establecerModoDeVideo ()4 "
  2908                                  ; Fused expression:    "( 3 , establecerModoDeVideo )4 "
  2909 00000E42 666A03                  	push	dword 3
  2910 00000E45 9A                      	db	0x9A
  2911                                  section .relot
  2912 00000020 [460E0000]              	dd	L249
  2913                                  section .text
  2914                                  L249:
  2915 00000E46 [00000000]              	dd	_establecerModoDeVideo
  2916 00000E4A 83ECFC                  	sub	sp, -4
  2917                                  ; break
  2918 00000E4D EB3F                    	jmp	L239
  2919                                  ; case
  2920                                  ; RPN'ized expression: "_MDA "
  2921                                  ; Expanded expression: "1 "
  2922                                  ; Expression value: 1
  2923                                  L250:
  2924                                  ; RPN'ized expression: "( 7 establecerModoDeVideo ) "
  2925                                  ; Expanded expression: " 7  establecerModoDeVideo ()4 "
  2926                                  ; Fused expression:    "( 7 , establecerModoDeVideo )4 "
  2927 00000E4F 666A07                  	push	dword 7
  2928 00000E52 9A                      	db	0x9A
  2929                                  section .relot
  2930 00000024 [530E0000]              	dd	L251
  2931                                  section .text
  2932                                  L251:
  2933 00000E53 [00000000]              	dd	_establecerModoDeVideo
  2934 00000E57 83ECFC                  	sub	sp, -4
  2935                                  ; break
  2936 00000E5A EB32                    	jmp	L239
  2937                                  ; }
  2938 00000E5C EB30                    	jmp	L239
  2939                                  L240:
  2940 00000E5E 6683F802                	cmp	eax, 2
  2941 00000E62 74DE                    	je	L242
  2942 00000E64 6683F804                	cmp	eax, 4
  2943 00000E68 74D8                    	je	L243
  2944 00000E6A 6683F805                	cmp	eax, 5
  2945 00000E6E 74D2                    	je	L244
  2946 00000E70 6683F807                	cmp	eax, 7
  2947 00000E74 74CC                    	je	L245
  2948 00000E76 6683F808                	cmp	eax, 8
  2949 00000E7A 74C6                    	je	L246
  2950 00000E7C 6683F80A                	cmp	eax, 10
  2951 00000E80 74C0                    	je	L247
  2952 00000E82 6683F80B                	cmp	eax, 11
  2953 00000E86 74BA                    	je	L248
  2954 00000E88 6683F801                	cmp	eax, 1
  2955 00000E8C 74C1                    	je	L250
  2956                                  L239:
  2957                                  L237:
  2958 00000E8E 66                      	db	0x66
  2959 00000E8F C9                      	leave
  2960 00000E90 CB                      	retf
  2961                                  L252:
  2962                                  
  2963                                  section .fxnsz
  2964 00000020 70000000                	dd	L252 - _set25x80
  2965                                  
  2966                                  ; glb redimensionar : (
  2967                                  ; prm     nFilas : unsigned char
  2968                                  ; prm     nCols : unsigned char
  2969                                  ;     ) void
  2970                                  section .text
  2971                                  	global	_redimensionar
  2972                                  _redimensionar:
  2973 00000E91 6655                    	push	ebp
  2974 00000E93 660FB7EC                	movzx	ebp, sp
  2975                                  	;sub	sp,          0
  2976                                  ; loc     nFilas : (@8): unsigned char
  2977                                  ; loc     nCols : (@12): unsigned char
  2978                                  ; switch
  2979                                  ; RPN'ized expression: "tipoAdaptador "
  2980                                  ; Expanded expression: "tipoAdaptador *(4) "
  2981                                  ; Fused expression:    "tipoAdaptador *(4) ax  "
  2982                                  section .relod
  2983 00000104 [990E0000]              	dd	L257
  2984                                  section .text
  2985 00000E97 66B8                    	db	0x66, 0xB8
  2986                                  L257:
  2987 00000E99 [08000000]              	dd	_tipoAdaptador
  2988 00000E9D 6689C3                  	mov	ebx, eax
  2989 00000EA0 6689DE                  	mov	esi, ebx
  2990 00000EA3 66C1CE04                	ror	esi, 4
  2991 00000EA7 8EDE                    	mov	ds, si
  2992 00000EA9 66C1EE1C                	shr	esi, 28
  2993 00000EAD 668B04                  	mov	eax, [si]
  2994 00000EB0 EB5C                    	jmp	L256
  2995                                  ; {
  2996                                  ; case
  2997                                  ; RPN'ized expression: "_EGACOLOR "
  2998                                  ; Expanded expression: "4 "
  2999                                  ; Expression value: 4
  3000                                  L258:
  3001                                  ; if
  3002                                  ; RPN'ized expression: "nFilas 43 >= "
  3003                                  ; Expanded expression: "(@8) *(1) 43 >= "
  3004                                  ; Fused expression:    ">= *(@8) 43 IF! "
  3005 00000EB2 8A4608                  	mov	al, [bp+8]
  3006 00000EB5 660FB6C0                	movzx	eax, al
  3007 00000EB9 6683F82B                	cmp	eax, 43
  3008 00000EBD 7C0D                    	jl	L259
  3009                                  ; RPN'ized expression: "( _FONT08 setFontSize ) "
  3010                                  ; Expanded expression: " 8  setFontSize ()4 "
  3011                                  ; Fused expression:    "( 8 , setFontSize )4 "
  3012 00000EBF 666A08                  	push	dword 8
  3013 00000EC2 9A                      	db	0x9A
  3014                                  section .relot
  3015 00000028 [C30E0000]              	dd	L261
  3016                                  section .text
  3017                                  L261:
  3018 00000EC3 [440C0000]              	dd	_setFontSize
  3019 00000EC7 83ECFC                  	sub	sp, -4
  3020 00000ECA EB05                    	jmp	L260
  3021                                  L259:
  3022                                  ; else
  3023                                  ; RPN'ized expression: "( set25x80 ) "
  3024                                  ; Expanded expression: " set25x80 ()0 "
  3025                                  ; Fused expression:    "( set25x80 )0 "
  3026 00000ECC 9A                      	db	0x9A
  3027                                  section .relot
  3028 0000002C [CD0E0000]              	dd	L262
  3029                                  section .text
  3030                                  L262:
  3031 00000ECD [210E0000]              	dd	_set25x80
  3032                                  L260:
  3033                                  ; break
  3034 00000ED1 EB47                    	jmp	L255
  3035                                  ; case
  3036                                  ; RPN'ized expression: "_VGACOLOR "
  3037                                  ; Expanded expression: "7 "
  3038                                  ; Expression value: 7
  3039                                  L263:
  3040                                  ; if
  3041                                  ; RPN'ized expression: "nFilas 28 > "
  3042                                  ; Expanded expression: "(@8) *(1) 28 > "
  3043                                  ; Fused expression:    "> *(@8) 28 IF! "
  3044 00000ED3 8A4608                  	mov	al, [bp+8]
  3045 00000ED6 660FB6C0                	movzx	eax, al
  3046 00000EDA 6683F81C                	cmp	eax, 28
  3047 00000EDE 7E0D                    	jle	L264
  3048                                  ; RPN'ized expression: "( _FONT08 setFontSize ) "
  3049                                  ; Expanded expression: " 8  setFontSize ()4 "
  3050                                  ; Fused expression:    "( 8 , setFontSize )4 "
  3051 00000EE0 666A08                  	push	dword 8
  3052 00000EE3 9A                      	db	0x9A
  3053                                  section .relot
  3054 00000030 [E40E0000]              	dd	L266
  3055                                  section .text
  3056                                  L266:
  3057 00000EE4 [440C0000]              	dd	_setFontSize
  3058 00000EE8 83ECFC                  	sub	sp, -4
  3059 00000EEB EB1F                    	jmp	L265
  3060                                  L264:
  3061                                  ; else
  3062                                  ; if
  3063                                  ; RPN'ized expression: "nFilas 25 > "
  3064                                  ; Expanded expression: "(@8) *(1) 25 > "
  3065                                  ; Fused expression:    "> *(@8) 25 IF! "
  3066 00000EED 8A4608                  	mov	al, [bp+8]
  3067 00000EF0 660FB6C0                	movzx	eax, al
  3068 00000EF4 6683F819                	cmp	eax, 25
  3069 00000EF8 7E0D                    	jle	L267
  3070                                  ; RPN'ized expression: "( _FONT14 setFontSize ) "
  3071                                  ; Expanded expression: " 14  setFontSize ()4 "
  3072                                  ; Fused expression:    "( 14 , setFontSize )4 "
  3073 00000EFA 666A0E                  	push	dword 14
  3074 00000EFD 9A                      	db	0x9A
  3075                                  section .relot
  3076 00000034 [FE0E0000]              	dd	L269
  3077                                  section .text
  3078                                  L269:
  3079 00000EFE [440C0000]              	dd	_setFontSize
  3080 00000F02 83ECFC                  	sub	sp, -4
  3081 00000F05 EB05                    	jmp	L268
  3082                                  L267:
  3083                                  ; else
  3084                                  ; RPN'ized expression: "( set25x80 ) "
  3085                                  ; Expanded expression: " set25x80 ()0 "
  3086                                  ; Fused expression:    "( set25x80 )0 "
  3087 00000F07 9A                      	db	0x9A
  3088                                  section .relot
  3089 00000038 [080F0000]              	dd	L270
  3090                                  section .text
  3091                                  L270:
  3092 00000F08 [210E0000]              	dd	_set25x80
  3093                                  L268:
  3094                                  L265:
  3095                                  ; }
  3096 00000F0C EB0C                    	jmp	L255
  3097                                  L256:
  3098 00000F0E 6683F804                	cmp	eax, 4
  3099 00000F12 749E                    	je	L258
  3100 00000F14 6683F807                	cmp	eax, 7
  3101 00000F18 74B9                    	je	L263
  3102                                  L255:
  3103                                  L253:
  3104 00000F1A 66                      	db	0x66
  3105 00000F1B C9                      	leave
  3106 00000F1C CB                      	retf
  3107                                  L271:
  3108                                  
  3109                                  section .fxnsz
  3110 00000024 8C000000                	dd	L271 - _redimensionar
  3111                                  
  3112                                  
  3113                                  	extern	_ptrBiosArea
  3114                                  	extern	_readXYBIOS
  3115                                  	extern	_establecerModoDeVideo
  3116                                  
  3117                                  ; Syntax/declaration table/stack:
  3118                                  ; Bytes used: 6100/40960
  3119                                  
  3120                                  
  3121                                  ; Macro table:
  3122                                  ; Macro __SMALLER_C__ = `0x0100`
  3123                                  ; Macro __SMALLER_C_32__ = ``
  3124                                  ; Macro __HUGE__ = ``
  3125                                  ; Macro __SMALLER_C_SCHAR__ = ``
  3126                                  ; Bytes used: 74/5120
  3127                                  
  3128                                  
  3129                                  ; Identifier table:
  3130                                  ; Ident __floatsisf
  3131                                  ; Ident __floatunsisf
  3132                                  ; Ident __fixsfsi
  3133                                  ; Ident __fixunssfsi
  3134                                  ; Ident __addsf3
  3135                                  ; Ident __subsf3
  3136                                  ; Ident __negsf2
  3137                                  ; Ident __mulsf3
  3138                                  ; Ident __divsf3
  3139                                  ; Ident __lesf2
  3140                                  ; Ident __gesf2
  3141                                  ; Ident intptr_t
  3142                                  ; Ident uintptr_t
  3143                                  ; Ident intmax_t
  3144                                  ; Ident uintmax_t
  3145                                  ; Ident int8_t
  3146                                  ; Ident int_least8_t
  3147                                  ; Ident int_fast8_t
  3148                                  ; Ident uint8_t
  3149                                  ; Ident uint_least8_t
  3150                                  ; Ident uint_fast8_t
  3151                                  ; Ident int16_t
  3152                                  ; Ident int_least16_t
  3153                                  ; Ident int_fast16_t
  3154                                  ; Ident uint16_t
  3155                                  ; Ident uint_least16_t
  3156                                  ; Ident uint_fast16_t
  3157                                  ; Ident int32_t
  3158                                  ; Ident int_least32_t
  3159                                  ; Ident int_fast32_t
  3160                                  ; Ident uint32_t
  3161                                  ; Ident uint_least32_t
  3162                                  ; Ident uint_fast32_t
  3163                                  ; Ident <something>
  3164                                  ; Ident quot
  3165                                  ; Ident rem
  3166                                  ; Ident imaxdiv_t
  3167                                  ; Ident FALSE
  3168                                  ; Ident TRUE
  3169                                  ; Ident bool_t
  3170                                  ; Ident pointer_t
  3171                                  ; Ident funcion_t
  3172                                  ; Ident manejador_t
  3173                                  ; Ident rti_t
  3174                                  ; Ident isr_t
  3175                                  ; Ident handler_t
  3176                                  ; Ident retardarThread_t
  3177                                  ; Ident ptrTVI_t
  3178                                  ; Ident modoSO1_Bin
  3179                                  ; Ident modoSO1_Exe
  3180                                  ; Ident modoSO1_Bs
  3181                                  ; Ident modoSO1_t
  3182                                  ; Ident lo
  3183                                  ; Ident hi
  3184                                  ; Ident lh_t
  3185                                  ; Ident offset
  3186                                  ; Ident segment
  3187                                  ; Ident address_t
  3188                                  ; Ident ptr
  3189                                  ; Ident adr
  3190                                  ; Ident uPtrAdr_t
  3191                                  ; Ident pid_t
  3192                                  ; Ident tid_t
  3193                                  ; Ident uid_t
  3194                                  ; Ident gid_t
  3195                                  ; Ident pindx_t
  3196                                  ; Ident tindx_t
  3197                                  ; Ident df_t
  3198                                  ; Ident dfs_t
  3199                                  ; Ident rindx_t
  3200                                  ; Ident tipoOrdenador
  3201                                  ; Ident rebootLegacy
  3202                                  ; Ident tipoTeclado
  3203                                  ; Ident leerTeclaBIOS
  3204                                  ; Ident leerTeclaExtBIOS
  3205                                  ; Ident teclaListaBIOS
  3206                                  ; Ident leerTeclaListaBDA
  3207                                  ; Ident teclaListaBDA
  3208                                  ; Ident printCarBIOS
  3209                                  ; Ident car
  3210                                  ; Ident printCarPagBIOS
  3211                                  ; Ident pag
  3212                                  ; Ident printCarAtrPagBIOS
  3213                                  ; Ident atr
  3214                                  ; Ident printLnBIOS
  3215                                  ; Ident printStrBIOS
  3216                                  ; Ident str
  3217                                  ; Ident printStrHastaBIOS
  3218                                  ; Ident n
  3219                                  ; Ident lleno
  3220                                  ; Ident printDecBIOS
  3221                                  ; Ident num
  3222                                  ; Ident l
  3223                                  ; Ident printLDecBIOS
  3224                                  ; Ident printIntBIOS
  3225                                  ; Ident printLIntBIOS
  3226                                  ; Ident printHexBIOS
  3227                                  ; Ident printLHexBIOS
  3228                                  ; Ident printBinBIOS
  3229                                  ; Ident printLBinBIOS
  3230                                  ; Ident printPtrBIOS
  3231                                  ; Ident printByteBIOS
  3232                                  ; Ident b
  3233                                  ; Ident printWordBIOS
  3234                                  ; Ident w
  3235                                  ; Ident printCadBIOS
  3236                                  ; Ident cad
  3237                                  ; Ident esperarTicsBIOS
  3238                                  ; Ident tics
  3239                                  ; Ident modoDeVideo
  3240                                  ; Ident establecerModoDeVideo
  3241                                  ; Ident modo
  3242                                  ; Ident paginaActiva
  3243                                  ; Ident establecerPaginaActiva
  3244                                  ; Ident numPagsVideo
  3245                                  ; Ident scrollPagBDA
  3246                                  ; Ident numLineas
  3247                                  ; Ident scrollPagBIOS
  3248                                  ; Ident scrollBIOS
  3249                                  ; Ident goToXYPag
  3250                                  ; Ident fila
  3251                                  ; Ident columna
  3252                                  ; Ident goToXYBIOS
  3253                                  ; Ident setCursorBIOS
  3254                                  ; Ident linea1
  3255                                  ; Ident linea2
  3256                                  ; Ident ocultaCursorBIOS
  3257                                  ; Ident readXYPagBIOS
  3258                                  ; Ident readXYBIOS
  3259                                  ; Ident memBIOS
  3260                                  ; Ident enviarBIOS
  3261                                  ; Ident recibirBIOS
  3262                                  ; Ident hayApmBIOS
  3263                                  ; Ident version
  3264                                  ; Ident connectApmBIOS
  3265                                  ; Ident disconnectApmBIOS
  3266                                  ; Ident cpuIdleBIOS
  3267                                  ; Ident cpuBusyBIOS
  3268                                  ; Ident pos_t
  3269                                  ; Ident t
  3270                                  ; Ident pantalla_t
  3271                                  ; Ident tamPantalla
  3272                                  ; Ident numFilas
  3273                                  ; Ident pantallazo
  3274                                  ; Ident pantalla
  3275                                  ; Ident esqSupDeF
  3276                                  ; Ident esqSupDeC
  3277                                  ; Ident esqInfIzF
  3278                                  ; Ident esqInfIzC
  3279                                  ; Ident borrarPantalla
  3280                                  ; Ident borrarCPantalla
  3281                                  ; Ident copiarPantalla
  3282                                  ; Ident p1
  3283                                  ; Ident p2
  3284                                  ; Ident copiarCPantalla
  3285                                  ; Ident scrollPantalla
  3286                                  ; Ident scrollCPantalla
  3287                                  ; Ident _NONE
  3288                                  ; Ident _MDA
  3289                                  ; Ident _CGA
  3290                                  ; Ident _EGACOLOR
  3291                                  ; Ident _EGAMONO
  3292                                  ; Ident _VGACOLOR
  3293                                  ; Ident _VGAMONO
  3294                                  ; Ident _MCGACOLOR
  3295                                  ; Ident _MCGAMONO
  3296                                  ; Ident _MDS_GENIUS
  3297                                  ; Ident tipoAdaptador_t
  3298                                  ; Ident _FONT08
  3299                                  ; Ident _FONT14
  3300                                  ; Ident _FONT15
  3301                                  ; Ident _FONT16
  3302                                  ; Ident fontSize_t
  3303                                  ; Ident numColumnas
  3304                                  ; Ident ptrPant
  3305                                  ; Ident tipoAdaptador
  3306                                  ; Ident redimensionable
  3307                                  ; Ident fontSize
  3308                                  ; Ident visibilidad
  3309                                  ; Ident inicBiosCrt
  3310                                  ; Ident finBiosCrt
  3311                                  ; Ident getFontSize
  3312                                  ; Ident getFilas
  3313                                  ; Ident comprobarAdaptador
  3314                                  ; Ident tipoDeAdaptador
  3315                                  ; Ident setCursorVisibilidad
  3316                                  ; Ident valorDeVisibilidad
  3317                                  ; Ident setFontSize
  3318                                  ; Ident size
  3319                                  ; Ident set25x80
  3320                                  ; Ident redimensionar
  3321                                  ; Ident nFilas
  3322                                  ; Ident nCols
  3323                                  ; Ident HWLIST_t
  3324                                  ; Ident KBDFLAGS_t
  3325                                  ; Ident KBDSTATUS_t
  3326                                  ; Ident VIDEOCONTROL_t
  3327                                  ; Ident DRECSTATUS_t
  3328                                  ; Ident DMOTORSTATUS_t
  3329                                  ; Ident FDOPSTATUS_t
  3330                                  ; Ident VIDEOSWITCHES_t
  3331                                  ; Ident VGAOPTIONS_t
  3332                                  ; Ident VIDEO_paramtbl
  3333                                  ; Ident VIDEO_dynsavearea
  3334                                  ; Ident VIDEO_text_charset
  3335                                  ; Ident VIDEO_graph_charset
  3336                                  ; Ident VIDEO_savetbl2
  3337                                  ; Ident VIDEOSAVETBL_t
  3338                                  ; Ident VPARAM_width
  3339                                  ; Ident VPARAM_height
  3340                                  ; Ident VPARAM_hchar
  3341                                  ; Ident VPARAM_pagesize
  3342                                  ; Ident VPARAM_SEQC
  3343                                  ; Ident VPARAM_MISC
  3344                                  ; Ident VPARAM_CRTC
  3345                                  ; Ident VPARAM_ATC
  3346                                  ; Ident VPARAM_GRC
  3347                                  ; Ident VIDEOPARAM_t
  3348                                  ; Ident IVT
  3349                                  ; Ident COM_base
  3350                                  ; Ident LPT_base
  3351                                  ; Ident XBDA_seg
  3352                                  ; Ident HW_list
  3353                                  ; Ident relleno1
  3354                                  ; Ident basemem_K
  3355                                  ; Ident relleno2
  3356                                  ; Ident KBD_flags
  3357                                  ; Ident relleno3
  3358                                  ; Ident KBD_bufhead
  3359                                  ; Ident KBD_buftail
  3360                                  ; Ident KBD_buffer
  3361                                  ; Ident dRecStatus
  3362                                  ; Ident dMotorStatus
  3363                                  ; Ident motorShutoffCounter
  3364                                  ; Ident fdOpStatus
  3365                                  ; Ident relleno4
  3366                                  ; Ident VIDEO_mode
  3367                                  ; Ident VIDEO_width
  3368                                  ; Ident VIDEO_pagesize
  3369                                  ; Ident VIDEO_pageoff
  3370                                  ; Ident CURSOR_pos
  3371                                  ; Ident CURSOR_shape
  3372                                  ; Ident VIDEO_pagActiva
  3373                                  ; Ident CRTC_base
  3374                                  ; Ident CRT_MODE
  3375                                  ; Ident CRT_PALETTE
  3376                                  ; Ident relleno5
  3377                                  ; Ident BIOS_timer
  3378                                  ; Ident BIOS_overflow
  3379                                  ; Ident BIOS_ctrlbreak
  3380                                  ; Ident BIOS_POSTreset
  3381                                  ; Ident relleno6
  3382                                  ; Ident BIOS_HD_cnt
  3383                                  ; Ident relleno7
  3384                                  ; Ident LPT_timeout
  3385                                  ; Ident BIOS_4B_flags
  3386                                  ; Ident COM_timeout
  3387                                  ; Ident KBD_start
  3388                                  ; Ident KBD_end1
  3389                                  ; Ident VIDEO_lastrow
  3390                                  ; Ident VIDEO_hchar
  3391                                  ; Ident VIDEO_control
  3392                                  ; Ident VIDEO_switches
  3393                                  ; Ident VGA_options
  3394                                  ; Ident VGA_DCC_index
  3395                                  ; Ident relleno8
  3396                                  ; Ident KBD_status
  3397                                  ; Ident TIMER_waitflag
  3398                                  ; Ident TIMER_waitmks
  3399                                  ; Ident TIMER_active
  3400                                  ; Ident relleno9
  3401                                  ; Ident VIDEO_ptrtable
  3402                                  ; Ident relleno10
  3403                                  ; Ident IAC
  3404                                  ; Ident BIOSAREA_t
  3405                                  ; Ident ptrBiosArea
  3406                                  ; Ident ptrFechaBios
  3407                                  ; Ident enColor
  3408                                  ; Ident videoDirecto
  3409                                  ; Ident adaptadorNoFiable
  3410                                  ; Ident cursorOriginalF
  3411                                  ; Ident cursorOriginalC
  3412                                  ; Ident lineaOriginal1
  3413                                  ; Ident lineaOriginal2
  3414                                  ; Ident numFilasOriginal
  3415                                  ; Ident numColumnasOriginal
  3416                                  ; Ident fontSizeOriginal
  3417                                  ; Ident segMemVideo
  3418                                  ; Bytes used: 3489/16384
  3419                                  
  3420                                  ; Next label number: 272
  3421                                  ; Compilation succeeded.
