     1                                  bits 16
     2                                  
     3                                  ; glb intptr_t : int
     4                                  ; glb uintptr_t : unsigned
     5                                  ; glb intmax_t : int
     6                                  ; glb uintmax_t : unsigned
     7                                  ; glb int8_t : signed char
     8                                  ; glb int_least8_t : signed char
     9                                  ; glb int_fast8_t : signed char
    10                                  ; glb uint8_t : unsigned char
    11                                  ; glb uint_least8_t : unsigned char
    12                                  ; glb uint_fast8_t : unsigned char
    13                                  ; glb int16_t : short
    14                                  ; glb int_least16_t : short
    15                                  ; glb int_fast16_t : short
    16                                  ; glb uint16_t : unsigned short
    17                                  ; glb uint_least16_t : unsigned short
    18                                  ; glb uint_fast16_t : unsigned short
    19                                  ; glb int32_t : int
    20                                  ; glb int_least32_t : int
    21                                  ; glb int_fast32_t : int
    22                                  ; glb uint32_t : unsigned
    23                                  ; glb uint_least32_t : unsigned
    24                                  ; glb uint_fast32_t : unsigned
    25                                  ; glb imaxdiv_t : struct <something>
    26                                  ; glb bool_t : int
    27                                  ; glb pointer_t : * unsigned char
    28                                  ; glb funcion_t : * (
    29                                  ; prm     <something> : * void
    30                                  ;     ) * void
    31                                  ; glb manejador_t : * (void) void
    32                                  ; glb rti_t : * (void) void
    33                                  ; glb isr_t : * (void) void
    34                                  ; glb handler_t : * (void) void
    35                                  ; glb retardarThread_t : * (void) int
    36                                  ; glb ptrTVI_t : * * (void) void
    37                                  ; glb modoSO1_t : int
    38                                  ; glb lh_t : struct <something>
    39                                  ; glb address_t : struct <something>
    40                                  ; glb uPtrAdr_t : union <something>
    41                                  ; glb pid_t : int
    42                                  ; glb tid_t : int
    43                                  ; glb uid_t : int
    44                                  ; glb gid_t : int
    45                                  ; glb pindx_t : int
    46                                  ; glb tindx_t : int
    47                                  ; glb df_t : int
    48                                  ; glb dfs_t : int
    49                                  ; glb rindx_t : int
    50                                  ; glb tipoOrdenador : (void) unsigned char
    51                                  ; glb rebootLegacy : (void) void
    52                                  ; glb tipoTeclado : (void) unsigned char
    53                                  ; glb leerTeclaBIOS : (void) unsigned short
    54                                  ; glb leerTeclaExtBIOS : (void) unsigned short
    55                                  ; glb teclaListaBIOS : (void) unsigned short
    56                                  ; glb leerTeclaListaBDA : (void) unsigned short
    57                                  ; glb teclaListaBDA : (void) unsigned short
    58                                  ; glb printCarBIOS : (
    59                                  ; prm     car : char
    60                                  ;     ) int
    61                                  ; glb printCarPagBIOS : (
    62                                  ; prm     car : char
    63                                  ; prm     pag : unsigned char
    64                                  ;     ) int
    65                                  ; glb printCarAtrPagBIOS : (
    66                                  ; prm     car : char
    67                                  ; prm     atr : unsigned char
    68                                  ; prm     pag : unsigned char
    69                                  ;     ) int
    70                                  ; glb printLnBIOS : (void) int
    71                                  ; glb printStrBIOS : (
    72                                  ; prm     str : * char
    73                                  ;     ) int
    74                                  ; glb printStrHastaBIOS : (
    75                                  ; prm     str : * char
    76                                  ; prm     n : unsigned short
    77                                  ; prm     lleno : int
    78                                  ;     ) int
    79                                  ; glb printDecBIOS : (
    80                                  ; prm     num : unsigned short
    81                                  ; prm     l : unsigned short
    82                                  ;     ) int
    83                                  ; glb printLDecBIOS : (
    84                                  ; prm     num : unsigned
    85                                  ; prm     l : unsigned short
    86                                  ;     ) int
    87                                  ; glb printIntBIOS : (
    88                                  ; prm     num : short
    89                                  ; prm     l : unsigned short
    90                                  ;     ) int
    91                                  ; glb printLIntBIOS : (
    92                                  ; prm     num : int
    93                                  ; prm     l : unsigned short
    94                                  ;     ) int
    95                                  ; glb printHexBIOS : (
    96                                  ; prm     num : unsigned short
    97                                  ; prm     l : unsigned short
    98                                  ;     ) int
    99                                  ; glb printLHexBIOS : (
   100                                  ; prm     num : unsigned
   101                                  ; prm     l : unsigned short
   102                                  ;     ) int
   103                                  ; glb printBinBIOS : (
   104                                  ; prm     num : unsigned short
   105                                  ; prm     l : unsigned short
   106                                  ;     ) int
   107                                  ; glb printLBinBIOS : (
   108                                  ; prm     num : unsigned
   109                                  ; prm     l : unsigned short
   110                                  ;     ) int
   111                                  ; glb printPtrBIOS : (
   112                                  ; prm     ptr : * unsigned char
   113                                  ;     ) int
   114                                  ; glb printByteBIOS : (
   115                                  ; prm     b : unsigned char
   116                                  ;     ) int
   117                                  ; glb printWordBIOS : (
   118                                  ; prm     w : unsigned short
   119                                  ;     ) int
   120                                  ; glb printCadBIOS : (
   121                                  ; prm     cad : * char
   122                                  ;     ) int
   123                                  ; glb esperarTicsBIOS : (
   124                                  ; prm     tics : unsigned short
   125                                  ;     ) void
   126                                  ; glb modoDeVideo : (void) unsigned char
   127                                  ; glb establecerModoDeVideo : (
   128                                  ; prm     modo : unsigned char
   129                                  ;     ) void
   130                                  ; glb paginaActiva : (void) unsigned char
   131                                  ; glb establecerPaginaActiva : (
   132                                  ; prm     num : unsigned char
   133                                  ;     ) void
   134                                  ; glb numPagsVideo : (void) unsigned char
   135                                  ; glb scrollPagBDA : (
   136                                  ; prm     numLineas : unsigned char
   137                                  ; prm     pag : unsigned char
   138                                  ;     ) void
   139                                  ; glb scrollPagBIOS : (
   140                                  ; prm     numLineas : unsigned char
   141                                  ; prm     pag : unsigned char
   142                                  ;     ) void
   143                                  ; glb scrollBIOS : (
   144                                  ; prm     numLineas : unsigned char
   145                                  ;     ) void
   146                                  ; glb goToXYPag : (
   147                                  ; prm     fila : unsigned char
   148                                  ; prm     columna : unsigned char
   149                                  ; prm     pag : unsigned char
   150                                  ;     ) void
   151                                  ; glb goToXYBIOS : (
   152                                  ; prm     fila : unsigned char
   153                                  ; prm     columna : unsigned char
   154                                  ;     ) void
   155                                  ; glb setCursorBIOS : (
   156                                  ; prm     linea1 : unsigned char
   157                                  ; prm     linea2 : unsigned char
   158                                  ;     ) void
   159                                  ; glb ocultaCursorBIOS : (void) void
   160                                  ; glb readXYPagBIOS : (
   161                                  ; prm     fila : * unsigned char
   162                                  ; prm     columna : * unsigned char
   163                                  ; prm     linea1 : * unsigned char
   164                                  ; prm     linea2 : * unsigned char
   165                                  ; prm     pag : unsigned char
   166                                  ;     ) void
   167                                  ; glb readXYBIOS : (
   168                                  ; prm     fila : * unsigned char
   169                                  ; prm     columna : * unsigned char
   170                                  ; prm     linea1 : * unsigned char
   171                                  ; prm     linea2 : * unsigned char
   172                                  ;     ) void
   173                                  ; glb memBIOS : (void) unsigned short
   174                                  ; glb enviarBIOS : (
   175                                  ; prm     car : char
   176                                  ;     ) void
   177                                  ; glb recibirBIOS : (void) char
   178                                  ; glb hayApmBIOS : (
   179                                  ; prm     version : * unsigned short
   180                                  ;     ) int
   181                                  ; glb connectApmBIOS : (void) int
   182                                  ; glb disconnectApmBIOS : (void) int
   183                                  ; glb cpuIdleBIOS : (void) void
   184                                  ; glb cpuBusyBIOS : (void) void
   185                                  ; glb pos_t : struct <something>
   186                                  ; RPN'ized expression: "50 "
   187                                  ; Expanded expression: "50 "
   188                                  ; Expression value: 50
   189                                  ; RPN'ized expression: "80 "
   190                                  ; Expanded expression: "80 "
   191                                  ; Expression value: 80
   192                                  ; glb pantalla_t : union <something>
   193                                  ; glb tamPantalla : (
   194                                  ; prm     numFilas : unsigned char
   195                                  ;     ) unsigned short
   196                                  ; glb pantallazo : (
   197                                  ; prm     pantalla : * union <something>
   198                                  ; prm     numFilas : unsigned short
   199                                  ; prm     car : char
   200                                  ; prm     atr : char
   201                                  ; prm     esqSupDeF : unsigned char
   202                                  ; prm     esqSupDeC : unsigned char
   203                                  ; prm     esqInfIzF : unsigned char
   204                                  ; prm     esqInfIzC : unsigned char
   205                                  ;     ) void
   206                                  ; glb borrarPantalla : (
   207                                  ; prm     pantalla : * union <something>
   208                                  ; prm     numFilas : unsigned short
   209                                  ;     ) void
   210                                  ; glb borrarCPantalla : (
   211                                  ; prm     pantalla : * union <something>
   212                                  ; prm     numFilas : unsigned short
   213                                  ;     ) void
   214                                  ; glb copiarPantalla : (
   215                                  ; prm     p1 : * union <something>
   216                                  ; prm     p2 : * union <something>
   217                                  ; prm     numFilas : unsigned short
   218                                  ;     ) void
   219                                  ; glb copiarCPantalla : (
   220                                  ; prm     p1 : * union <something>
   221                                  ; prm     p2 : * union <something>
   222                                  ; prm     numFilas : unsigned short
   223                                  ;     ) void
   224                                  ; glb scrollPantalla : (
   225                                  ; prm     pantalla : * union <something>
   226                                  ; prm     numFilas : unsigned short
   227                                  ;     ) void
   228                                  ; glb scrollCPantalla : (
   229                                  ; prm     pantalla : * union <something>
   230                                  ; prm     numFilas : unsigned short
   231                                  ;     ) void
   232                                  ; RPN'ized expression: "4 "
   233                                  ; Expanded expression: "4 "
   234                                  ; Expression value: 4
   235                                  ; RPN'ized expression: "7 "
   236                                  ; Expanded expression: "7 "
   237                                  ; Expression value: 7
   238                                  ; RPN'ized expression: "10 "
   239                                  ; Expanded expression: "10 "
   240                                  ; Expression value: 10
   241                                  ; RPN'ized expression: "48 "
   242                                  ; Expanded expression: "48 "
   243                                  ; Expression value: 48
   244                                  ; glb tipoAdaptador_t : int
   245                                  ; RPN'ized expression: "8 "
   246                                  ; Expanded expression: "8 "
   247                                  ; Expression value: 8
   248                                  ; RPN'ized expression: "14 "
   249                                  ; Expanded expression: "14 "
   250                                  ; Expression value: 14
   251                                  ; glb fontSize_t : int
   252                                  ; glb numFilas : unsigned char
   253                                  ; glb numColumnas : unsigned char
   254                                  ; glb ptrPant : * union <something>
   255                                  ; glb tipoAdaptador : int
   256                                  ; glb redimensionable : int
   257                                  ; glb fontSize : unsigned char
   258                                  ; glb visibilidad : unsigned char
   259                                  ; glb inicBiosCrt : (void) void
   260                                  ; glb finBiosCrt : (void) void
   261                                  ; glb getFontSize : (void) int
   262                                  ; glb getFilas : (void) unsigned char
   263                                  ; glb comprobarAdaptador : (
   264                                  ; prm     tipoAdaptador : int
   265                                  ;     ) int
   266                                  ; glb tipoDeAdaptador : (void) int
   267                                  ; glb setCursorVisibilidad : (
   268                                  ; prm     valorDeVisibilidad : int
   269                                  ;     ) unsigned char
   270                                  ; glb setFontSize : (
   271                                  ; prm     size : int
   272                                  ;     ) void
   273                                  ; glb set25x80 : (void) void
   274                                  ; glb redimensionar : (
   275                                  ; prm     nFilas : unsigned char
   276                                  ; prm     nCols : unsigned char
   277                                  ;     ) void
   278                                  ; glb cursorF : unsigned char
   279                                  section .bss
   280                                  	global	_cursorF
   281                                  _cursorF:
   282 00000000 <res 00000001>          	resb	1
   283                                  
   284                                  ; glb cursorC : unsigned char
   285                                  section .bss
   286                                  	global	_cursorC
   287                                  _cursorC:
   288 00000001 <res 00000001>          	resb	1
   289                                  
   290                                  ; glb inicMemVideo : (void) void
   291                                  section .text
   292                                  	global	_inicMemVideo
   293                                  _inicMemVideo:
   294 00000000 6655                    	push	ebp
   295 00000002 660FB7EC                	movzx	ebp, sp
   296                                  	;sub	sp,          0
   297                                  ; RPN'ized expression: "( inicBiosCrt ) "
   298                                  ; Expanded expression: " inicBiosCrt ()0 "
   299                                  ; Fused expression:    "( inicBiosCrt )0 "
   300 00000006 9A                      	db	0x9A
   301                                  section .relot
   302 00000000 [07000000]              	dd	L3
   303                                  section .text
   304                                  L3:
   305 00000007 [00000000]              	dd	_inicBiosCrt
   306                                  L1:
   307 0000000B 66                      	db	0x66
   308 0000000C C9                      	leave
   309 0000000D CB                      	retf
   310                                  L4:
   311                                  
   312                                  section .fxnsz noalloc
   313 00000000 0E000000                	dd	L4 - _inicMemVideo
   314                                  
   315                                  ; glb finMemVideo : (void) int
   316                                  section .text
   317                                  	global	_finMemVideo
   318                                  _finMemVideo:
   319 0000000E 6655                    	push	ebp
   320 00000010 660FB7EC                	movzx	ebp, sp
   321                                  	;sub	sp,          0
   322                                  ; return
   323                                  ; RPN'ized expression: "0 "
   324                                  ; Expanded expression: "0 "
   325                                  ; Expression value: 0
   326                                  ; Fused expression:    "0  "
   327 00000014 66B800000000            	mov	eax, 0
   328                                  L5:
   329 0000001A 66                      	db	0x66
   330 0000001B C9                      	leave
   331 0000001C CB                      	retf
   332                                  L7:
   333                                  
   334                                  section .fxnsz
   335 00000004 0F000000                	dd	L7 - _finMemVideo
   336                                  
   337                                  ; glb goToXYVideo : (
   338                                  ; prm     F : unsigned char
   339                                  ; prm     C : unsigned char
   340                                  ;     ) void
   341                                  section .text
   342                                  	global	_goToXYVideo
   343                                  _goToXYVideo:
   344 0000001D 6655                    	push	ebp
   345 0000001F 660FB7EC                	movzx	ebp, sp
   346                                  	;sub	sp,          0
   347                                  ; loc     F : (@8): unsigned char
   348                                  ; loc     C : (@12): unsigned char
   349                                  ; RPN'ized expression: "cursorF F = "
   350                                  ; Expanded expression: "cursorF (@8) *(1) =(1) "
   351                                  ; Fused expression:    "cursorF =(153) *ax *(@8) "
   352                                  section .relod
   353 00000000 [25000000]              	dd	L10
   354                                  section .text
   355 00000023 66B8                    	db	0x66, 0xB8
   356                                  L10:
   357 00000025 [00000000]              	dd	_cursorF
   358 00000029 6689C3                  	mov	ebx, eax
   359 0000002C 8A4608                  	mov	al, [bp+8]
   360 0000002F 660FB6C0                	movzx	eax, al
   361 00000033 6689DE                  	mov	esi, ebx
   362 00000036 66C1CE04                	ror	esi, 4
   363 0000003A 8EDE                    	mov	ds, si
   364 0000003C 66C1EE1C                	shr	esi, 28
   365 00000040 8804                    	mov	[si], al
   366 00000042 660FB6C0                	movzx	eax, al
   367                                  ; RPN'ized expression: "cursorC C = "
   368                                  ; Expanded expression: "cursorC (@12) *(1) =(1) "
   369                                  ; Fused expression:    "cursorC =(153) *ax *(@12) "
   370                                  section .relod
   371 00000004 [48000000]              	dd	L11
   372                                  section .text
   373 00000046 66B8                    	db	0x66, 0xB8
   374                                  L11:
   375 00000048 [01000000]              	dd	_cursorC
   376 0000004C 6689C3                  	mov	ebx, eax
   377 0000004F 8A460C                  	mov	al, [bp+12]
   378 00000052 660FB6C0                	movzx	eax, al
   379 00000056 6689DE                  	mov	esi, ebx
   380 00000059 66C1CE04                	ror	esi, 4
   381 0000005D 8EDE                    	mov	ds, si
   382 0000005F 66C1EE1C                	shr	esi, 28
   383 00000063 8804                    	mov	[si], al
   384 00000065 660FB6C0                	movzx	eax, al
   385                                  L8:
   386 00000069 66                      	db	0x66
   387 0000006A C9                      	leave
   388 0000006B CB                      	retf
   389                                  L12:
   390                                  
   391                                  section .fxnsz
   392 00000008 4F000000                	dd	L12 - _goToXYVideo
   393                                  
   394                                  ; glb printCarVideo : (
   395                                  ; prm     car : char
   396                                  ;     ) int
   397                                  section .text
   398                                  	global	_printCarVideo
   399                                  _printCarVideo:
   400 0000006C 6655                    	push	ebp
   401 0000006E 660FB7EC                	movzx	ebp, sp
   402                                  	;sub	sp,          0
   403                                  ; loc     car : (@8): char
   404                                  ; switch
   405                                  ; RPN'ized expression: "car "
   406                                  ; Expanded expression: "(@8) *(-1) "
   407                                  ; Fused expression:    "*(-1) (@8)  "
   408 00000072 8A4608                  	mov	al, [bp+8]
   409 00000075 660FBEC0                	movsx	eax, al
   410 00000079 E9F703                  	jmp	L16
   411                                  ; {
   412                                  ; case
   413                                  ; RPN'ized expression: "12 "
   414                                  ; Expanded expression: "12 "
   415                                  ; Expression value: 12
   416                                  L17:
   417                                  ; RPN'ized expression: "( numFilas , ptrPant borrarCPantalla ) "
   418                                  ; Expanded expression: " numFilas *(1)  ptrPant *(4)  borrarCPantalla ()8 "
   419                                  ; Fused expression:    "( numFilas *(1) ax , ptrPant *(4) ax , borrarCPantalla )8 "
   420                                  section .relod
   421 00000008 [7E000000]              	dd	L18
   422                                  section .text
   423 0000007C 66B8                    	db	0x66, 0xB8
   424                                  L18:
   425 0000007E [00000000]              	dd	_numFilas
   426 00000082 6689C3                  	mov	ebx, eax
   427 00000085 6689DE                  	mov	esi, ebx
   428 00000088 66C1CE04                	ror	esi, 4
   429 0000008C 8EDE                    	mov	ds, si
   430 0000008E 66C1EE1C                	shr	esi, 28
   431 00000092 8A04                    	mov	al, [si]
   432 00000094 660FB6C0                	movzx	eax, al
   433 00000098 6650                    	push	eax
   434                                  section .relod
   435 0000000C [9C000000]              	dd	L19
   436                                  section .text
   437 0000009A 66B8                    	db	0x66, 0xB8
   438                                  L19:
   439 0000009C [00000000]              	dd	_ptrPant
   440 000000A0 6689C3                  	mov	ebx, eax
   441 000000A3 6689DE                  	mov	esi, ebx
   442 000000A6 66C1CE04                	ror	esi, 4
   443 000000AA 8EDE                    	mov	ds, si
   444 000000AC 66C1EE1C                	shr	esi, 28
   445 000000B0 66FF34                  	push	dword [si]
   446 000000B3 9A                      	db	0x9A
   447                                  section .relot
   448 00000004 [B4000000]              	dd	L20
   449                                  section .text
   450                                  L20:
   451 000000B4 [00000000]              	dd	_borrarCPantalla
   452 000000B8 83ECF8                  	sub	sp, -8
   453                                  ; RPN'ized expression: "cursorF 0 = "
   454                                  ; Expanded expression: "cursorF 0 =(1) "
   455                                  ; Fused expression:    "cursorF =(156) *ax 0 "
   456                                  section .relod
   457 00000010 [BD000000]              	dd	L21
   458                                  section .text
   459 000000BB 66B8                    	db	0x66, 0xB8
   460                                  L21:
   461 000000BD [00000000]              	dd	_cursorF
   462 000000C1 6689C3                  	mov	ebx, eax
   463 000000C4 66B800000000            	mov	eax, 0
   464 000000CA 6689DE                  	mov	esi, ebx
   465 000000CD 66C1CE04                	ror	esi, 4
   466 000000D1 8EDE                    	mov	ds, si
   467 000000D3 66C1EE1C                	shr	esi, 28
   468 000000D7 8804                    	mov	[si], al
   469 000000D9 660FB6C0                	movzx	eax, al
   470                                  ; RPN'ized expression: "cursorC 0 = "
   471                                  ; Expanded expression: "cursorC 0 =(1) "
   472                                  ; Fused expression:    "cursorC =(156) *ax 0 "
   473                                  section .relod
   474 00000014 [DF000000]              	dd	L22
   475                                  section .text
   476 000000DD 66B8                    	db	0x66, 0xB8
   477                                  L22:
   478 000000DF [01000000]              	dd	_cursorC
   479 000000E3 6689C3                  	mov	ebx, eax
   480 000000E6 66B800000000            	mov	eax, 0
   481 000000EC 6689DE                  	mov	esi, ebx
   482 000000EF 66C1CE04                	ror	esi, 4
   483 000000F3 8EDE                    	mov	ds, si
   484 000000F5 66C1EE1C                	shr	esi, 28
   485 000000F9 8804                    	mov	[si], al
   486 000000FB 660FB6C0                	movzx	eax, al
   487                                  ; break
   488 000000FF E9A403                  	jmp	L15
   489                                  ; case
   490                                  ; RPN'ized expression: "13 "
   491                                  ; Expanded expression: "13 "
   492                                  ; Expression value: 13
   493                                  L23:
   494                                  ; RPN'ized expression: "cursorC 0 = "
   495                                  ; Expanded expression: "cursorC 0 =(1) "
   496                                  ; Fused expression:    "cursorC =(156) *ax 0 "
   497                                  section .relod
   498 00000018 [04010000]              	dd	L24
   499                                  section .text
   500 00000102 66B8                    	db	0x66, 0xB8
   501                                  L24:
   502 00000104 [01000000]              	dd	_cursorC
   503 00000108 6689C3                  	mov	ebx, eax
   504 0000010B 66B800000000            	mov	eax, 0
   505 00000111 6689DE                  	mov	esi, ebx
   506 00000114 66C1CE04                	ror	esi, 4
   507 00000118 8EDE                    	mov	ds, si
   508 0000011A 66C1EE1C                	shr	esi, 28
   509 0000011E 8804                    	mov	[si], al
   510 00000120 660FB6C0                	movzx	eax, al
   511                                  ; break
   512 00000124 E97F03                  	jmp	L15
   513                                  ; case
   514                                  ; RPN'ized expression: "10 "
   515                                  ; Expanded expression: "10 "
   516                                  ; Expression value: 10
   517                                  L25:
   518                                  ; if
   519                                  ; RPN'ized expression: "cursorF ++ numFilas == "
   520                                  ; Expanded expression: "cursorF ++(1) numFilas *(1) == "
   521                                  ; Fused expression:    "cursorF ++(1) *ax push-ax numFilas == *sp *ax IF! "
   522                                  section .relod
   523 0000001C [29010000]              	dd	L28
   524                                  section .text
   525 00000127 66B8                    	db	0x66, 0xB8
   526                                  L28:
   527 00000129 [00000000]              	dd	_cursorF
   528 0000012D 6689C3                  	mov	ebx, eax
   529 00000130 6689DE                  	mov	esi, ebx
   530 00000133 66C1CE04                	ror	esi, 4
   531 00000137 8EDE                    	mov	ds, si
   532 00000139 66C1EE1C                	shr	esi, 28
   533 0000013D FE04                    	inc	byte [si]
   534 0000013F 8A04                    	mov	al, [si]
   535 00000141 660FB6C0                	movzx	eax, al
   536 00000145 6650                    	push	eax
   537                                  section .relod
   538 00000020 [49010000]              	dd	L29
   539                                  section .text
   540 00000147 66B8                    	db	0x66, 0xB8
   541                                  L29:
   542 00000149 [00000000]              	dd	_numFilas
   543 0000014D 6689C3                  	mov	ebx, eax
   544 00000150 6689DE                  	mov	esi, ebx
   545 00000153 66C1CE04                	ror	esi, 4
   546 00000157 8EDE                    	mov	ds, si
   547 00000159 66C1EE1C                	shr	esi, 28
   548 0000015D 660FB60C                	movzx	ecx, byte [si]
   549 00000161 6658                    	pop	eax
   550 00000163 6639C8                  	cmp	eax, ecx
   551 00000166 757A                    	jne	L26
   552                                  ; {
   553                                  ; RPN'ized expression: "( numFilas , ptrPant scrollCPantalla ) "
   554                                  ; Expanded expression: " numFilas *(1)  ptrPant *(4)  scrollCPantalla ()8 "
   555                                  ; Fused expression:    "( numFilas *(1) ax , ptrPant *(4) ax , scrollCPantalla )8 "
   556                                  section .relod
   557 00000024 [6A010000]              	dd	L30
   558                                  section .text
   559 00000168 66B8                    	db	0x66, 0xB8
   560                                  L30:
   561 0000016A [00000000]              	dd	_numFilas
   562 0000016E 6689C3                  	mov	ebx, eax
   563 00000171 6689DE                  	mov	esi, ebx
   564 00000174 66C1CE04                	ror	esi, 4
   565 00000178 8EDE                    	mov	ds, si
   566 0000017A 66C1EE1C                	shr	esi, 28
   567 0000017E 8A04                    	mov	al, [si]
   568 00000180 660FB6C0                	movzx	eax, al
   569 00000184 6650                    	push	eax
   570                                  section .relod
   571 00000028 [88010000]              	dd	L31
   572                                  section .text
   573 00000186 66B8                    	db	0x66, 0xB8
   574                                  L31:
   575 00000188 [00000000]              	dd	_ptrPant
   576 0000018C 6689C3                  	mov	ebx, eax
   577 0000018F 6689DE                  	mov	esi, ebx
   578 00000192 66C1CE04                	ror	esi, 4
   579 00000196 8EDE                    	mov	ds, si
   580 00000198 66C1EE1C                	shr	esi, 28
   581 0000019C 66FF34                  	push	dword [si]
   582 0000019F 9A                      	db	0x9A
   583                                  section .relot
   584 00000008 [A0010000]              	dd	L32
   585                                  section .text
   586                                  L32:
   587 000001A0 [00000000]              	dd	_scrollCPantalla
   588 000001A4 83ECF8                  	sub	sp, -8
   589                                  ; RPN'ized expression: "cursorF numFilas 1 - = "
   590                                  ; Expanded expression: "cursorF numFilas *(1) 1 - =(1) "
   591                                  ; Fused expression:    "cursorF push-ax numFilas - *ax 1 =(156) **sp ax "
   592                                  section .relod
   593 0000002C [A9010000]              	dd	L33
   594                                  section .text
   595 000001A7 66B8                    	db	0x66, 0xB8
   596                                  L33:
   597 000001A9 [00000000]              	dd	_cursorF
   598 000001AD 6650                    	push	eax
   599                                  section .relod
   600 00000030 [B1010000]              	dd	L34
   601                                  section .text
   602 000001AF 66B8                    	db	0x66, 0xB8
   603                                  L34:
   604 000001B1 [00000000]              	dd	_numFilas
   605 000001B5 6689C3                  	mov	ebx, eax
   606 000001B8 6689DE                  	mov	esi, ebx
   607 000001BB 66C1CE04                	ror	esi, 4
   608 000001BF 8EDE                    	mov	ds, si
   609 000001C1 66C1EE1C                	shr	esi, 28
   610 000001C5 8A04                    	mov	al, [si]
   611 000001C7 660FB6C0                	movzx	eax, al
   612 000001CB 6648                    	dec	eax
   613 000001CD 665B                    	pop	ebx
   614 000001CF 6689DE                  	mov	esi, ebx
   615 000001D2 66C1CE04                	ror	esi, 4
   616 000001D6 8EDE                    	mov	ds, si
   617 000001D8 66C1EE1C                	shr	esi, 28
   618 000001DC 8804                    	mov	[si], al
   619 000001DE 660FB6C0                	movzx	eax, al
   620                                  ; }
   621                                  L26:
   622                                  ; break
   623 000001E2 E9C102                  	jmp	L15
   624                                  ; case
   625                                  ; RPN'ized expression: "8 "
   626                                  ; Expanded expression: "8 "
   627                                  ; Expression value: 8
   628                                  L35:
   629                                  ; if
   630                                  ; RPN'ized expression: "cursorC 0 > "
   631                                  ; Expanded expression: "cursorC *(1) 0 > "
   632                                  ; Fused expression:    "cursorC > *ax 0 IF! "
   633                                  section .relod
   634 00000034 [E7010000]              	dd	L38
   635                                  section .text
   636 000001E5 66B8                    	db	0x66, 0xB8
   637                                  L38:
   638 000001E7 [01000000]              	dd	_cursorC
   639 000001EB 6689C3                  	mov	ebx, eax
   640 000001EE 6689DE                  	mov	esi, ebx
   641 000001F1 66C1CE04                	ror	esi, 4
   642 000001F5 8EDE                    	mov	ds, si
   643 000001F7 66C1EE1C                	shr	esi, 28
   644 000001FB 8A04                    	mov	al, [si]
   645 000001FD 660FB6C0                	movzx	eax, al
   646 00000201 6683F800                	cmp	eax, 0
   647 00000205 0F8EAC00                	jle	L36
   648                                  ; {
   649                                  ; RPN'ized expression: "cursorC --p "
   650                                  ; Expanded expression: "cursorC --p(1) "
   651                                  ; Fused expression:    "cursorC --p(1) *ax "
   652                                  section .relod
   653 00000038 [0B020000]              	dd	L39
   654                                  section .text
   655 00000209 66B8                    	db	0x66, 0xB8
   656                                  L39:
   657 0000020B [01000000]              	dd	_cursorC
   658 0000020F 6689C3                  	mov	ebx, eax
   659 00000212 6689DE                  	mov	esi, ebx
   660 00000215 66C1CE04                	ror	esi, 4
   661 00000219 8EDE                    	mov	ds, si
   662 0000021B 66C1EE1C                	shr	esi, 28
   663 0000021F 8A04                    	mov	al, [si]
   664 00000221 660FB6C0                	movzx	eax, al
   665 00000225 FE0C                    	dec	byte [si]
   666                                  ; RPN'ized expression: "ptrPant t -> *u cursorF + *u cursorC + *u &u car -> *u 32 = "
   667                                  ; Expanded expression: "ptrPant *(4) 0 + cursorF *(1) 160 * + cursorC *(1) 2 * + 0 + 32 =(1) "
   668                                  ; Fused expression:    "ptrPant + *ax 0 push-ax cursorF * *ax 160 + *sp ax push-ax cursorC * *ax 2 + *sp ax + ax 0 =(156) *ax 32 "
   669                                  section .relod
   670 0000003C [29020000]              	dd	L40
   671                                  section .text
   672 00000227 66B8                    	db	0x66, 0xB8
   673                                  L40:
   674 00000229 [00000000]              	dd	_ptrPant
   675 0000022D 6689C3                  	mov	ebx, eax
   676 00000230 6689DE                  	mov	esi, ebx
   677 00000233 66C1CE04                	ror	esi, 4
   678 00000237 8EDE                    	mov	ds, si
   679 00000239 66C1EE1C                	shr	esi, 28
   680 0000023D 668B04                  	mov	eax, [si]
   681 00000240 6650                    	push	eax
   682                                  section .relod
   683 00000040 [44020000]              	dd	L41
   684                                  section .text
   685 00000242 66B8                    	db	0x66, 0xB8
   686                                  L41:
   687 00000244 [00000000]              	dd	_cursorF
   688 00000248 6689C3                  	mov	ebx, eax
   689 0000024B 6689DE                  	mov	esi, ebx
   690 0000024E 66C1CE04                	ror	esi, 4
   691 00000252 8EDE                    	mov	ds, si
   692 00000254 66C1EE1C                	shr	esi, 28
   693 00000258 8A04                    	mov	al, [si]
   694 0000025A 660FB6C0                	movzx	eax, al
   695 0000025E 6669C0A0000000          	imul	eax, eax, 160
   696 00000265 6689C1                  	mov	ecx, eax
   697 00000268 6658                    	pop	eax
   698 0000026A 6601C8                  	add	eax, ecx
   699 0000026D 6650                    	push	eax
   700                                  section .relod
   701 00000044 [71020000]              	dd	L42
   702                                  section .text
   703 0000026F 66B8                    	db	0x66, 0xB8
   704                                  L42:
   705 00000271 [01000000]              	dd	_cursorC
   706 00000275 6689C3                  	mov	ebx, eax
   707 00000278 6689DE                  	mov	esi, ebx
   708 0000027B 66C1CE04                	ror	esi, 4
   709 0000027F 8EDE                    	mov	ds, si
   710 00000281 66C1EE1C                	shr	esi, 28
   711 00000285 8A04                    	mov	al, [si]
   712 00000287 660FB6C0                	movzx	eax, al
   713 0000028B 666BC002                	imul	eax, eax, 2
   714 0000028F 6689C1                  	mov	ecx, eax
   715 00000292 6658                    	pop	eax
   716 00000294 6601C8                  	add	eax, ecx
   717 00000297 6689C3                  	mov	ebx, eax
   718 0000029A 66B820000000            	mov	eax, 32
   719 000002A0 6689DE                  	mov	esi, ebx
   720 000002A3 66C1CE04                	ror	esi, 4
   721 000002A7 8EDE                    	mov	ds, si
   722 000002A9 66C1EE1C                	shr	esi, 28
   723 000002AD 8804                    	mov	[si], al
   724 000002AF 660FB6C0                	movzx	eax, al
   725                                  ; }
   726 000002B3 EB0B                    	jmp	L37
   727                                  L36:
   728                                  ; else
   729                                  ; RPN'ized expression: "( 7 printCarBIOS ) "
   730                                  ; Expanded expression: " 7  printCarBIOS ()4 "
   731                                  ; Fused expression:    "( 7 , printCarBIOS )4 "
   732 000002B5 666A07                  	push	dword 7
   733 000002B8 9A                      	db	0x9A
   734                                  section .relot
   735 0000000C [B9020000]              	dd	L43
   736                                  section .text
   737                                  L43:
   738 000002B9 [00000000]              	dd	_printCarBIOS
   739 000002BD 83ECFC                  	sub	sp, -4
   740                                  L37:
   741                                  ; break
   742 000002C0 E9E301                  	jmp	L15
   743                                  ; case
   744                                  ; RPN'ized expression: "9 "
   745                                  ; Expanded expression: "9 "
   746                                  ; Expression value: 9
   747                                  L44:
   748                                  ; RPN'ized expression: "car 32 = "
   749                                  ; Expanded expression: "(@8) 32 =(-1) "
   750                                  ; Fused expression:    "=(124) *(@8) 32 "
   751 000002C3 66B820000000            	mov	eax, 32
   752 000002C9 884608                  	mov	[bp+8], al
   753 000002CC 660FBEC0                	movsx	eax, al
   754                                  ; break
   755 000002D0 E9D301                  	jmp	L15
   756                                  ; case
   757                                  ; RPN'ized expression: "7 "
   758                                  ; Expanded expression: "7 "
   759                                  ; Expression value: 7
   760                                  L45:
   761                                  ; RPN'ized expression: "( 7 printCarBIOS ) "
   762                                  ; Expanded expression: " 7  printCarBIOS ()4 "
   763                                  ; Fused expression:    "( 7 , printCarBIOS )4 "
   764 000002D3 666A07                  	push	dword 7
   765 000002D6 9A                      	db	0x9A
   766                                  section .relot
   767 00000010 [D7020000]              	dd	L46
   768                                  section .text
   769                                  L46:
   770 000002D7 [00000000]              	dd	_printCarBIOS
   771 000002DB 83ECFC                  	sub	sp, -4
   772                                  ; break
   773 000002DE E9C501                  	jmp	L15
   774                                  ; default
   775                                  L47:
   776                                  ; RPN'ized expression: "ptrPant t -> *u cursorF + *u cursorC + *u &u car -> *u car = "
   777                                  ; Expanded expression: "ptrPant *(4) 0 + cursorF *(1) 160 * + cursorC *(1) 2 * + 0 + (@8) *(-1) =(1) "
   778                                  ; Fused expression:    "ptrPant + *ax 0 push-ax cursorF * *ax 160 + *sp ax push-ax cursorC * *ax 2 + *sp ax + ax 0 =(151) *ax *(@8) "
   779                                  section .relod
   780 00000048 [E3020000]              	dd	L48
   781                                  section .text
   782 000002E1 66B8                    	db	0x66, 0xB8
   783                                  L48:
   784 000002E3 [00000000]              	dd	_ptrPant
   785 000002E7 6689C3                  	mov	ebx, eax
   786 000002EA 6689DE                  	mov	esi, ebx
   787 000002ED 66C1CE04                	ror	esi, 4
   788 000002F1 8EDE                    	mov	ds, si
   789 000002F3 66C1EE1C                	shr	esi, 28
   790 000002F7 668B04                  	mov	eax, [si]
   791 000002FA 6650                    	push	eax
   792                                  section .relod
   793 0000004C [FE020000]              	dd	L49
   794                                  section .text
   795 000002FC 66B8                    	db	0x66, 0xB8
   796                                  L49:
   797 000002FE [00000000]              	dd	_cursorF
   798 00000302 6689C3                  	mov	ebx, eax
   799 00000305 6689DE                  	mov	esi, ebx
   800 00000308 66C1CE04                	ror	esi, 4
   801 0000030C 8EDE                    	mov	ds, si
   802 0000030E 66C1EE1C                	shr	esi, 28
   803 00000312 8A04                    	mov	al, [si]
   804 00000314 660FB6C0                	movzx	eax, al
   805 00000318 6669C0A0000000          	imul	eax, eax, 160
   806 0000031F 6689C1                  	mov	ecx, eax
   807 00000322 6658                    	pop	eax
   808 00000324 6601C8                  	add	eax, ecx
   809 00000327 6650                    	push	eax
   810                                  section .relod
   811 00000050 [2B030000]              	dd	L50
   812                                  section .text
   813 00000329 66B8                    	db	0x66, 0xB8
   814                                  L50:
   815 0000032B [01000000]              	dd	_cursorC
   816 0000032F 6689C3                  	mov	ebx, eax
   817 00000332 6689DE                  	mov	esi, ebx
   818 00000335 66C1CE04                	ror	esi, 4
   819 00000339 8EDE                    	mov	ds, si
   820 0000033B 66C1EE1C                	shr	esi, 28
   821 0000033F 8A04                    	mov	al, [si]
   822 00000341 660FB6C0                	movzx	eax, al
   823 00000345 666BC002                	imul	eax, eax, 2
   824 00000349 6689C1                  	mov	ecx, eax
   825 0000034C 6658                    	pop	eax
   826 0000034E 6601C8                  	add	eax, ecx
   827 00000351 6689C3                  	mov	ebx, eax
   828 00000354 8A4608                  	mov	al, [bp+8]
   829 00000357 660FBEC0                	movsx	eax, al
   830 0000035B 6689DE                  	mov	esi, ebx
   831 0000035E 66C1CE04                	ror	esi, 4
   832 00000362 8EDE                    	mov	ds, si
   833 00000364 66C1EE1C                	shr	esi, 28
   834 00000368 8804                    	mov	[si], al
   835 0000036A 660FB6C0                	movzx	eax, al
   836                                  ; if
   837                                  ; RPN'ized expression: "cursorC ++ 80 == "
   838                                  ; Expanded expression: "cursorC ++(1) 80 == "
   839                                  ; Fused expression:    "cursorC ++(1) *ax == ax 80 IF! "
   840                                  section .relod
   841 00000054 [70030000]              	dd	L53
   842                                  section .text
   843 0000036E 66B8                    	db	0x66, 0xB8
   844                                  L53:
   845 00000370 [01000000]              	dd	_cursorC
   846 00000374 6689C3                  	mov	ebx, eax
   847 00000377 6689DE                  	mov	esi, ebx
   848 0000037A 66C1CE04                	ror	esi, 4
   849 0000037E 8EDE                    	mov	ds, si
   850 00000380 66C1EE1C                	shr	esi, 28
   851 00000384 FE04                    	inc	byte [si]
   852 00000386 8A04                    	mov	al, [si]
   853 00000388 660FB6C0                	movzx	eax, al
   854 0000038C 6683F850                	cmp	eax, 80
   855 00000390 0F85DD00                	jne	L51
   856                                  ; {
   857                                  ; RPN'ized expression: "cursorC 0 = "
   858                                  ; Expanded expression: "cursorC 0 =(1) "
   859                                  ; Fused expression:    "cursorC =(156) *ax 0 "
   860                                  section .relod
   861 00000058 [96030000]              	dd	L54
   862                                  section .text
   863 00000394 66B8                    	db	0x66, 0xB8
   864                                  L54:
   865 00000396 [01000000]              	dd	_cursorC
   866 0000039A 6689C3                  	mov	ebx, eax
   867 0000039D 66B800000000            	mov	eax, 0
   868 000003A3 6689DE                  	mov	esi, ebx
   869 000003A6 66C1CE04                	ror	esi, 4
   870 000003AA 8EDE                    	mov	ds, si
   871 000003AC 66C1EE1C                	shr	esi, 28
   872 000003B0 8804                    	mov	[si], al
   873 000003B2 660FB6C0                	movzx	eax, al
   874                                  ; if
   875                                  ; RPN'ized expression: "cursorF ++ numFilas == "
   876                                  ; Expanded expression: "cursorF ++(1) numFilas *(1) == "
   877                                  ; Fused expression:    "cursorF ++(1) *ax push-ax numFilas == *sp *ax IF! "
   878                                  section .relod
   879 0000005C [B8030000]              	dd	L57
   880                                  section .text
   881 000003B6 66B8                    	db	0x66, 0xB8
   882                                  L57:
   883 000003B8 [00000000]              	dd	_cursorF
   884 000003BC 6689C3                  	mov	ebx, eax
   885 000003BF 6689DE                  	mov	esi, ebx
   886 000003C2 66C1CE04                	ror	esi, 4
   887 000003C6 8EDE                    	mov	ds, si
   888 000003C8 66C1EE1C                	shr	esi, 28
   889 000003CC FE04                    	inc	byte [si]
   890 000003CE 8A04                    	mov	al, [si]
   891 000003D0 660FB6C0                	movzx	eax, al
   892 000003D4 6650                    	push	eax
   893                                  section .relod
   894 00000060 [D8030000]              	dd	L58
   895                                  section .text
   896 000003D6 66B8                    	db	0x66, 0xB8
   897                                  L58:
   898 000003D8 [00000000]              	dd	_numFilas
   899 000003DC 6689C3                  	mov	ebx, eax
   900 000003DF 6689DE                  	mov	esi, ebx
   901 000003E2 66C1CE04                	ror	esi, 4
   902 000003E6 8EDE                    	mov	ds, si
   903 000003E8 66C1EE1C                	shr	esi, 28
   904 000003EC 660FB60C                	movzx	ecx, byte [si]
   905 000003F0 6658                    	pop	eax
   906 000003F2 6639C8                  	cmp	eax, ecx
   907 000003F5 757A                    	jne	L55
   908                                  ; {
   909                                  ; RPN'ized expression: "( numFilas , ptrPant scrollCPantalla ) "
   910                                  ; Expanded expression: " numFilas *(1)  ptrPant *(4)  scrollCPantalla ()8 "
   911                                  ; Fused expression:    "( numFilas *(1) ax , ptrPant *(4) ax , scrollCPantalla )8 "
   912                                  section .relod
   913 00000064 [F9030000]              	dd	L59
   914                                  section .text
   915 000003F7 66B8                    	db	0x66, 0xB8
   916                                  L59:
   917 000003F9 [00000000]              	dd	_numFilas
   918 000003FD 6689C3                  	mov	ebx, eax
   919 00000400 6689DE                  	mov	esi, ebx
   920 00000403 66C1CE04                	ror	esi, 4
   921 00000407 8EDE                    	mov	ds, si
   922 00000409 66C1EE1C                	shr	esi, 28
   923 0000040D 8A04                    	mov	al, [si]
   924 0000040F 660FB6C0                	movzx	eax, al
   925 00000413 6650                    	push	eax
   926                                  section .relod
   927 00000068 [17040000]              	dd	L60
   928                                  section .text
   929 00000415 66B8                    	db	0x66, 0xB8
   930                                  L60:
   931 00000417 [00000000]              	dd	_ptrPant
   932 0000041B 6689C3                  	mov	ebx, eax
   933 0000041E 6689DE                  	mov	esi, ebx
   934 00000421 66C1CE04                	ror	esi, 4
   935 00000425 8EDE                    	mov	ds, si
   936 00000427 66C1EE1C                	shr	esi, 28
   937 0000042B 66FF34                  	push	dword [si]
   938 0000042E 9A                      	db	0x9A
   939                                  section .relot
   940 00000014 [2F040000]              	dd	L61
   941                                  section .text
   942                                  L61:
   943 0000042F [00000000]              	dd	_scrollCPantalla
   944 00000433 83ECF8                  	sub	sp, -8
   945                                  ; RPN'ized expression: "cursorF numFilas 1 - = "
   946                                  ; Expanded expression: "cursorF numFilas *(1) 1 - =(1) "
   947                                  ; Fused expression:    "cursorF push-ax numFilas - *ax 1 =(156) **sp ax "
   948                                  section .relod
   949 0000006C [38040000]              	dd	L62
   950                                  section .text
   951 00000436 66B8                    	db	0x66, 0xB8
   952                                  L62:
   953 00000438 [00000000]              	dd	_cursorF
   954 0000043C 6650                    	push	eax
   955                                  section .relod
   956 00000070 [40040000]              	dd	L63
   957                                  section .text
   958 0000043E 66B8                    	db	0x66, 0xB8
   959                                  L63:
   960 00000440 [00000000]              	dd	_numFilas
   961 00000444 6689C3                  	mov	ebx, eax
   962 00000447 6689DE                  	mov	esi, ebx
   963 0000044A 66C1CE04                	ror	esi, 4
   964 0000044E 8EDE                    	mov	ds, si
   965 00000450 66C1EE1C                	shr	esi, 28
   966 00000454 8A04                    	mov	al, [si]
   967 00000456 660FB6C0                	movzx	eax, al
   968 0000045A 6648                    	dec	eax
   969 0000045C 665B                    	pop	ebx
   970 0000045E 6689DE                  	mov	esi, ebx
   971 00000461 66C1CE04                	ror	esi, 4
   972 00000465 8EDE                    	mov	ds, si
   973 00000467 66C1EE1C                	shr	esi, 28
   974 0000046B 8804                    	mov	[si], al
   975 0000046D 660FB6C0                	movzx	eax, al
   976                                  ; }
   977                                  L55:
   978                                  ; }
   979                                  L51:
   980                                  ; }
   981 00000471 EB33                    	jmp	L15
   982                                  L16:
   983 00000473 6683F80C                	cmp	eax, 12
   984 00000477 0F8401FC                	je	L17
   985 0000047B 6683F80D                	cmp	eax, 13
   986 0000047F 0F847FFC                	je	L23
   987 00000483 6683F80A                	cmp	eax, 10
   988 00000487 0F849CFC                	je	L25
   989 0000048B 6683F808                	cmp	eax, 8
   990 0000048F 0F8452FD                	je	L35
   991 00000493 6683F809                	cmp	eax, 9
   992 00000497 0F8428FE                	je	L44
   993 0000049B 6683F807                	cmp	eax, 7
   994 0000049F 0F8430FE                	je	L45
   995 000004A3 E93BFE                  	jmp	L47
   996                                  L15:
   997                                  ; return
   998                                  ; RPN'ized expression: "0 "
   999                                  ; Expanded expression: "0 "
  1000                                  ; Expression value: 0
  1001                                  ; Fused expression:    "0  "
  1002 000004A6 66B800000000            	mov	eax, 0
  1003                                  L13:
  1004 000004AC 66                      	db	0x66
  1005 000004AD C9                      	leave
  1006 000004AE CB                      	retf
  1007                                  L64:
  1008                                  
  1009                                  section .fxnsz
  1010 0000000C 43040000                	dd	L64 - _printCarVideo
  1011                                  
  1012                                  
  1013                                  	extern	_inicBiosCrt
  1014                                  	extern	_numFilas
  1015                                  	extern	_ptrPant
  1016                                  	extern	_borrarCPantalla
  1017                                  	extern	_scrollCPantalla
  1018                                  	extern	_printCarBIOS
  1019                                  
  1020                                  ; Syntax/declaration table/stack:
  1021                                  ; Bytes used: 4110/40960
  1022                                  
  1023                                  
  1024                                  ; Macro table:
  1025                                  ; Macro __SMALLER_C__ = `0x0100`
  1026                                  ; Macro __SMALLER_C_32__ = ``
  1027                                  ; Macro __HUGE__ = ``
  1028                                  ; Macro __SMALLER_C_SCHAR__ = ``
  1029                                  ; Bytes used: 74/5120
  1030                                  
  1031                                  
  1032                                  ; Identifier table:
  1033                                  ; Ident __floatsisf
  1034                                  ; Ident __floatunsisf
  1035                                  ; Ident __fixsfsi
  1036                                  ; Ident __fixunssfsi
  1037                                  ; Ident __addsf3
  1038                                  ; Ident __subsf3
  1039                                  ; Ident __negsf2
  1040                                  ; Ident __mulsf3
  1041                                  ; Ident __divsf3
  1042                                  ; Ident __lesf2
  1043                                  ; Ident __gesf2
  1044                                  ; Ident intptr_t
  1045                                  ; Ident uintptr_t
  1046                                  ; Ident intmax_t
  1047                                  ; Ident uintmax_t
  1048                                  ; Ident int8_t
  1049                                  ; Ident int_least8_t
  1050                                  ; Ident int_fast8_t
  1051                                  ; Ident uint8_t
  1052                                  ; Ident uint_least8_t
  1053                                  ; Ident uint_fast8_t
  1054                                  ; Ident int16_t
  1055                                  ; Ident int_least16_t
  1056                                  ; Ident int_fast16_t
  1057                                  ; Ident uint16_t
  1058                                  ; Ident uint_least16_t
  1059                                  ; Ident uint_fast16_t
  1060                                  ; Ident int32_t
  1061                                  ; Ident int_least32_t
  1062                                  ; Ident int_fast32_t
  1063                                  ; Ident uint32_t
  1064                                  ; Ident uint_least32_t
  1065                                  ; Ident uint_fast32_t
  1066                                  ; Ident <something>
  1067                                  ; Ident quot
  1068                                  ; Ident rem
  1069                                  ; Ident imaxdiv_t
  1070                                  ; Ident FALSE
  1071                                  ; Ident TRUE
  1072                                  ; Ident bool_t
  1073                                  ; Ident pointer_t
  1074                                  ; Ident funcion_t
  1075                                  ; Ident manejador_t
  1076                                  ; Ident rti_t
  1077                                  ; Ident isr_t
  1078                                  ; Ident handler_t
  1079                                  ; Ident retardarThread_t
  1080                                  ; Ident ptrTVI_t
  1081                                  ; Ident modoSO1_Bin
  1082                                  ; Ident modoSO1_Exe
  1083                                  ; Ident modoSO1_Bs
  1084                                  ; Ident modoSO1_t
  1085                                  ; Ident lo
  1086                                  ; Ident hi
  1087                                  ; Ident lh_t
  1088                                  ; Ident offset
  1089                                  ; Ident segment
  1090                                  ; Ident address_t
  1091                                  ; Ident ptr
  1092                                  ; Ident adr
  1093                                  ; Ident uPtrAdr_t
  1094                                  ; Ident pid_t
  1095                                  ; Ident tid_t
  1096                                  ; Ident uid_t
  1097                                  ; Ident gid_t
  1098                                  ; Ident pindx_t
  1099                                  ; Ident tindx_t
  1100                                  ; Ident df_t
  1101                                  ; Ident dfs_t
  1102                                  ; Ident rindx_t
  1103                                  ; Ident tipoOrdenador
  1104                                  ; Ident rebootLegacy
  1105                                  ; Ident tipoTeclado
  1106                                  ; Ident leerTeclaBIOS
  1107                                  ; Ident leerTeclaExtBIOS
  1108                                  ; Ident teclaListaBIOS
  1109                                  ; Ident leerTeclaListaBDA
  1110                                  ; Ident teclaListaBDA
  1111                                  ; Ident printCarBIOS
  1112                                  ; Ident car
  1113                                  ; Ident printCarPagBIOS
  1114                                  ; Ident pag
  1115                                  ; Ident printCarAtrPagBIOS
  1116                                  ; Ident atr
  1117                                  ; Ident printLnBIOS
  1118                                  ; Ident printStrBIOS
  1119                                  ; Ident str
  1120                                  ; Ident printStrHastaBIOS
  1121                                  ; Ident n
  1122                                  ; Ident lleno
  1123                                  ; Ident printDecBIOS
  1124                                  ; Ident num
  1125                                  ; Ident l
  1126                                  ; Ident printLDecBIOS
  1127                                  ; Ident printIntBIOS
  1128                                  ; Ident printLIntBIOS
  1129                                  ; Ident printHexBIOS
  1130                                  ; Ident printLHexBIOS
  1131                                  ; Ident printBinBIOS
  1132                                  ; Ident printLBinBIOS
  1133                                  ; Ident printPtrBIOS
  1134                                  ; Ident printByteBIOS
  1135                                  ; Ident b
  1136                                  ; Ident printWordBIOS
  1137                                  ; Ident w
  1138                                  ; Ident printCadBIOS
  1139                                  ; Ident cad
  1140                                  ; Ident esperarTicsBIOS
  1141                                  ; Ident tics
  1142                                  ; Ident modoDeVideo
  1143                                  ; Ident establecerModoDeVideo
  1144                                  ; Ident modo
  1145                                  ; Ident paginaActiva
  1146                                  ; Ident establecerPaginaActiva
  1147                                  ; Ident numPagsVideo
  1148                                  ; Ident scrollPagBDA
  1149                                  ; Ident numLineas
  1150                                  ; Ident scrollPagBIOS
  1151                                  ; Ident scrollBIOS
  1152                                  ; Ident goToXYPag
  1153                                  ; Ident fila
  1154                                  ; Ident columna
  1155                                  ; Ident goToXYBIOS
  1156                                  ; Ident setCursorBIOS
  1157                                  ; Ident linea1
  1158                                  ; Ident linea2
  1159                                  ; Ident ocultaCursorBIOS
  1160                                  ; Ident readXYPagBIOS
  1161                                  ; Ident readXYBIOS
  1162                                  ; Ident memBIOS
  1163                                  ; Ident enviarBIOS
  1164                                  ; Ident recibirBIOS
  1165                                  ; Ident hayApmBIOS
  1166                                  ; Ident version
  1167                                  ; Ident connectApmBIOS
  1168                                  ; Ident disconnectApmBIOS
  1169                                  ; Ident cpuIdleBIOS
  1170                                  ; Ident cpuBusyBIOS
  1171                                  ; Ident pos_t
  1172                                  ; Ident t
  1173                                  ; Ident pantalla_t
  1174                                  ; Ident tamPantalla
  1175                                  ; Ident numFilas
  1176                                  ; Ident pantallazo
  1177                                  ; Ident pantalla
  1178                                  ; Ident esqSupDeF
  1179                                  ; Ident esqSupDeC
  1180                                  ; Ident esqInfIzF
  1181                                  ; Ident esqInfIzC
  1182                                  ; Ident borrarPantalla
  1183                                  ; Ident borrarCPantalla
  1184                                  ; Ident copiarPantalla
  1185                                  ; Ident p1
  1186                                  ; Ident p2
  1187                                  ; Ident copiarCPantalla
  1188                                  ; Ident scrollPantalla
  1189                                  ; Ident scrollCPantalla
  1190                                  ; Ident _NONE
  1191                                  ; Ident _MDA
  1192                                  ; Ident _CGA
  1193                                  ; Ident _EGACOLOR
  1194                                  ; Ident _EGAMONO
  1195                                  ; Ident _VGACOLOR
  1196                                  ; Ident _VGAMONO
  1197                                  ; Ident _MCGACOLOR
  1198                                  ; Ident _MCGAMONO
  1199                                  ; Ident _MDS_GENIUS
  1200                                  ; Ident tipoAdaptador_t
  1201                                  ; Ident _FONT08
  1202                                  ; Ident _FONT14
  1203                                  ; Ident _FONT15
  1204                                  ; Ident _FONT16
  1205                                  ; Ident fontSize_t
  1206                                  ; Ident numColumnas
  1207                                  ; Ident ptrPant
  1208                                  ; Ident tipoAdaptador
  1209                                  ; Ident redimensionable
  1210                                  ; Ident fontSize
  1211                                  ; Ident visibilidad
  1212                                  ; Ident inicBiosCrt
  1213                                  ; Ident finBiosCrt
  1214                                  ; Ident getFontSize
  1215                                  ; Ident getFilas
  1216                                  ; Ident comprobarAdaptador
  1217                                  ; Ident tipoDeAdaptador
  1218                                  ; Ident setCursorVisibilidad
  1219                                  ; Ident valorDeVisibilidad
  1220                                  ; Ident setFontSize
  1221                                  ; Ident size
  1222                                  ; Ident set25x80
  1223                                  ; Ident redimensionar
  1224                                  ; Ident nFilas
  1225                                  ; Ident nCols
  1226                                  ; Ident cursorF
  1227                                  ; Ident cursorC
  1228                                  ; Ident inicMemVideo
  1229                                  ; Ident finMemVideo
  1230                                  ; Ident goToXYVideo
  1231                                  ; Ident F
  1232                                  ; Ident C
  1233                                  ; Ident printCarVideo
  1234                                  ; Bytes used: 2284/16384
  1235                                  
  1236                                  ; Next label number: 65
  1237                                  ; Compilation succeeded.
