     1                                  bits 16
     2                                  
     3                                  ; glb intptr_t : int
     4                                  ; glb uintptr_t : unsigned
     5                                  ; glb intmax_t : int
     6                                  ; glb uintmax_t : unsigned
     7                                  ; glb int8_t : signed char
     8                                  ; glb int_least8_t : signed char
     9                                  ; glb int_fast8_t : signed char
    10                                  ; glb uint8_t : unsigned char
    11                                  ; glb uint_least8_t : unsigned char
    12                                  ; glb uint_fast8_t : unsigned char
    13                                  ; glb int16_t : short
    14                                  ; glb int_least16_t : short
    15                                  ; glb int_fast16_t : short
    16                                  ; glb uint16_t : unsigned short
    17                                  ; glb uint_least16_t : unsigned short
    18                                  ; glb uint_fast16_t : unsigned short
    19                                  ; glb int32_t : int
    20                                  ; glb int_least32_t : int
    21                                  ; glb int_fast32_t : int
    22                                  ; glb uint32_t : unsigned
    23                                  ; glb uint_least32_t : unsigned
    24                                  ; glb uint_fast32_t : unsigned
    25                                  ; glb imaxdiv_t : struct <something>
    26                                  ; glb bool_t : int
    27                                  ; glb pointer_t : * unsigned char
    28                                  ; glb funcion_t : * (
    29                                  ; prm     <something> : * void
    30                                  ;     ) * void
    31                                  ; glb manejador_t : * (void) void
    32                                  ; glb rti_t : * (void) void
    33                                  ; glb isr_t : * (void) void
    34                                  ; glb handler_t : * (void) void
    35                                  ; glb retardarThread_t : * (void) int
    36                                  ; glb ptrTVI_t : * * (void) void
    37                                  ; glb modoSO1_t : int
    38                                  ; glb lh_t : struct <something>
    39                                  ; glb address_t : struct <something>
    40                                  ; glb uPtrAdr_t : union <something>
    41                                  ; glb pid_t : int
    42                                  ; glb tid_t : int
    43                                  ; glb uid_t : int
    44                                  ; glb gid_t : int
    45                                  ; glb pindx_t : int
    46                                  ; glb tindx_t : int
    47                                  ; glb df_t : int
    48                                  ; glb dfs_t : int
    49                                  ; glb rindx_t : int
    50                                  ; glb printCarVideo : (
    51                                  ; prm     car : char
    52                                  ;     ) int
    53                                  ; glb printLnVideo : (void) int
    54                                  ; glb printStrVideo : (
    55                                  ; prm     str : * char
    56                                  ;     ) int
    57                                  ; glb printStrHastaVideo : (
    58                                  ; prm     str : * char
    59                                  ; prm     n : unsigned short
    60                                  ; prm     lleno : int
    61                                  ;     ) int
    62                                  ; glb printDecVideo : (
    63                                  ; prm     num : unsigned short
    64                                  ; prm     l : unsigned short
    65                                  ;     ) int
    66                                  ; glb printLDecVideo : (
    67                                  ; prm     num : unsigned
    68                                  ; prm     l : unsigned short
    69                                  ;     ) int
    70                                  ; glb printIntVideo : (
    71                                  ; prm     num : int
    72                                  ; prm     l : unsigned short
    73                                  ;     ) int
    74                                  ; glb printLIntVideo : (
    75                                  ; prm     num : int
    76                                  ; prm     l : unsigned short
    77                                  ;     ) int
    78                                  ; glb printHexVideo : (
    79                                  ; prm     num : unsigned short
    80                                  ; prm     l : unsigned short
    81                                  ;     ) int
    82                                  ; glb printLHexVideo : (
    83                                  ; prm     num : unsigned
    84                                  ; prm     l : unsigned short
    85                                  ;     ) int
    86                                  ; glb printBinVideo : (
    87                                  ; prm     num : unsigned short
    88                                  ; prm     l : unsigned short
    89                                  ;     ) int
    90                                  ; glb printLBinVideo : (
    91                                  ; prm     num : unsigned
    92                                  ; prm     l : unsigned short
    93                                  ;     ) int
    94                                  ; glb printPtrVideo : (
    95                                  ; prm     ptr : * unsigned char
    96                                  ;     ) int
    97                                  ; glb printByteVideo : (
    98                                  ; prm     b : unsigned char
    99                                  ;     ) int
   100                                  ; glb printWordVideo : (
   101                                  ; prm     w : unsigned short
   102                                  ;     ) int
   103                                  ; glb printCadVideo : (
   104                                  ; prm     cad : * char
   105                                  ;     ) int
   106                                  ; glb modoAp_t : unsigned short
   107                                  ; glb tramaDWords_t : struct <something>
   108                                  ; glb tramaWords_t : struct <something>
   109                                  ; RPN'ized expression: "2 "
   110                                  ; Expanded expression: "2 "
   111                                  ; Expression value: 2
   112                                  ; RPN'ized expression: "2 "
   113                                  ; Expanded expression: "2 "
   114                                  ; Expression value: 2
   115                                  ; RPN'ized expression: "2 "
   116                                  ; Expanded expression: "2 "
   117                                  ; Expression value: 2
   118                                  ; RPN'ized expression: "2 "
   119                                  ; Expanded expression: "2 "
   120                                  ; Expression value: 2
   121                                  ; glb tramaBytes_t : struct <something>
   122                                  ; glb trama_t : union <something>
   123                                  ; RPN'ized expression: "8 "
   124                                  ; Expanded expression: "8 "
   125                                  ; Expression value: 8
   126                                  ; glb bloque_t : struct <something>
   127                                  ; glb ptrBloque_t : * struct <something>
   128                                  ; glb dobleEnlace_t : struct <something>
   129                                  ; glb c2c_t : struct <something>
   130                                  ; glb posicionC2c : (
   131                                  ; prm     i : int
   132                                  ; prm     c2c : struct <something>
   133                                  ;     ) int
   134                                  ; glb eliminarC2c : (
   135                                  ; prm     i : int
   136                                  ; prm     c2c : struct <something>
   137                                  ;     ) void
   138                                  ; glb apilarC2c : (
   139                                  ; prm     i : int
   140                                  ; prm     c2c : struct <something>
   141                                  ;     ) void
   142                                  ; glb encolarC2c : (
   143                                  ; prm     i : int
   144                                  ; prm     c2c : struct <something>
   145                                  ;     ) void
   146                                  ; glb desencolarC2c : (
   147                                  ; prm     c2c : struct <something>
   148                                  ;     ) int
   149                                  ; glb inicializarC2c : (
   150                                  ; prm     c2c : * struct <something>
   151                                  ; prm     e : * struct <something>
   152                                  ; prm     cabecera : int
   153                                  ; prm     compartida : int
   154                                  ;     ) void
   155                                  ; glb ptrC2c_t : * struct <something>
   156                                  ; glb posicionPC2c : (
   157                                  ; prm     i : int
   158                                  ; prm     c2c : * struct <something>
   159                                  ;     ) int
   160                                  ; glb eliminarPC2c : (
   161                                  ; prm     i : int
   162                                  ; prm     ptrC2c : * struct <something>
   163                                  ;     ) void
   164                                  ; glb apilarPC2c : (
   165                                  ; prm     i : int
   166                                  ; prm     ptrC2c : * struct <something>
   167                                  ;     ) void
   168                                  ; glb encolarPC2c : (
   169                                  ; prm     i : int
   170                                  ; prm     ptrC2c : * struct <something>
   171                                  ;     ) void
   172                                  ; glb desencolarPC2c : (
   173                                  ; prm     ptrC2c : * struct <something>
   174                                  ;     ) int
   175                                  ; glb inicializarPC2c : (
   176                                  ; prm     ptrC2c : * struct <something>
   177                                  ; prm     e : * struct <something>
   178                                  ; prm     cabecera : int
   179                                  ; prm     compartida : int
   180                                  ;     ) void
   181                                  ; glb callBack_t : * (
   182                                  ; prm     arg : * void
   183                                  ;     ) int
   184                                  ; RPN'ized expression: "10 "
   185                                  ; Expanded expression: "10 "
   186                                  ; Expression value: 10
   187                                  ; glb descCcb_t : struct <something>
   188                                  ; glb ccb_t : * struct <something>
   189                                  ; glb inicCcb : (
   190                                  ; prm     ccb : * struct <something>
   191                                  ; prm     max : unsigned short
   192                                  ;     ) int
   193                                  ; glb encolarCcb : (
   194                                  ; prm     cb : * (
   195                                  ; prm         arg : * void
   196                                  ;         ) int
   197                                  ; prm     ccb : * struct <something>
   198                                  ;     ) int
   199                                  ; glb desencolarCcb : (
   200                                  ; prm     ccb : * struct <something>
   201                                  ;     ) * (
   202                                  ; prm     arg : * void
   203                                  ;     ) int
   204                                  ; glb eliminarCcb : (
   205                                  ; prm     cb : * (
   206                                  ; prm         arg : * void
   207                                  ;         ) int
   208                                  ; prm     ccb : * struct <something>
   209                                  ;     ) int
   210                                  ; glb eliminarSegCcb : (
   211                                  ; prm     segmento : unsigned short
   212                                  ; prm     ccb : * struct <something>
   213                                  ;     ) int
   214                                  ; glb vaciarCcb : (
   215                                  ; prm     ccb : * struct <something>
   216                                  ;     ) int
   217                                  ; glb atenderCcb : (
   218                                  ; prm     ccb : * struct <something>
   219                                  ;     ) int
   220                                  ; glb estado_t : int
   221                                  ; glb dfa_t : struct <something>
   222                                  ; RPN'ized expression: "12 "
   223                                  ; Expanded expression: "12 "
   224                                  ; Expression value: 12
   225                                  ; RPN'ized expression: "80 "
   226                                  ; Expanded expression: "80 "
   227                                  ; Expression value: 80
   228                                  ; RPN'ized expression: "10 "
   229                                  ; Expanded expression: "10 "
   230                                  ; Expression value: 10
   231                                  ; glb descProceso_t : struct <something>
   232                                  ; glb descThread_t : struct <something>
   233                                  ; glb tipoFichero_t : int
   234                                  ; RPN'ized expression: "9 "
   235                                  ; Expanded expression: "9 "
   236                                  ; Expression value: 9
   237                                  ; glb descFichero_t : struct <something>
   238                                  ; glb tipoRecurso_t : int
   239                                  ; glb open_t : * (
   240                                  ; prm     dfs : int
   241                                  ; prm     modo : unsigned short
   242                                  ;     ) int
   243                                  ; glb release_t : * (
   244                                  ; prm     dfs : int
   245                                  ;     ) int
   246                                  ; glb read_t : * (
   247                                  ; prm     dfs : int
   248                                  ; prm     dir : * unsigned char
   249                                  ; prm     nbytes : unsigned short
   250                                  ;     ) int
   251                                  ; glb aio_read_t : * (
   252                                  ; prm     dfs : int
   253                                  ; prm     dir : * unsigned char
   254                                  ; prm     nbytes : unsigned short
   255                                  ;     ) int
   256                                  ; glb write_t : * (
   257                                  ; prm     dfs : int
   258                                  ; prm     dir : * unsigned char
   259                                  ; prm     nbytes : unsigned short
   260                                  ;     ) int
   261                                  ; glb aio_write_t : * (
   262                                  ; prm     dfs : int
   263                                  ; prm     dir : * unsigned char
   264                                  ; prm     nbytes : unsigned short
   265                                  ;     ) int
   266                                  ; glb lseek_t : * (
   267                                  ; prm     dfs : int
   268                                  ; prm     pos : int
   269                                  ; prm     whence : unsigned short
   270                                  ;     ) int
   271                                  ; glb fcntl_t : * (
   272                                  ; prm     dfs : int
   273                                  ; prm     cmd : unsigned short
   274                                  ; prm     arg : unsigned short
   275                                  ;     ) int
   276                                  ; glb ioctl_t : * (
   277                                  ; prm     dfs : int
   278                                  ; prm     request : unsigned short
   279                                  ; prm     arg : unsigned short
   280                                  ;     ) int
   281                                  ; glb eliminar_t : * (
   282                                  ; prm     pindx : int
   283                                  ;     ) int
   284                                  ; RPN'ized expression: "12 "
   285                                  ; Expanded expression: "12 "
   286                                  ; Expression value: 12
   287                                  ; RPN'ized expression: "2 "
   288                                  ; Expanded expression: "2 "
   289                                  ; Expression value: 2
   290                                  ; RPN'ized expression: "2 "
   291                                  ; Expanded expression: "2 "
   292                                  ; Expression value: 2
   293                                  ; RPN'ized expression: "2 "
   294                                  ; Expanded expression: "2 "
   295                                  ; Expression value: 2
   296                                  ; glb descRecurso_t : struct <something>
   297                                  ; glb info_t : struct <something>
   298                                  ; glb cabecera_t : struct <something>
   299                                  ; RPN'ized expression: "16 1 + "
   300                                  ; Expanded expression: "17 "
   301                                  ; Expression value: 17
   302                                  ; RPN'ized expression: "16 2 + "
   303                                  ; Expanded expression: "18 "
   304                                  ; Expression value: 18
   305                                  ; RPN'ized expression: "2010 1 + "
   306                                  ; Expanded expression: "2011 "
   307                                  ; Expression value: 2011
   308                                  ; RPN'ized expression: "2010 2 + "
   309                                  ; Expanded expression: "2012 "
   310                                  ; Expression value: 2012
   311                                  ; RPN'ized expression: "20 1 + "
   312                                  ; Expanded expression: "21 "
   313                                  ; Expression value: 21
   314                                  ; RPN'ized expression: "20 2 + "
   315                                  ; Expanded expression: "22 "
   316                                  ; Expression value: 22
   317                                  ; RPN'ized expression: "14 1 + "
   318                                  ; Expanded expression: "15 "
   319                                  ; Expression value: 15
   320                                  ; RPN'ized expression: "14 2 + "
   321                                  ; Expanded expression: "16 "
   322                                  ; Expression value: 16
   323                                  ; RPN'ized expression: "16 16 + "
   324                                  ; Expanded expression: "32 "
   325                                  ; Expression value: 32
   326                                  ; RPN'ized expression: "2010 16 + "
   327                                  ; Expanded expression: "2026 "
   328                                  ; Expression value: 2026
   329                                  ; RPN'ized expression: "2010 1 + "
   330                                  ; Expanded expression: "2011 "
   331                                  ; Expression value: 2011
   332                                  ; RPN'ized expression: "2010 1 + "
   333                                  ; Expanded expression: "2011 "
   334                                  ; Expression value: 2011
   335                                  ; RPN'ized expression: "16 1 + "
   336                                  ; Expanded expression: "17 "
   337                                  ; Expression value: 17
   338                                  ; RPN'ized expression: "2010 1 + "
   339                                  ; Expanded expression: "2011 "
   340                                  ; Expression value: 2011
   341                                  ; RPN'ized expression: "20 14 + "
   342                                  ; Expanded expression: "34 "
   343                                  ; Expression value: 34
   344                                  ; glb e2PFR_t : struct <something>
   345                                  ; glb cPFR_t : int
   346                                  ; glb sigThread_t : * () int
   347                                  ; glb activarThread_t : * (
   348                                  ; prm     tindx : int
   349                                  ;     ) void
   350                                  ; glb buscarNuevoThreadActual_t : * (void) void
   351                                  ; glb bloquearThreadActual_t : * (
   352                                  ; prm     rindx : int
   353                                  ;     ) void
   354                                  ; glb descSO1H_t : struct <something>
   355                                  ; RPN'ized expression: "12 "
   356                                  ; Expanded expression: "12 "
   357                                  ; Expression value: 12
   358                                  ; RPN'ized expression: "80 "
   359                                  ; Expanded expression: "80 "
   360                                  ; Expression value: 80
   361                                  ; RPN'ized expression: "10 "
   362                                  ; Expanded expression: "10 "
   363                                  ; Expression value: 10
   364                                  ; glb descProcesoExt_t : struct <something>
   365                                  ; glb descThreadExt_t : struct <something>
   366                                  ; RPN'ized expression: "16 "
   367                                  ; Expanded expression: "16 "
   368                                  ; Expression value: 16
   369                                  ; glb descProceso : [16u] struct <something>
   370                                  ; RPN'ized expression: "2010 "
   371                                  ; Expanded expression: "2010 "
   372                                  ; Expression value: 2010
   373                                  ; glb descThread : [2010u] struct <something>
   374                                  ; RPN'ized expression: "20 "
   375                                  ; Expanded expression: "20 "
   376                                  ; Expression value: 20
   377                                  ; glb descFichero : [20u] struct <something>
   378                                  ; RPN'ized expression: "14 "
   379                                  ; Expanded expression: "14 "
   380                                  ; Expression value: 14
   381                                  ; glb descRecurso : [14u] struct <something>
   382                                  ; RPN'ized expression: "numColasPFR "
   383                                  ; Expanded expression: "12 "
   384                                  ; Expression value: 12
   385                                  ; glb c2cPFR : [12u] struct <something>
   386                                  ; glb e2PFR : struct <something>
   387                                  ; glb descCcbAlEpilogo : struct <something>
   388                                  ; glb ccbAlEpilogo : * struct <something>
   389                                  ; glb tramaThread : * union <something>
   390                                  ; glb tramaTarea : * union <something>
   391                                  ; glb indThreadActual : int
   392                                  ; glb indProcesoActual : int
   393                                  ; glb indThreadDeSuperficie : int
   394                                  ; glb contRodajas : unsigned
   395                                  ; glb contTicsRodaja : int
   396                                  ; glb contadorTimer00 : unsigned short
   397                                  ; glb contOcioso : int
   398                                  ; glb nuevoPid : (void) int
   399                                  ; glb nuevoTid : (void) int
   400                                  ; glb indice : (
   401                                  ; prm     tid : int
   402                                  ;     ) int
   403                                  ; glb sigThread : (void) int
   404                                  ; glb activarThread : (
   405                                  ; prm     tindx : int
   406                                  ;     ) int
   407                                  ; glb registrarEnPOrdenados : (
   408                                  ; prm     pindx : int
   409                                  ;     ) void
   410                                  ; glb crearThread : (
   411                                  ; prm     funcion : * (
   412                                  ; prm         <something> : * void
   413                                  ;         ) * void
   414                                  ; prm     SP0 : unsigned short
   415                                  ; prm     arg : * void
   416                                  ; prm     pindx : int
   417                                  ;     ) int
   418                                  ; glb crearProceso : (
   419                                  ; prm     segmento : unsigned short
   420                                  ; prm     tam : unsigned short
   421                                  ; prm     tamFich : unsigned
   422                                  ; prm     programa : * char
   423                                  ; prm     comando : * char
   424                                  ; prm     pindx : int
   425                                  ;     ) int
   426                                  ; glb inicProcesos : (void) void
   427                                  ; glb resetPids : (void) void
   428                                  ; glb resetTids : (void) void
   429                                  ; glb terminarThreadIndx : (
   430                                  ; prm     tindx : int
   431                                  ;     ) int
   432                                  ; glb eliminarThreadIndx : (
   433                                  ; prm     tindx : int
   434                                  ;     ) int
   435                                  ; glb terminarProcIndx : (
   436                                  ; prm     pindx : int
   437                                  ;     ) int
   438                                  ; glb eliminarProcIndx : (
   439                                  ; prm     pindx : int
   440                                  ;     ) int
   441                                  ; glb matarThreadIndx : (
   442                                  ; prm     tindx : int
   443                                  ;     ) int
   444                                  ; glb matarProcIndx : (
   445                                  ; prm     pindx : int
   446                                  ;     ) int
   447                                  ; glb link_procs : (void) void
   448                                  ; glb startBin : (void) void
   449                                  ; glb modoSO1 : (void) int
   450                                  ; glb unidadBIOS : (void) unsigned char
   451                                  ; glb CS_SO1H : unsigned short
   452                                  ; glb RO_SO1H : unsigned short
   453                                  ; glb DS_SO1H : unsigned short
   454                                  ; glb BSS_SO1H : unsigned short
   455                                  ; glb SS_SO1H : unsigned short
   456                                  ; glb SS_Kernel : unsigned short
   457                                  ; glb IMRInicial : unsigned short
   458                                  ; glb obtenerMapa : (void) void
   459                                  ; glb SS_Thread : unsigned short
   460                                  ; glb SP_Thread : unsigned short
   461                                  ; glb SS_Tarea : unsigned short
   462                                  ; glb SP_Tarea : unsigned short
   463                                  ; glb nivelActivacionSO1H : int
   464                                  ; glb nVIntActual : int
   465                                  ; glb enHalt : int
   466                                  ; glb activarAlEpilogo1 : int
   467                                  ; glb hayTic : int
   468                                  ; glb setKernelStack : (void) void
   469                                  ; glb setThreadStack : (
   470                                  ; prm     SS_Thread : unsigned short
   471                                  ; prm     SP_Thread : unsigned short
   472                                  ;     ) void
   473                                  ; glb reg_DL : (void) unsigned
   474                                  ; glb prepararDesbloqueadosUrgentes : (void) void
   475                                  ; glb buscarNuevoThreadActual : (void) void
   476                                  ; glb bloquearThreadActual : (
   477                                  ; prm     rindx : int
   478                                  ;     ) void
   479                                  ; glb thread_attribs_t : struct <something>
   480                                  ; glb thread_create : (
   481                                  ; prm     tid : * int
   482                                  ; prm     attribs : * struct <something>
   483                                  ; prm     funcionInicial : * * void
   484                                  ; prm     arg : * void
   485                                  ;     ) int
   486                                  ; glb thread_join : (
   487                                  ; prm     tid : int
   488                                  ; prm     res : * * void
   489                                  ;     ) int
   490                                  ; glb thread_exit : (
   491                                  ; prm     res : * void
   492                                  ;     ) void
   493                                  ; glb thread_yield : (void) int
   494                                  ; glb thread_self : (void) int
   495                                  ; glb doKill : (
   496                                  ; prm     pindx : int
   497                                  ;     ) void
   498                                  ; glb kk_fork : (void) int
   499                                  ; glb preEjecutar : (
   500                                  ; prm     nombre : * char
   501                                  ; prm     comando : * char
   502                                  ; prm     pindx : int
   503                                  ;     ) int
   504                                  ; glb bloquearEsperandoHijo : (
   505                                  ; prm     hpindx : int
   506                                  ;     ) void
   507                                  section .text
   508                                  	global	_bloquearEsperandoHijo
   509                                  _bloquearEsperandoHijo:
   510 00000000 6655                    	push	ebp
   511 00000002 660FB7EC                	movzx	ebp, sp
   512                                  	;sub	sp,          0
   513                                  ; loc     hpindx : (@8): int
   514                                  ; RPN'ized expression: "descProceso indProcesoActual + *u &u hpindx -> *u hpindx = "
   515                                  ; Expanded expression: "descProceso indProcesoActual *(4) 292 * + 16 + (@8) *(4) =(4) "
   516                                  ; Fused expression:    "descProceso push-ax indProcesoActual * *ax 292 + *sp ax + ax 16 =(204) *ax *(@8) "
   517                                  section .relod
   518 00000000 [08000000]              	dd	L3
   519                                  section .text
   520 00000006 66B8                    	db	0x66, 0xB8
   521                                  L3:
   522 00000008 [00000000]              	dd	_descProceso
   523 0000000C 6650                    	push	eax
   524                                  section .relod
   525 00000004 [10000000]              	dd	L4
   526                                  section .text
   527 0000000E 66B8                    	db	0x66, 0xB8
   528                                  L4:
   529 00000010 [00000000]              	dd	_indProcesoActual
   530 00000014 6689C3                  	mov	ebx, eax
   531 00000017 6689DE                  	mov	esi, ebx
   532 0000001A 66C1CE04                	ror	esi, 4
   533 0000001E 8EDE                    	mov	ds, si
   534 00000020 66C1EE1C                	shr	esi, 28
   535 00000024 668B04                  	mov	eax, [si]
   536 00000027 6669C024010000          	imul	eax, eax, 292
   537 0000002E 6689C1                  	mov	ecx, eax
   538 00000031 6658                    	pop	eax
   539 00000033 6601C8                  	add	eax, ecx
   540 00000036 6683C010                	add	eax, 16
   541 0000003A 6689C3                  	mov	ebx, eax
   542 0000003D 668B4608                	mov	eax, [bp+8]
   543 00000041 6689DE                  	mov	esi, ebx
   544 00000044 66C1CE04                	ror	esi, 4
   545 00000048 8EDE                    	mov	ds, si
   546 0000004A 66C1EE1C                	shr	esi, 28
   547 0000004E 668904                  	mov	[si], eax
   548                                  ; loc     <something> : int
   549                                  ; RPN'ized expression: "( 1 -u (something5) bloquearThreadActual ) "
   550                                  ; Expanded expression: " -1  bloquearThreadActual ()4 "
   551                                  ; Fused expression:    "( -1 , bloquearThreadActual )4 "
   552 00000051 666AFF                  	push	dword -1
   553 00000054 9A                      	db	0x9A
   554                                  section .relot
   555 00000000 [55000000]              	dd	L6
   556                                  section .text
   557                                  L6:
   558 00000055 [00000000]              	dd	_bloquearThreadActual
   559 00000059 83ECFC                  	sub	sp, -4
   560                                  L1:
   561 0000005C 66                      	db	0x66
   562 0000005D C9                      	leave
   563 0000005E CB                      	retf
   564                                  L7:
   565                                  
   566                                  section .fxnsz noalloc
   567 00000000 5F000000                	dd	L7 - _bloquearEsperandoHijo
   568                                  
   569                                  ; glb so1_manejador_01 : (void) void
   570                                  section .text
   571                                  	global	_so1_manejador_01
   572                                  _so1_manejador_01:
   573 0000005F 6655                    	push	ebp
   574 00000061 660FB7EC                	movzx	ebp, sp
   575                                  	;sub	sp,          0
   576                                  ; loc     10 : int
   577                                  
   578                                  section .bss
   579                                  	alignb 4
   580                                  L10:
   581 00000000 <res 00000004>          	resb	4
   582                                  
   583                                  section .text
   584                                  ; loc     11 : int
   585                                  
   586                                  section .bss
   587                                  	alignb 4
   588                                  L11:
   589 00000004 <res 00000004>          	resb	4
   590                                  
   591                                  section .text
   592                                  ; loc     12 : int
   593                                  
   594                                  section .bss
   595                                  	alignb 4
   596                                  L12:
   597 00000008 <res 00000004>          	resb	4
   598                                  
   599                                  section .text
   600                                  ; loc     13 : int
   601                                  
   602                                  section .bss
   603                                  	alignb 4
   604                                  L13:
   605 0000000C <res 00000004>          	resb	4
   606                                  
   607                                  section .text
   608                                  ; loc     14 : int
   609                                  
   610                                  section .bss
   611                                  	alignb 4
   612                                  L14:
   613 00000010 <res 00000004>          	resb	4
   614                                  
   615                                  section .text
   616                                  ; loc     15 : int
   617                                  
   618                                  section .bss
   619                                  	alignb 4
   620                                  L15:
   621 00000014 <res 00000004>          	resb	4
   622                                  
   623                                  section .text
   624                                  ; switch
   625                                  ; RPN'ized expression: "tramaThread tb -> *u &u AL -> *u "
   626                                  ; Expanded expression: "tramaThread *(4) 0 + 32 + *(1) "
   627                                  ; Fused expression:    "tramaThread + *ax 0 + ax 32 *(1) ax  "
   628                                  section .relod
   629 00000008 [67000000]              	dd	L18
   630                                  section .text
   631 00000065 66B8                    	db	0x66, 0xB8
   632                                  L18:
   633 00000067 [00000000]              	dd	_tramaThread
   634 0000006B 6689C3                  	mov	ebx, eax
   635 0000006E 6689DE                  	mov	esi, ebx
   636 00000071 66C1CE04                	ror	esi, 4
   637 00000075 8EDE                    	mov	ds, si
   638 00000077 66C1EE1C                	shr	esi, 28
   639 0000007B 668B04                  	mov	eax, [si]
   640 0000007E 6683C020                	add	eax, 32
   641 00000082 6689C3                  	mov	ebx, eax
   642 00000085 6689DE                  	mov	esi, ebx
   643 00000088 66C1CE04                	ror	esi, 4
   644 0000008C 8EDE                    	mov	ds, si
   645 0000008E 66C1EE1C                	shr	esi, 28
   646 00000092 8A04                    	mov	al, [si]
   647 00000094 660FB6C0                	movzx	eax, al
   648 00000098 E99317                  	jmp	L17
   649                                  ; {
   650                                  ; case
   651                                  ; RPN'ized expression: "0 "
   652                                  ; Expanded expression: "0 "
   653                                  ; Expression value: 0
   654                                  L19:
   655                                  ; case
   656                                  ; RPN'ized expression: "1 "
   657                                  ; Expanded expression: "1 "
   658                                  ; Expression value: 1
   659                                  L20:
   660                                  ; if
   661                                  ; RPN'ized expression: "c2cPFR DPOcupados + *u &u numElem -> *u 16 1 - >= "
   662                                  ; Expanded expression: "c2cPFR 16 + 0 + *(4) 15 >= "
   663                                  ; Fused expression:    "c2cPFR + ax 16 + ax 0 >= *ax 15 IF! "
   664                                  section .relod
   665 0000000C [9D000000]              	dd	L23
   666                                  section .text
   667 0000009B 66B8                    	db	0x66, 0xB8
   668                                  L23:
   669 0000009D [00000000]              	dd	_c2cPFR
   670 000000A1 6683C010                	add	eax, 16
   671 000000A5 6689C3                  	mov	ebx, eax
   672 000000A8 6689DE                  	mov	esi, ebx
   673 000000AB 66C1CE04                	ror	esi, 4
   674 000000AF 8EDE                    	mov	ds, si
   675 000000B1 66C1EE1C                	shr	esi, 28
   676 000000B5 668B04                  	mov	eax, [si]
   677 000000B8 6683F80F                	cmp	eax, 15
   678 000000BC 7C3C                    	jl	L21
   679                                  ; {
   680                                  ; RPN'ized expression: "tramaThread tw -> *u &u DX -> *u 10 -u = "
   681                                  ; Expanded expression: "tramaThread *(4) 0 + 24 + -10 =(2) "
   682                                  ; Fused expression:    "tramaThread + *ax 0 + ax 24 =(172) *ax -10 "
   683                                  section .relod
   684 00000010 [C0000000]              	dd	L24
   685                                  section .text
   686 000000BE 66B8                    	db	0x66, 0xB8
   687                                  L24:
   688 000000C0 [00000000]              	dd	_tramaThread
   689 000000C4 6689C3                  	mov	ebx, eax
   690 000000C7 6689DE                  	mov	esi, ebx
   691 000000CA 66C1CE04                	ror	esi, 4
   692 000000CE 8EDE                    	mov	ds, si
   693 000000D0 66C1EE1C                	shr	esi, 28
   694 000000D4 668B04                  	mov	eax, [si]
   695 000000D7 6683C018                	add	eax, 24
   696 000000DB 6689C3                  	mov	ebx, eax
   697 000000DE 66B8F6FFFFFF            	mov	eax, -10
   698 000000E4 6689DE                  	mov	esi, ebx
   699 000000E7 66C1CE04                	ror	esi, 4
   700 000000EB 8EDE                    	mov	ds, si
   701 000000ED 66C1EE1C                	shr	esi, 28
   702 000000F1 8904                    	mov	[si], ax
   703 000000F3 660FB7C0                	movzx	eax, ax
   704                                  ; break
   705 000000F7 E99E17                  	jmp	L16
   706                                  ; }
   707                                  L21:
   708                                  ; RPN'ized expression: "descThread indThreadActual + *u &u trama -> *u tramaThread = "
   709                                  ; Expanded expression: "descThread indThreadActual *(4) 40 * + 12 + tramaThread *(4) =(4) "
   710                                  ; Fused expression:    "descThread push-ax indThreadActual * *ax 40 + *sp ax + ax 12 push-ax tramaThread =(204) **sp *ax "
   711                                  section .relod
   712 00000014 [FC000000]              	dd	L25
   713                                  section .text
   714 000000FA 66B8                    	db	0x66, 0xB8
   715                                  L25:
   716 000000FC [00000000]              	dd	_descThread
   717 00000100 6650                    	push	eax
   718                                  section .relod
   719 00000018 [04010000]              	dd	L26
   720                                  section .text
   721 00000102 66B8                    	db	0x66, 0xB8
   722                                  L26:
   723 00000104 [00000000]              	dd	_indThreadActual
   724 00000108 6689C3                  	mov	ebx, eax
   725 0000010B 6689DE                  	mov	esi, ebx
   726 0000010E 66C1CE04                	ror	esi, 4
   727 00000112 8EDE                    	mov	ds, si
   728 00000114 66C1EE1C                	shr	esi, 28
   729 00000118 668B04                  	mov	eax, [si]
   730 0000011B 666BC028                	imul	eax, eax, 40
   731 0000011F 6689C1                  	mov	ecx, eax
   732 00000122 6658                    	pop	eax
   733 00000124 6601C8                  	add	eax, ecx
   734 00000127 6683C00C                	add	eax, 12
   735 0000012B 6650                    	push	eax
   736                                  section .relod
   737 0000001C [2F010000]              	dd	L27
   738                                  section .text
   739 0000012D 66B8                    	db	0x66, 0xB8
   740                                  L27:
   741 0000012F [00000000]              	dd	_tramaThread
   742 00000133 6689C3                  	mov	ebx, eax
   743 00000136 6689DE                  	mov	esi, ebx
   744 00000139 66C1CE04                	ror	esi, 4
   745 0000013D 8EDE                    	mov	ds, si
   746 0000013F 66C1EE1C                	shr	esi, 28
   747 00000143 668B04                  	mov	eax, [si]
   748 00000146 665B                    	pop	ebx
   749 00000148 6689DE                  	mov	esi, ebx
   750 0000014B 66C1CE04                	ror	esi, 4
   751 0000014F 8EDE                    	mov	ds, si
   752 00000151 66C1EE1C                	shr	esi, 28
   753 00000155 668904                  	mov	[si], eax
   754                                  ; if
   755                                  ; RPN'ized expression: "tramaThread tb -> *u &u AL -> *u 1 == "
   756                                  ; Expanded expression: "tramaThread *(4) 0 + 32 + *(1) 1 == "
   757                                  ; Fused expression:    "tramaThread + *ax 0 + ax 32 == *ax 1 IF! "
   758                                  section .relod
   759 00000020 [5A010000]              	dd	L30
   760                                  section .text
   761 00000158 66B8                    	db	0x66, 0xB8
   762                                  L30:
   763 0000015A [00000000]              	dd	_tramaThread
   764 0000015E 6689C3                  	mov	ebx, eax
   765 00000161 6689DE                  	mov	esi, ebx
   766 00000164 66C1CE04                	ror	esi, 4
   767 00000168 8EDE                    	mov	ds, si
   768 0000016A 66C1EE1C                	shr	esi, 28
   769 0000016E 668B04                  	mov	eax, [si]
   770 00000171 6683C020                	add	eax, 32
   771 00000175 6689C3                  	mov	ebx, eax
   772 00000178 6689DE                  	mov	esi, ebx
   773 0000017B 66C1CE04                	ror	esi, 4
   774 0000017F 8EDE                    	mov	ds, si
   775 00000181 66C1EE1C                	shr	esi, 28
   776 00000185 8A04                    	mov	al, [si]
   777 00000187 660FB6C0                	movzx	eax, al
   778 0000018B 6683F801                	cmp	eax, 1
   779 0000018F 7522                    	jne	L28
   780                                  ; RPN'ized expression: "pindx ( kk_fork ) = "
   781                                  ; Expanded expression: "L13  kk_fork ()0 =(4) "
   782                                  ; Fused expression:    "L13 push-ax ( kk_fork )0 =(204) **sp ax "
   783                                  section .relod
   784 00000024 [93010000]              	dd	L31
   785                                  section .text
   786 00000191 66B8                    	db	0x66, 0xB8
   787                                  L31:
   788 00000193 [0C000000]              	dd	L13
   789 00000197 6650                    	push	eax
   790 00000199 9A                      	db	0x9A
   791                                  section .relot
   792 00000004 [9A010000]              	dd	L32
   793                                  section .text
   794                                  L32:
   795 0000019A [00000000]              	dd	_kk_fork
   796 0000019E 665B                    	pop	ebx
   797 000001A0 6689DE                  	mov	esi, ebx
   798 000001A3 66C1CE04                	ror	esi, 4
   799 000001A7 8EDE                    	mov	ds, si
   800 000001A9 66C1EE1C                	shr	esi, 28
   801 000001AD 668904                  	mov	[si], eax
   802 000001B0 E91901                  	jmp	L29
   803                                  L28:
   804                                  ; else
   805                                  ; {
   806                                  ; loc             <something> : * char
   807                                  ; loc             <something> : unsigned
   808                                  ; loc             <something> : unsigned short
   809                                  ; loc             <something> : * char
   810                                  ; loc             <something> : unsigned
   811                                  ; loc             <something> : unsigned short
   812                                  ; RPN'ized expression: "pindx ( 1 -u , tramaThread tw -> *u &u ES -> *u (something37) 16 << tramaThread tw -> *u &u DX -> *u (something38) | (something36) , tramaThread tw -> *u &u CX -> *u (something34) 16 << trama
   813                                  ; Expanded expression: "L13  -1  tramaThread *(4) 0 + 2 + *(2) 16 << tramaThread *(4) 0 + 24 + *(2) unsigned short |  tramaThread *(4) 0 + 28 + *(2) 16 << tramaThread *(4) 0 + 20 + *(2) unsigned short |  preEjecutar
   814                                  ; Fused expression:    "L13 push-ax ( -1 , tramaThread + *ax 0 + ax 2 << *ax 16 push-ax tramaThread + *ax 0 + ax 24 *(2) ax unsigned short | *sp ax , tramaThread + *ax 0 + ax 28 << *ax 16 push-ax tramaThread + *ax 0
   815                                  section .relod
   816 00000028 [B5010000]              	dd	L39
   817                                  section .text
   818 000001B3 66B8                    	db	0x66, 0xB8
   819                                  L39:
   820 000001B5 [0C000000]              	dd	L13
   821 000001B9 6650                    	push	eax
   822 000001BB 666AFF                  	push	dword -1
   823                                  section .relod
   824 0000002C [C0010000]              	dd	L40
   825                                  section .text
   826 000001BE 66B8                    	db	0x66, 0xB8
   827                                  L40:
   828 000001C0 [00000000]              	dd	_tramaThread
   829 000001C4 6689C3                  	mov	ebx, eax
   830 000001C7 6689DE                  	mov	esi, ebx
   831 000001CA 66C1CE04                	ror	esi, 4
   832 000001CE 8EDE                    	mov	ds, si
   833 000001D0 66C1EE1C                	shr	esi, 28
   834 000001D4 668B04                  	mov	eax, [si]
   835 000001D7 6683C002                	add	eax, 2
   836 000001DB 6689C3                  	mov	ebx, eax
   837 000001DE 6689DE                  	mov	esi, ebx
   838 000001E1 66C1CE04                	ror	esi, 4
   839 000001E5 8EDE                    	mov	ds, si
   840 000001E7 66C1EE1C                	shr	esi, 28
   841 000001EB 8B04                    	mov	ax, [si]
   842 000001ED 660FB7C0                	movzx	eax, ax
   843 000001F1 66C1E010                	shl	eax, 16
   844 000001F5 6650                    	push	eax
   845                                  section .relod
   846 00000030 [F9010000]              	dd	L41
   847                                  section .text
   848 000001F7 66B8                    	db	0x66, 0xB8
   849                                  L41:
   850 000001F9 [00000000]              	dd	_tramaThread
   851 000001FD 6689C3                  	mov	ebx, eax
   852 00000200 6689DE                  	mov	esi, ebx
   853 00000203 66C1CE04                	ror	esi, 4
   854 00000207 8EDE                    	mov	ds, si
   855 00000209 66C1EE1C                	shr	esi, 28
   856 0000020D 668B04                  	mov	eax, [si]
   857 00000210 6683C018                	add	eax, 24
   858 00000214 6689C3                  	mov	ebx, eax
   859 00000217 6689DE                  	mov	esi, ebx
   860 0000021A 66C1CE04                	ror	esi, 4
   861 0000021E 8EDE                    	mov	ds, si
   862 00000220 66C1EE1C                	shr	esi, 28
   863 00000224 8B04                    	mov	ax, [si]
   864 00000226 660FB7C0                	movzx	eax, ax
   865 0000022A 660FB7C0                	movzx	eax, ax
   866 0000022E 6689C1                  	mov	ecx, eax
   867 00000231 6658                    	pop	eax
   868 00000233 6609C8                  	or	eax, ecx
   869 00000236 6650                    	push	eax
   870                                  section .relod
   871 00000034 [3A020000]              	dd	L42
   872                                  section .text
   873 00000238 66B8                    	db	0x66, 0xB8
   874                                  L42:
   875 0000023A [00000000]              	dd	_tramaThread
   876 0000023E 6689C3                  	mov	ebx, eax
   877 00000241 6689DE                  	mov	esi, ebx
   878 00000244 66C1CE04                	ror	esi, 4
   879 00000248 8EDE                    	mov	ds, si
   880 0000024A 66C1EE1C                	shr	esi, 28
   881 0000024E 668B04                  	mov	eax, [si]
   882 00000251 6683C01C                	add	eax, 28
   883 00000255 6689C3                  	mov	ebx, eax
   884 00000258 6689DE                  	mov	esi, ebx
   885 0000025B 66C1CE04                	ror	esi, 4
   886 0000025F 8EDE                    	mov	ds, si
   887 00000261 66C1EE1C                	shr	esi, 28
   888 00000265 8B04                    	mov	ax, [si]
   889 00000267 660FB7C0                	movzx	eax, ax
   890 0000026B 66C1E010                	shl	eax, 16
   891 0000026F 6650                    	push	eax
   892                                  section .relod
   893 00000038 [73020000]              	dd	L43
   894                                  section .text
   895 00000271 66B8                    	db	0x66, 0xB8
   896                                  L43:
   897 00000273 [00000000]              	dd	_tramaThread
   898 00000277 6689C3                  	mov	ebx, eax
   899 0000027A 6689DE                  	mov	esi, ebx
   900 0000027D 66C1CE04                	ror	esi, 4
   901 00000281 8EDE                    	mov	ds, si
   902 00000283 66C1EE1C                	shr	esi, 28
   903 00000287 668B04                  	mov	eax, [si]
   904 0000028A 6683C014                	add	eax, 20
   905 0000028E 6689C3                  	mov	ebx, eax
   906 00000291 6689DE                  	mov	esi, ebx
   907 00000294 66C1CE04                	ror	esi, 4
   908 00000298 8EDE                    	mov	ds, si
   909 0000029A 66C1EE1C                	shr	esi, 28
   910 0000029E 8B04                    	mov	ax, [si]
   911 000002A0 660FB7C0                	movzx	eax, ax
   912 000002A4 660FB7C0                	movzx	eax, ax
   913 000002A8 6689C1                  	mov	ecx, eax
   914 000002AB 6658                    	pop	eax
   915 000002AD 6609C8                  	or	eax, ecx
   916 000002B0 6650                    	push	eax
   917 000002B2 9A                      	db	0x9A
   918                                  section .relot
   919 00000008 [B3020000]              	dd	L44
   920                                  section .text
   921                                  L44:
   922 000002B3 [00000000]              	dd	_preEjecutar
   923 000002B7 83ECF4                  	sub	sp, -12
   924 000002BA 665B                    	pop	ebx
   925 000002BC 6689DE                  	mov	esi, ebx
   926 000002BF 66C1CE04                	ror	esi, 4
   927 000002C3 8EDE                    	mov	ds, si
   928 000002C5 66C1EE1C                	shr	esi, 28
   929 000002C9 668904                  	mov	[si], eax
   930                                  ; }
   931                                  L29:
   932                                  ; if
   933                                  ; RPN'ized expression: "pindx 0 >= "
   934                                  ; Expanded expression: "L13 *(4) 0 >= "
   935                                  ; Fused expression:    "L13 >= *ax 0 IF! "
   936                                  section .relod
   937 0000003C [CE020000]              	dd	L47
   938                                  section .text
   939 000002CC 66B8                    	db	0x66, 0xB8
   940                                  L47:
   941 000002CE [0C000000]              	dd	L13
   942 000002D2 6689C3                  	mov	ebx, eax
   943 000002D5 6689DE                  	mov	esi, ebx
   944 000002D8 66C1CE04                	ror	esi, 4
   945 000002DC 8EDE                    	mov	ds, si
   946 000002DE 66C1EE1C                	shr	esi, 28
   947 000002E2 668B04                  	mov	eax, [si]
   948 000002E5 6683F800                	cmp	eax, 0
   949 000002E9 0F8C3A02                	jl	L45
   950                                  ; {
   951                                  ; if
   952                                  ; RPN'ized expression: "c2cPFR DPOcupados + *u &u numElem -> *u 16 2 - == "
   953                                  ; Expanded expression: "c2cPFR 16 + 0 + *(4) 14 == "
   954                                  ; Fused expression:    "c2cPFR + ax 16 + ax 0 == *ax 14 IF! "
   955                                  section .relod
   956 00000040 [EF020000]              	dd	L50
   957                                  section .text
   958 000002ED 66B8                    	db	0x66, 0xB8
   959                                  L50:
   960 000002EF [00000000]              	dd	_c2cPFR
   961 000002F3 6683C010                	add	eax, 16
   962 000002F7 6689C3                  	mov	ebx, eax
   963 000002FA 6689DE                  	mov	esi, ebx
   964 000002FD 66C1CE04                	ror	esi, 4
   965 00000301 8EDE                    	mov	ds, si
   966 00000303 66C1EE1C                	shr	esi, 28
   967 00000307 668B04                  	mov	eax, [si]
   968 0000030A 6683F80E                	cmp	eax, 14
   969 0000030E 750E                    	jne	L48
   970                                  ; {
   971                                  
   972                                  section .rodata
   973                                  L51:
   974 00000000 0A20736F6C6F207175-     	db	10," solo queda un descriptor de proceso libre "
   974 00000009 65646120756E206465-
   974 00000012 7363726970746F7220-
   974 0000001B 64652070726F636573-
   974 00000024 6F206C6962726520   
   975 0000002C 00                      	times	1 db 0
   976                                  
   977                                  section .text
   978                                  ; RPN'ized expression: "( L51 printStrBIOS ) "
   979                                  ; Expanded expression: " L51  printStrBIOS ()4 "
   980                                  ; Fused expression:    "( L51 , printStrBIOS )4 "
   981                                  section .relod
   982 00000044 [12030000]              	dd	L52
   983                                  section .text
   984 00000310 6668                    	db	0x66, 0x68
   985                                  L52:
   986 00000312 [00000000]              	dd	L51
   987 00000316 9A                      	db	0x9A
   988                                  section .relot
   989 0000000C [17030000]              	dd	L53
   990                                  section .text
   991                                  L53:
   992 00000317 [00000000]              	dd	_printStrBIOS
   993 0000031B 83ECFC                  	sub	sp, -4
   994                                  ; }
   995                                  L48:
   996                                  ; RPN'ized expression: "descThread pindx + *u &u estado -> *u preparado = "
   997                                  ; Expanded expression: "descThread L13 *(4) 40 * + 4 + 1 =(4) "
   998                                  ; Fused expression:    "descThread push-ax L13 * *ax 40 + *sp ax + ax 4 =(204) *ax 1 "
   999                                  section .relod
  1000 00000048 [20030000]              	dd	L54
  1001                                  section .text
  1002 0000031E 66B8                    	db	0x66, 0xB8
  1003                                  L54:
  1004 00000320 [00000000]              	dd	_descThread
  1005 00000324 6650                    	push	eax
  1006                                  section .relod
  1007 0000004C [28030000]              	dd	L55
  1008                                  section .text
  1009 00000326 66B8                    	db	0x66, 0xB8
  1010                                  L55:
  1011 00000328 [0C000000]              	dd	L13
  1012 0000032C 6689C3                  	mov	ebx, eax
  1013 0000032F 6689DE                  	mov	esi, ebx
  1014 00000332 66C1CE04                	ror	esi, 4
  1015 00000336 8EDE                    	mov	ds, si
  1016 00000338 66C1EE1C                	shr	esi, 28
  1017 0000033C 668B04                  	mov	eax, [si]
  1018 0000033F 666BC028                	imul	eax, eax, 40
  1019 00000343 6689C1                  	mov	ecx, eax
  1020 00000346 6658                    	pop	eax
  1021 00000348 6601C8                  	add	eax, ecx
  1022 0000034B 6683C004                	add	eax, 4
  1023 0000034F 6689C3                  	mov	ebx, eax
  1024 00000352 66B801000000            	mov	eax, 1
  1025 00000358 6689DE                  	mov	esi, ebx
  1026 0000035B 66C1CE04                	ror	esi, 4
  1027 0000035F 8EDE                    	mov	ds, si
  1028 00000361 66C1EE1C                	shr	esi, 28
  1029 00000365 668904                  	mov	[si], eax
  1030                                  ; loc             <something> : * struct <something>
  1031                                  ; RPN'ized expression: "( c2cPFR TUrgentes + *u &u (something56) , pindx apilarPC2c ) "
  1032                                  ; Expanded expression: " c2cPFR 80 +  L13 *(4)  apilarPC2c ()8 "
  1033                                  ; Fused expression:    "( c2cPFR + ax 80 , L13 *(4) ax , apilarPC2c )8 "
  1034                                  section .relod
  1035 00000050 [6A030000]              	dd	L57
  1036                                  section .text
  1037 00000368 66B8                    	db	0x66, 0xB8
  1038                                  L57:
  1039 0000036A [00000000]              	dd	_c2cPFR
  1040 0000036E 6683C050                	add	eax, 80
  1041 00000372 6650                    	push	eax
  1042                                  section .relod
  1043 00000054 [76030000]              	dd	L58
  1044                                  section .text
  1045 00000374 66B8                    	db	0x66, 0xB8
  1046                                  L58:
  1047 00000376 [0C000000]              	dd	L13
  1048 0000037A 6689C3                  	mov	ebx, eax
  1049 0000037D 6689DE                  	mov	esi, ebx
  1050 00000380 66C1CE04                	ror	esi, 4
  1051 00000384 8EDE                    	mov	ds, si
  1052 00000386 66C1EE1C                	shr	esi, 28
  1053 0000038A 66FF34                  	push	dword [si]
  1054 0000038D 9A                      	db	0x9A
  1055                                  section .relot
  1056 00000010 [8E030000]              	dd	L59
  1057                                  section .text
  1058                                  L59:
  1059 0000038E [00000000]              	dd	_apilarPC2c
  1060 00000392 83ECF8                  	sub	sp, -8
  1061                                  ; RPN'ized expression: "descThread indThreadActual + *u &u estado -> *u preparado = "
  1062                                  ; Expanded expression: "descThread indThreadActual *(4) 40 * + 4 + 1 =(4) "
  1063                                  ; Fused expression:    "descThread push-ax indThreadActual * *ax 40 + *sp ax + ax 4 =(204) *ax 1 "
  1064                                  section .relod
  1065 00000058 [97030000]              	dd	L60
  1066                                  section .text
  1067 00000395 66B8                    	db	0x66, 0xB8
  1068                                  L60:
  1069 00000397 [00000000]              	dd	_descThread
  1070 0000039B 6650                    	push	eax
  1071                                  section .relod
  1072 0000005C [9F030000]              	dd	L61
  1073                                  section .text
  1074 0000039D 66B8                    	db	0x66, 0xB8
  1075                                  L61:
  1076 0000039F [00000000]              	dd	_indThreadActual
  1077 000003A3 6689C3                  	mov	ebx, eax
  1078 000003A6 6689DE                  	mov	esi, ebx
  1079 000003A9 66C1CE04                	ror	esi, 4
  1080 000003AD 8EDE                    	mov	ds, si
  1081 000003AF 66C1EE1C                	shr	esi, 28
  1082 000003B3 668B04                  	mov	eax, [si]
  1083 000003B6 666BC028                	imul	eax, eax, 40
  1084 000003BA 6689C1                  	mov	ecx, eax
  1085 000003BD 6658                    	pop	eax
  1086 000003BF 6601C8                  	add	eax, ecx
  1087 000003C2 6683C004                	add	eax, 4
  1088 000003C6 6689C3                  	mov	ebx, eax
  1089 000003C9 66B801000000            	mov	eax, 1
  1090 000003CF 6689DE                  	mov	esi, ebx
  1091 000003D2 66C1CE04                	ror	esi, 4
  1092 000003D6 8EDE                    	mov	ds, si
  1093 000003D8 66C1EE1C                	shr	esi, 28
  1094 000003DC 668904                  	mov	[si], eax
  1095                                  ; loc             <something> : * struct <something>
  1096                                  ; RPN'ized expression: "( c2cPFR TUrgentes + *u &u (something62) , indThreadActual apilarPC2c ) "
  1097                                  ; Expanded expression: " c2cPFR 80 +  indThreadActual *(4)  apilarPC2c ()8 "
  1098                                  ; Fused expression:    "( c2cPFR + ax 80 , indThreadActual *(4) ax , apilarPC2c )8 "
  1099                                  section .relod
  1100 00000060 [E1030000]              	dd	L63
  1101                                  section .text
  1102 000003DF 66B8                    	db	0x66, 0xB8
  1103                                  L63:
  1104 000003E1 [00000000]              	dd	_c2cPFR
  1105 000003E5 6683C050                	add	eax, 80
  1106 000003E9 6650                    	push	eax
  1107                                  section .relod
  1108 00000064 [ED030000]              	dd	L64
  1109                                  section .text
  1110 000003EB 66B8                    	db	0x66, 0xB8
  1111                                  L64:
  1112 000003ED [00000000]              	dd	_indThreadActual
  1113 000003F1 6689C3                  	mov	ebx, eax
  1114 000003F4 6689DE                  	mov	esi, ebx
  1115 000003F7 66C1CE04                	ror	esi, 4
  1116 000003FB 8EDE                    	mov	ds, si
  1117 000003FD 66C1EE1C                	shr	esi, 28
  1118 00000401 66FF34                  	push	dword [si]
  1119 00000404 9A                      	db	0x9A
  1120                                  section .relot
  1121 00000014 [05040000]              	dd	L65
  1122                                  section .text
  1123                                  L65:
  1124 00000405 [00000000]              	dd	_apilarPC2c
  1125 00000409 83ECF8                  	sub	sp, -8
  1126                                  ; if
  1127                                  ; RPN'ized expression: "tramaThread tb -> *u &u AL -> *u 1 == "
  1128                                  ; Expanded expression: "tramaThread *(4) 0 + 32 + *(1) 1 == "
  1129                                  ; Fused expression:    "tramaThread + *ax 0 + ax 32 == *ax 1 IF! "
  1130                                  section .relod
  1131 00000068 [0E040000]              	dd	L68
  1132                                  section .text
  1133 0000040C 66B8                    	db	0x66, 0xB8
  1134                                  L68:
  1135 0000040E [00000000]              	dd	_tramaThread
  1136 00000412 6689C3                  	mov	ebx, eax
  1137 00000415 6689DE                  	mov	esi, ebx
  1138 00000418 66C1CE04                	ror	esi, 4
  1139 0000041C 8EDE                    	mov	ds, si
  1140 0000041E 66C1EE1C                	shr	esi, 28
  1141 00000422 668B04                  	mov	eax, [si]
  1142 00000425 6683C020                	add	eax, 32
  1143 00000429 6689C3                  	mov	ebx, eax
  1144 0000042C 6689DE                  	mov	esi, ebx
  1145 0000042F 66C1CE04                	ror	esi, 4
  1146 00000433 8EDE                    	mov	ds, si
  1147 00000435 66C1EE1C                	shr	esi, 28
  1148 00000439 8A04                    	mov	al, [si]
  1149 0000043B 660FB6C0                	movzx	eax, al
  1150 0000043F 6683F801                	cmp	eax, 1
  1151 00000443 7564                    	jne	L66
  1152                                  ; RPN'ized expression: "descThread pindx + *u &u trama -> *u tw -> *u &u DX -> *u 0 = "
  1153                                  ; Expanded expression: "descThread L13 *(4) 40 * + 12 + *(4) 0 + 24 + 0 =(2) "
  1154                                  ; Fused expression:    "descThread push-ax L13 * *ax 40 + *sp ax + ax 12 + *ax 0 + ax 24 =(172) *ax 0 "
  1155                                  section .relod
  1156 0000006C [47040000]              	dd	L69
  1157                                  section .text
  1158 00000445 66B8                    	db	0x66, 0xB8
  1159                                  L69:
  1160 00000447 [00000000]              	dd	_descThread
  1161 0000044B 6650                    	push	eax
  1162                                  section .relod
  1163 00000070 [4F040000]              	dd	L70
  1164                                  section .text
  1165 0000044D 66B8                    	db	0x66, 0xB8
  1166                                  L70:
  1167 0000044F [0C000000]              	dd	L13
  1168 00000453 6689C3                  	mov	ebx, eax
  1169 00000456 6689DE                  	mov	esi, ebx
  1170 00000459 66C1CE04                	ror	esi, 4
  1171 0000045D 8EDE                    	mov	ds, si
  1172 0000045F 66C1EE1C                	shr	esi, 28
  1173 00000463 668B04                  	mov	eax, [si]
  1174 00000466 666BC028                	imul	eax, eax, 40
  1175 0000046A 6689C1                  	mov	ecx, eax
  1176 0000046D 6658                    	pop	eax
  1177 0000046F 6601C8                  	add	eax, ecx
  1178 00000472 6683C00C                	add	eax, 12
  1179 00000476 6689C3                  	mov	ebx, eax
  1180 00000479 6689DE                  	mov	esi, ebx
  1181 0000047C 66C1CE04                	ror	esi, 4
  1182 00000480 8EDE                    	mov	ds, si
  1183 00000482 66C1EE1C                	shr	esi, 28
  1184 00000486 668B04                  	mov	eax, [si]
  1185 00000489 6683C018                	add	eax, 24
  1186 0000048D 6689C3                  	mov	ebx, eax
  1187 00000490 66B800000000            	mov	eax, 0
  1188 00000496 6689DE                  	mov	esi, ebx
  1189 00000499 66C1CE04                	ror	esi, 4
  1190 0000049D 8EDE                    	mov	ds, si
  1191 0000049F 66C1EE1C                	shr	esi, 28
  1192 000004A3 8904                    	mov	[si], ax
  1193 000004A5 660FB7C0                	movzx	eax, ax
  1194                                  L66:
  1195                                  ; RPN'ized expression: "tramaThread tw -> *u &u DX -> *u descProceso pindx + *u &u pid -> *u = "
  1196                                  ; Expanded expression: "tramaThread *(4) 0 + 24 + descProceso L13 *(4) 292 * + 0 + *(4) =(2) "
  1197                                  ; Fused expression:    "tramaThread + *ax 0 + ax 24 push-ax descProceso push-ax L13 * *ax 292 + *sp ax + ax 0 =(172) **sp *ax "
  1198                                  section .relod
  1199 00000074 [AB040000]              	dd	L71
  1200                                  section .text
  1201 000004A9 66B8                    	db	0x66, 0xB8
  1202                                  L71:
  1203 000004AB [00000000]              	dd	_tramaThread
  1204 000004AF 6689C3                  	mov	ebx, eax
  1205 000004B2 6689DE                  	mov	esi, ebx
  1206 000004B5 66C1CE04                	ror	esi, 4
  1207 000004B9 8EDE                    	mov	ds, si
  1208 000004BB 66C1EE1C                	shr	esi, 28
  1209 000004BF 668B04                  	mov	eax, [si]
  1210 000004C2 6683C018                	add	eax, 24
  1211 000004C6 6650                    	push	eax
  1212                                  section .relod
  1213 00000078 [CA040000]              	dd	L72
  1214                                  section .text
  1215 000004C8 66B8                    	db	0x66, 0xB8
  1216                                  L72:
  1217 000004CA [00000000]              	dd	_descProceso
  1218 000004CE 6650                    	push	eax
  1219                                  section .relod
  1220 0000007C [D2040000]              	dd	L73
  1221                                  section .text
  1222 000004D0 66B8                    	db	0x66, 0xB8
  1223                                  L73:
  1224 000004D2 [0C000000]              	dd	L13
  1225 000004D6 6689C3                  	mov	ebx, eax
  1226 000004D9 6689DE                  	mov	esi, ebx
  1227 000004DC 66C1CE04                	ror	esi, 4
  1228 000004E0 8EDE                    	mov	ds, si
  1229 000004E2 66C1EE1C                	shr	esi, 28
  1230 000004E6 668B04                  	mov	eax, [si]
  1231 000004E9 6669C024010000          	imul	eax, eax, 292
  1232 000004F0 6689C1                  	mov	ecx, eax
  1233 000004F3 6658                    	pop	eax
  1234 000004F5 6601C8                  	add	eax, ecx
  1235 000004F8 6689C3                  	mov	ebx, eax
  1236 000004FB 6689DE                  	mov	esi, ebx
  1237 000004FE 66C1CE04                	ror	esi, 4
  1238 00000502 8EDE                    	mov	ds, si
  1239 00000504 66C1EE1C                	shr	esi, 28
  1240 00000508 668B04                  	mov	eax, [si]
  1241 0000050B 665B                    	pop	ebx
  1242 0000050D 6689DE                  	mov	esi, ebx
  1243 00000510 66C1CE04                	ror	esi, 4
  1244 00000514 8EDE                    	mov	ds, si
  1245 00000516 66C1EE1C                	shr	esi, 28
  1246 0000051A 8904                    	mov	[si], ax
  1247 0000051C 660FB7C0                	movzx	eax, ax
  1248                                  ; RPN'ized expression: "( buscarNuevoThreadActual ) "
  1249                                  ; Expanded expression: " buscarNuevoThreadActual ()0 "
  1250                                  ; Fused expression:    "( buscarNuevoThreadActual )0 "
  1251 00000520 9A                      	db	0x9A
  1252                                  section .relot
  1253 00000018 [21050000]              	dd	L74
  1254                                  section .text
  1255                                  L74:
  1256 00000521 [00000000]              	dd	_buscarNuevoThreadActual
  1257                                  ; }
  1258 00000525 EB4D                    	jmp	L46
  1259                                  L45:
  1260                                  ; else
  1261                                  ; RPN'ized expression: "tramaThread tw -> *u &u DX -> *u pindx = "
  1262                                  ; Expanded expression: "tramaThread *(4) 0 + 24 + L13 *(4) =(2) "
  1263                                  ; Fused expression:    "tramaThread + *ax 0 + ax 24 push-ax L13 =(172) **sp *ax "
  1264                                  section .relod
  1265 00000080 [29050000]              	dd	L75
  1266                                  section .text
  1267 00000527 66B8                    	db	0x66, 0xB8
  1268                                  L75:
  1269 00000529 [00000000]              	dd	_tramaThread
  1270 0000052D 6689C3                  	mov	ebx, eax
  1271 00000530 6689DE                  	mov	esi, ebx
  1272 00000533 66C1CE04                	ror	esi, 4
  1273 00000537 8EDE                    	mov	ds, si
  1274 00000539 66C1EE1C                	shr	esi, 28
  1275 0000053D 668B04                  	mov	eax, [si]
  1276 00000540 6683C018                	add	eax, 24
  1277 00000544 6650                    	push	eax
  1278                                  section .relod
  1279 00000084 [48050000]              	dd	L76
  1280                                  section .text
  1281 00000546 66B8                    	db	0x66, 0xB8
  1282                                  L76:
  1283 00000548 [0C000000]              	dd	L13
  1284 0000054C 6689C3                  	mov	ebx, eax
  1285 0000054F 6689DE                  	mov	esi, ebx
  1286 00000552 66C1CE04                	ror	esi, 4
  1287 00000556 8EDE                    	mov	ds, si
  1288 00000558 66C1EE1C                	shr	esi, 28
  1289 0000055C 668B04                  	mov	eax, [si]
  1290 0000055F 665B                    	pop	ebx
  1291 00000561 6689DE                  	mov	esi, ebx
  1292 00000564 66C1CE04                	ror	esi, 4
  1293 00000568 8EDE                    	mov	ds, si
  1294 0000056A 66C1EE1C                	shr	esi, 28
  1295 0000056E 8904                    	mov	[si], ax
  1296 00000570 660FB7C0                	movzx	eax, ax
  1297                                  L46:
  1298                                  ; break
  1299 00000574 E92113                  	jmp	L16
  1300                                  ; case
  1301                                  ; RPN'ized expression: "2 "
  1302                                  ; Expanded expression: "2 "
  1303                                  ; Expression value: 2
  1304                                  L77:
  1305                                  ; loc         <something> : * char
  1306                                  ; loc         <something> : unsigned
  1307                                  ; loc         <something> : unsigned short
  1308                                  ; loc         <something> : * char
  1309                                  ; loc         <something> : unsigned
  1310                                  ; loc         <something> : unsigned short
  1311                                  ; RPN'ized expression: "pindx ( indProcesoActual , tramaThread tw -> *u &u ES -> *u (something82) 16 << tramaThread tw -> *u &u DX -> *u (something83) | (something81) , tramaThread tw -> *u &u CX -> *u (something79)
  1312                                  ; Expanded expression: "L13  indProcesoActual *(4)  tramaThread *(4) 0 + 2 + *(2) 16 << tramaThread *(4) 0 + 24 + *(2) unsigned short |  tramaThread *(4) 0 + 28 + *(2) 16 << tramaThread *(4) 0 + 20 + *(2) unsigned s
  1313                                  ; Fused expression:    "L13 push-ax ( indProcesoActual *(4) ax , tramaThread + *ax 0 + ax 2 << *ax 16 push-ax tramaThread + *ax 0 + ax 24 *(2) ax unsigned short | *sp ax , tramaThread + *ax 0 + ax 28 << *ax 16 push-
  1314                                  section .relod
  1315 00000088 [79050000]              	dd	L84
  1316                                  section .text
  1317 00000577 66B8                    	db	0x66, 0xB8
  1318                                  L84:
  1319 00000579 [0C000000]              	dd	L13
  1320 0000057D 6650                    	push	eax
  1321                                  section .relod
  1322 0000008C [81050000]              	dd	L85
  1323                                  section .text
  1324 0000057F 66B8                    	db	0x66, 0xB8
  1325                                  L85:
  1326 00000581 [00000000]              	dd	_indProcesoActual
  1327 00000585 6689C3                  	mov	ebx, eax
  1328 00000588 6689DE                  	mov	esi, ebx
  1329 0000058B 66C1CE04                	ror	esi, 4
  1330 0000058F 8EDE                    	mov	ds, si
  1331 00000591 66C1EE1C                	shr	esi, 28
  1332 00000595 66FF34                  	push	dword [si]
  1333                                  section .relod
  1334 00000090 [9A050000]              	dd	L86
  1335                                  section .text
  1336 00000598 66B8                    	db	0x66, 0xB8
  1337                                  L86:
  1338 0000059A [00000000]              	dd	_tramaThread
  1339 0000059E 6689C3                  	mov	ebx, eax
  1340 000005A1 6689DE                  	mov	esi, ebx
  1341 000005A4 66C1CE04                	ror	esi, 4
  1342 000005A8 8EDE                    	mov	ds, si
  1343 000005AA 66C1EE1C                	shr	esi, 28
  1344 000005AE 668B04                  	mov	eax, [si]
  1345 000005B1 6683C002                	add	eax, 2
  1346 000005B5 6689C3                  	mov	ebx, eax
  1347 000005B8 6689DE                  	mov	esi, ebx
  1348 000005BB 66C1CE04                	ror	esi, 4
  1349 000005BF 8EDE                    	mov	ds, si
  1350 000005C1 66C1EE1C                	shr	esi, 28
  1351 000005C5 8B04                    	mov	ax, [si]
  1352 000005C7 660FB7C0                	movzx	eax, ax
  1353 000005CB 66C1E010                	shl	eax, 16
  1354 000005CF 6650                    	push	eax
  1355                                  section .relod
  1356 00000094 [D3050000]              	dd	L87
  1357                                  section .text
  1358 000005D1 66B8                    	db	0x66, 0xB8
  1359                                  L87:
  1360 000005D3 [00000000]              	dd	_tramaThread
  1361 000005D7 6689C3                  	mov	ebx, eax
  1362 000005DA 6689DE                  	mov	esi, ebx
  1363 000005DD 66C1CE04                	ror	esi, 4
  1364 000005E1 8EDE                    	mov	ds, si
  1365 000005E3 66C1EE1C                	shr	esi, 28
  1366 000005E7 668B04                  	mov	eax, [si]
  1367 000005EA 6683C018                	add	eax, 24
  1368 000005EE 6689C3                  	mov	ebx, eax
  1369 000005F1 6689DE                  	mov	esi, ebx
  1370 000005F4 66C1CE04                	ror	esi, 4
  1371 000005F8 8EDE                    	mov	ds, si
  1372 000005FA 66C1EE1C                	shr	esi, 28
  1373 000005FE 8B04                    	mov	ax, [si]
  1374 00000600 660FB7C0                	movzx	eax, ax
  1375 00000604 660FB7C0                	movzx	eax, ax
  1376 00000608 6689C1                  	mov	ecx, eax
  1377 0000060B 6658                    	pop	eax
  1378 0000060D 6609C8                  	or	eax, ecx
  1379 00000610 6650                    	push	eax
  1380                                  section .relod
  1381 00000098 [14060000]              	dd	L88
  1382                                  section .text
  1383 00000612 66B8                    	db	0x66, 0xB8
  1384                                  L88:
  1385 00000614 [00000000]              	dd	_tramaThread
  1386 00000618 6689C3                  	mov	ebx, eax
  1387 0000061B 6689DE                  	mov	esi, ebx
  1388 0000061E 66C1CE04                	ror	esi, 4
  1389 00000622 8EDE                    	mov	ds, si
  1390 00000624 66C1EE1C                	shr	esi, 28
  1391 00000628 668B04                  	mov	eax, [si]
  1392 0000062B 6683C01C                	add	eax, 28
  1393 0000062F 6689C3                  	mov	ebx, eax
  1394 00000632 6689DE                  	mov	esi, ebx
  1395 00000635 66C1CE04                	ror	esi, 4
  1396 00000639 8EDE                    	mov	ds, si
  1397 0000063B 66C1EE1C                	shr	esi, 28
  1398 0000063F 8B04                    	mov	ax, [si]
  1399 00000641 660FB7C0                	movzx	eax, ax
  1400 00000645 66C1E010                	shl	eax, 16
  1401 00000649 6650                    	push	eax
  1402                                  section .relod
  1403 0000009C [4D060000]              	dd	L89
  1404                                  section .text
  1405 0000064B 66B8                    	db	0x66, 0xB8
  1406                                  L89:
  1407 0000064D [00000000]              	dd	_tramaThread
  1408 00000651 6689C3                  	mov	ebx, eax
  1409 00000654 6689DE                  	mov	esi, ebx
  1410 00000657 66C1CE04                	ror	esi, 4
  1411 0000065B 8EDE                    	mov	ds, si
  1412 0000065D 66C1EE1C                	shr	esi, 28
  1413 00000661 668B04                  	mov	eax, [si]
  1414 00000664 6683C014                	add	eax, 20
  1415 00000668 6689C3                  	mov	ebx, eax
  1416 0000066B 6689DE                  	mov	esi, ebx
  1417 0000066E 66C1CE04                	ror	esi, 4
  1418 00000672 8EDE                    	mov	ds, si
  1419 00000674 66C1EE1C                	shr	esi, 28
  1420 00000678 8B04                    	mov	ax, [si]
  1421 0000067A 660FB7C0                	movzx	eax, ax
  1422 0000067E 660FB7C0                	movzx	eax, ax
  1423 00000682 6689C1                  	mov	ecx, eax
  1424 00000685 6658                    	pop	eax
  1425 00000687 6609C8                  	or	eax, ecx
  1426 0000068A 6650                    	push	eax
  1427 0000068C 9A                      	db	0x9A
  1428                                  section .relot
  1429 0000001C [8D060000]              	dd	L90
  1430                                  section .text
  1431                                  L90:
  1432 0000068D [00000000]              	dd	_preEjecutar
  1433 00000691 83ECF4                  	sub	sp, -12
  1434 00000694 665B                    	pop	ebx
  1435 00000696 6689DE                  	mov	esi, ebx
  1436 00000699 66C1CE04                	ror	esi, 4
  1437 0000069D 8EDE                    	mov	ds, si
  1438 0000069F 66C1EE1C                	shr	esi, 28
  1439 000006A3 668904                  	mov	[si], eax
  1440                                  ; if
  1441                                  ; RPN'ized expression: "pindx 5 -u < "
  1442                                  ; Expanded expression: "L13 *(4) -5 < "
  1443                                  ; Fused expression:    "L13 < *ax -5 IF! "
  1444                                  section .relod
  1445 000000A0 [A8060000]              	dd	L93
  1446                                  section .text
  1447 000006A6 66B8                    	db	0x66, 0xB8
  1448                                  L93:
  1449 000006A8 [0C000000]              	dd	L13
  1450 000006AC 6689C3                  	mov	ebx, eax
  1451 000006AF 6689DE                  	mov	esi, ebx
  1452 000006B2 66C1CE04                	ror	esi, 4
  1453 000006B6 8EDE                    	mov	ds, si
  1454 000006B8 66C1EE1C                	shr	esi, 28
  1455 000006BC 668B04                  	mov	eax, [si]
  1456 000006BF 6683F8FB                	cmp	eax, -5
  1457 000006C3 0F8D4101                	jge	L91
  1458                                  ; {
  1459                                  ; RPN'ized expression: "descThread indThreadActual + *u &u estado -> *u bloqueado = "
  1460                                  ; Expanded expression: "descThread indThreadActual *(4) 40 * + 4 + 3 =(4) "
  1461                                  ; Fused expression:    "descThread push-ax indThreadActual * *ax 40 + *sp ax + ax 4 =(204) *ax 3 "
  1462                                  section .relod
  1463 000000A4 [C9060000]              	dd	L94
  1464                                  section .text
  1465 000006C7 66B8                    	db	0x66, 0xB8
  1466                                  L94:
  1467 000006C9 [00000000]              	dd	_descThread
  1468 000006CD 6650                    	push	eax
  1469                                  section .relod
  1470 000000A8 [D1060000]              	dd	L95
  1471                                  section .text
  1472 000006CF 66B8                    	db	0x66, 0xB8
  1473                                  L95:
  1474 000006D1 [00000000]              	dd	_indThreadActual
  1475 000006D5 6689C3                  	mov	ebx, eax
  1476 000006D8 6689DE                  	mov	esi, ebx
  1477 000006DB 66C1CE04                	ror	esi, 4
  1478 000006DF 8EDE                    	mov	ds, si
  1479 000006E1 66C1EE1C                	shr	esi, 28
  1480 000006E5 668B04                  	mov	eax, [si]
  1481 000006E8 666BC028                	imul	eax, eax, 40
  1482 000006EC 6689C1                  	mov	ecx, eax
  1483 000006EF 6658                    	pop	eax
  1484 000006F1 6601C8                  	add	eax, ecx
  1485 000006F4 6683C004                	add	eax, 4
  1486 000006F8 6689C3                  	mov	ebx, eax
  1487 000006FB 66B803000000            	mov	eax, 3
  1488 00000701 6689DE                  	mov	esi, ebx
  1489 00000704 66C1CE04                	ror	esi, 4
  1490 00000708 8EDE                    	mov	ds, si
  1491 0000070A 66C1EE1C                	shr	esi, 28
  1492 0000070E 668904                  	mov	[si], eax
  1493                                  ; loc             <something> : int
  1494                                  ; RPN'ized expression: "descThread indThreadActual + *u &u esperandoPor -> *u 2 -u (something96) = "
  1495                                  ; Expanded expression: "descThread indThreadActual *(4) 40 * + 8 + -2 =(4) "
  1496                                  ; Fused expression:    "descThread push-ax indThreadActual * *ax 40 + *sp ax + ax 8 =(204) *ax -2 "
  1497                                  section .relod
  1498 000000AC [13070000]              	dd	L97
  1499                                  section .text
  1500 00000711 66B8                    	db	0x66, 0xB8
  1501                                  L97:
  1502 00000713 [00000000]              	dd	_descThread
  1503 00000717 6650                    	push	eax
  1504                                  section .relod
  1505 000000B0 [1B070000]              	dd	L98
  1506                                  section .text
  1507 00000719 66B8                    	db	0x66, 0xB8
  1508                                  L98:
  1509 0000071B [00000000]              	dd	_indThreadActual
  1510 0000071F 6689C3                  	mov	ebx, eax
  1511 00000722 6689DE                  	mov	esi, ebx
  1512 00000725 66C1CE04                	ror	esi, 4
  1513 00000729 8EDE                    	mov	ds, si
  1514 0000072B 66C1EE1C                	shr	esi, 28
  1515 0000072F 668B04                  	mov	eax, [si]
  1516 00000732 666BC028                	imul	eax, eax, 40
  1517 00000736 6689C1                  	mov	ecx, eax
  1518 00000739 6658                    	pop	eax
  1519 0000073B 6601C8                  	add	eax, ecx
  1520 0000073E 6683C008                	add	eax, 8
  1521 00000742 6689C3                  	mov	ebx, eax
  1522 00000745 66B8FEFFFFFF            	mov	eax, -2
  1523 0000074B 6689DE                  	mov	esi, ebx
  1524 0000074E 66C1CE04                	ror	esi, 4
  1525 00000752 8EDE                    	mov	ds, si
  1526 00000754 66C1EE1C                	shr	esi, 28
  1527 00000758 668904                  	mov	[si], eax
  1528                                  ; RPN'ized expression: "( indProcesoActual eliminarProcIndx ) "
  1529                                  ; Expanded expression: " indProcesoActual *(4)  eliminarProcIndx ()4 "
  1530                                  ; Fused expression:    "( indProcesoActual *(4) ax , eliminarProcIndx )4 "
  1531                                  section .relod
  1532 000000B4 [5D070000]              	dd	L99
  1533                                  section .text
  1534 0000075B 66B8                    	db	0x66, 0xB8
  1535                                  L99:
  1536 0000075D [00000000]              	dd	_indProcesoActual
  1537 00000761 6689C3                  	mov	ebx, eax
  1538 00000764 6689DE                  	mov	esi, ebx
  1539 00000767 66C1CE04                	ror	esi, 4
  1540 0000076B 8EDE                    	mov	ds, si
  1541 0000076D 66C1EE1C                	shr	esi, 28
  1542 00000771 66FF34                  	push	dword [si]
  1543 00000774 9A                      	db	0x9A
  1544                                  section .relot
  1545 00000020 [75070000]              	dd	L100
  1546                                  section .text
  1547                                  L100:
  1548 00000775 [00000000]              	dd	_eliminarProcIndx
  1549 00000779 83ECFC                  	sub	sp, -4
  1550                                  ; loc             <something> : * struct <something>
  1551                                  ; RPN'ized expression: "( descProceso indProcesoActual + *u &u c2cHijos -> *u &u (something101) , descProceso indProcesoActual + *u &u ppindx -> *u eliminarPC2c ) "
  1552                                  ; Expanded expression: " descProceso indProcesoActual *(4) 292 * + 20 +  descProceso indProcesoActual *(4) 292 * + 12 + *(4)  eliminarPC2c ()8 "
  1553                                  ; Fused expression:    "( descProceso push-ax indProcesoActual * *ax 292 + *sp ax + ax 20 , descProceso push-ax indProcesoActual * *ax 292 + *sp ax + ax 12 *(4) ax , eliminarPC2c )8 "
  1554                                  section .relod
  1555 000000B8 [7E070000]              	dd	L102
  1556                                  section .text
  1557 0000077C 66B8                    	db	0x66, 0xB8
  1558                                  L102:
  1559 0000077E [00000000]              	dd	_descProceso
  1560 00000782 6650                    	push	eax
  1561                                  section .relod
  1562 000000BC [86070000]              	dd	L103
  1563                                  section .text
  1564 00000784 66B8                    	db	0x66, 0xB8
  1565                                  L103:
  1566 00000786 [00000000]              	dd	_indProcesoActual
  1567 0000078A 6689C3                  	mov	ebx, eax
  1568 0000078D 6689DE                  	mov	esi, ebx
  1569 00000790 66C1CE04                	ror	esi, 4
  1570 00000794 8EDE                    	mov	ds, si
  1571 00000796 66C1EE1C                	shr	esi, 28
  1572 0000079A 668B04                  	mov	eax, [si]
  1573 0000079D 6669C024010000          	imul	eax, eax, 292
  1574 000007A4 6689C1                  	mov	ecx, eax
  1575 000007A7 6658                    	pop	eax
  1576 000007A9 6601C8                  	add	eax, ecx
  1577 000007AC 6683C014                	add	eax, 20
  1578 000007B0 6650                    	push	eax
  1579                                  section .relod
  1580 000000C0 [B4070000]              	dd	L104
  1581                                  section .text
  1582 000007B2 66B8                    	db	0x66, 0xB8
  1583                                  L104:
  1584 000007B4 [00000000]              	dd	_descProceso
  1585 000007B8 6650                    	push	eax
  1586                                  section .relod
  1587 000000C4 [BC070000]              	dd	L105
  1588                                  section .text
  1589 000007BA 66B8                    	db	0x66, 0xB8
  1590                                  L105:
  1591 000007BC [00000000]              	dd	_indProcesoActual
  1592 000007C0 6689C3                  	mov	ebx, eax
  1593 000007C3 6689DE                  	mov	esi, ebx
  1594 000007C6 66C1CE04                	ror	esi, 4
  1595 000007CA 8EDE                    	mov	ds, si
  1596 000007CC 66C1EE1C                	shr	esi, 28
  1597 000007D0 668B04                  	mov	eax, [si]
  1598 000007D3 6669C024010000          	imul	eax, eax, 292
  1599 000007DA 6689C1                  	mov	ecx, eax
  1600 000007DD 6658                    	pop	eax
  1601 000007DF 6601C8                  	add	eax, ecx
  1602 000007E2 6683C00C                	add	eax, 12
  1603 000007E6 6689C3                  	mov	ebx, eax
  1604 000007E9 6689DE                  	mov	esi, ebx
  1605 000007EC 66C1CE04                	ror	esi, 4
  1606 000007F0 8EDE                    	mov	ds, si
  1607 000007F2 66C1EE1C                	shr	esi, 28
  1608 000007F6 66FF34                  	push	dword [si]
  1609 000007F9 9A                      	db	0x9A
  1610                                  section .relot
  1611 00000024 [FA070000]              	dd	L106
  1612                                  section .text
  1613                                  L106:
  1614 000007FA [00000000]              	dd	_eliminarPC2c
  1615 000007FE 83ECF8                  	sub	sp, -8
  1616                                  ; RPN'ized expression: "( buscarNuevoThreadActual ) "
  1617                                  ; Expanded expression: " buscarNuevoThreadActual ()0 "
  1618                                  ; Fused expression:    "( buscarNuevoThreadActual )0 "
  1619 00000801 9A                      	db	0x9A
  1620                                  section .relot
  1621 00000028 [02080000]              	dd	L107
  1622                                  section .text
  1623                                  L107:
  1624 00000802 [00000000]              	dd	_buscarNuevoThreadActual
  1625                                  ; }
  1626 00000806 EB45                    	jmp	L92
  1627                                  L91:
  1628                                  ; else
  1629                                  ; if
  1630                                  ; RPN'ized expression: "pindx 0 < "
  1631                                  ; Expanded expression: "L13 *(4) 0 < "
  1632                                  ; Fused expression:    "L13 < *ax 0 IF! "
  1633                                  section .relod
  1634 000000C8 [0A080000]              	dd	L110
  1635                                  section .text
  1636 00000808 66B8                    	db	0x66, 0xB8
  1637                                  L110:
  1638 0000080A [0C000000]              	dd	L13
  1639 0000080E 6689C3                  	mov	ebx, eax
  1640 00000811 6689DE                  	mov	esi, ebx
  1641 00000814 66C1CE04                	ror	esi, 4
  1642 00000818 8EDE                    	mov	ds, si
  1643 0000081A 66C1EE1C                	shr	esi, 28
  1644 0000081E 668B04                  	mov	eax, [si]
  1645 00000821 6683F800                	cmp	eax, 0
  1646 00000825 7D05                    	jge	L108
  1647                                  ; break
  1648 00000827 E96E10                  	jmp	L16
  1649 0000082A EB21                    	jmp	L109
  1650                                  L108:
  1651                                  ; else
  1652                                  ; RPN'ized expression: "( pindx activarThread ) "
  1653                                  ; Expanded expression: " L13 *(4)  activarThread ()4 "
  1654                                  ; Fused expression:    "( L13 *(4) ax , activarThread )4 "
  1655                                  section .relod
  1656 000000CC [2E080000]              	dd	L111
  1657                                  section .text
  1658 0000082C 66B8                    	db	0x66, 0xB8
  1659                                  L111:
  1660 0000082E [0C000000]              	dd	L13
  1661 00000832 6689C3                  	mov	ebx, eax
  1662 00000835 6689DE                  	mov	esi, ebx
  1663 00000838 66C1CE04                	ror	esi, 4
  1664 0000083C 8EDE                    	mov	ds, si
  1665 0000083E 66C1EE1C                	shr	esi, 28
  1666 00000842 66FF34                  	push	dword [si]
  1667 00000845 9A                      	db	0x9A
  1668                                  section .relot
  1669 0000002C [46080000]              	dd	L112
  1670                                  section .text
  1671                                  L112:
  1672 00000846 [00000000]              	dd	_activarThread
  1673 0000084A 83ECFC                  	sub	sp, -4
  1674                                  L109:
  1675                                  L92:
  1676                                  ; case
  1677                                  ; RPN'ized expression: "3 "
  1678                                  ; Expanded expression: "3 "
  1679                                  ; Expression value: 3
  1680                                  L113:
  1681                                  ; RPN'ized expression: "hpid tramaThread tw -> *u &u BX -> *u = "
  1682                                  ; Expanded expression: "L12 tramaThread *(4) 0 + 20 + *(2) =(4) "
  1683                                  ; Fused expression:    "L12 push-ax tramaThread + *ax 0 + ax 20 =(202) **sp *ax "
  1684                                  section .relod
  1685 000000D0 [4F080000]              	dd	L114
  1686                                  section .text
  1687 0000084D 66B8                    	db	0x66, 0xB8
  1688                                  L114:
  1689 0000084F [08000000]              	dd	L12
  1690 00000853 6650                    	push	eax
  1691                                  section .relod
  1692 000000D4 [57080000]              	dd	L115
  1693                                  section .text
  1694 00000855 66B8                    	db	0x66, 0xB8
  1695                                  L115:
  1696 00000857 [00000000]              	dd	_tramaThread
  1697 0000085B 6689C3                  	mov	ebx, eax
  1698 0000085E 6689DE                  	mov	esi, ebx
  1699 00000861 66C1CE04                	ror	esi, 4
  1700 00000865 8EDE                    	mov	ds, si
  1701 00000867 66C1EE1C                	shr	esi, 28
  1702 0000086B 668B04                  	mov	eax, [si]
  1703 0000086E 6683C014                	add	eax, 20
  1704 00000872 6689C3                  	mov	ebx, eax
  1705 00000875 6689DE                  	mov	esi, ebx
  1706 00000878 66C1CE04                	ror	esi, 4
  1707 0000087C 8EDE                    	mov	ds, si
  1708 0000087E 66C1EE1C                	shr	esi, 28
  1709 00000882 8B04                    	mov	ax, [si]
  1710 00000884 660FB7C0                	movzx	eax, ax
  1711 00000888 665B                    	pop	ebx
  1712 0000088A 6689DE                  	mov	esi, ebx
  1713 0000088D 66C1CE04                	ror	esi, 4
  1714 00000891 8EDE                    	mov	ds, si
  1715 00000893 66C1EE1C                	shr	esi, 28
  1716 00000897 668904                  	mov	[si], eax
  1717                                  ; RPN'ized expression: "hpindx ( hpid indice ) = "
  1718                                  ; Expanded expression: "L14  L12 *(4)  indice ()4 =(4) "
  1719                                  ; Fused expression:    "L14 push-ax ( L12 *(4) ax , indice )4 =(204) **sp ax "
  1720                                  section .relod
  1721 000000D8 [9C080000]              	dd	L116
  1722                                  section .text
  1723 0000089A 66B8                    	db	0x66, 0xB8
  1724                                  L116:
  1725 0000089C [10000000]              	dd	L14
  1726 000008A0 6650                    	push	eax
  1727                                  section .relod
  1728 000000DC [A4080000]              	dd	L117
  1729                                  section .text
  1730 000008A2 66B8                    	db	0x66, 0xB8
  1731                                  L117:
  1732 000008A4 [08000000]              	dd	L12
  1733 000008A8 6689C3                  	mov	ebx, eax
  1734 000008AB 6689DE                  	mov	esi, ebx
  1735 000008AE 66C1CE04                	ror	esi, 4
  1736 000008B2 8EDE                    	mov	ds, si
  1737 000008B4 66C1EE1C                	shr	esi, 28
  1738 000008B8 66FF34                  	push	dword [si]
  1739 000008BB 9A                      	db	0x9A
  1740                                  section .relot
  1741 00000030 [BC080000]              	dd	L118
  1742                                  section .text
  1743                                  L118:
  1744 000008BC [00000000]              	dd	_indice
  1745 000008C0 83ECFC                  	sub	sp, -4
  1746 000008C3 665B                    	pop	ebx
  1747 000008C5 6689DE                  	mov	esi, ebx
  1748 000008C8 66C1CE04                	ror	esi, 4
  1749 000008CC 8EDE                    	mov	ds, si
  1750 000008CE 66C1EE1C                	shr	esi, 28
  1751 000008D2 668904                  	mov	[si], eax
  1752                                  ; if
  1753                                  ; RPN'ized expression: "hpid 0 >= hpindx 1 -u == && "
  1754                                  ; Expanded expression: "L12 *(4) 0 >= [sh&&->121] L14 *(4) -1 == &&[121] "
  1755                                  ; Fused expression:    "L12 >= *ax 0 [sh&&->121] L14 == *ax -1 &&[121]  "
  1756                                  section .relod
  1757 000000E0 [D7080000]              	dd	L122
  1758                                  section .text
  1759 000008D5 66B8                    	db	0x66, 0xB8
  1760                                  L122:
  1761 000008D7 [08000000]              	dd	L12
  1762 000008DB 6689C3                  	mov	ebx, eax
  1763 000008DE 6689DE                  	mov	esi, ebx
  1764 000008E1 66C1CE04                	ror	esi, 4
  1765 000008E5 8EDE                    	mov	ds, si
  1766 000008E7 66C1EE1C                	shr	esi, 28
  1767 000008EB 668B04                  	mov	eax, [si]
  1768 000008EE 6683F800                	cmp	eax, 0
  1769 000008F2 0F9DC0                  	setge	al
  1770 000008F5 660FB6C0                	movzx	eax, al
  1771                                  ; JumpIfZero
  1772 000008F9 6685C0                  	test	eax, eax
  1773 000008FC 7424                    	je	L121
  1774                                  section .relod
  1775 000000E4 [00090000]              	dd	L123
  1776                                  section .text
  1777 000008FE 66B8                    	db	0x66, 0xB8
  1778                                  L123:
  1779 00000900 [10000000]              	dd	L14
  1780 00000904 6689C3                  	mov	ebx, eax
  1781 00000907 6689DE                  	mov	esi, ebx
  1782 0000090A 66C1CE04                	ror	esi, 4
  1783 0000090E 8EDE                    	mov	ds, si
  1784 00000910 66C1EE1C                	shr	esi, 28
  1785 00000914 668B04                  	mov	eax, [si]
  1786 00000917 6683F8FF                	cmp	eax, -1
  1787 0000091B 0F94C0                  	sete	al
  1788 0000091E 660FB6C0                	movzx	eax, al
  1789                                  L121:
  1790                                  ; JumpIfZero
  1791 00000922 6685C0                  	test	eax, eax
  1792 00000925 743C                    	je	L119
  1793                                  ; RPN'ized expression: "tramaThread tw -> *u &u BX -> *u 1 -u = "
  1794                                  ; Expanded expression: "tramaThread *(4) 0 + 20 + -1 =(2) "
  1795                                  ; Fused expression:    "tramaThread + *ax 0 + ax 20 =(172) *ax -1 "
  1796                                  section .relod
  1797 000000E8 [29090000]              	dd	L124
  1798                                  section .text
  1799 00000927 66B8                    	db	0x66, 0xB8
  1800                                  L124:
  1801 00000929 [00000000]              	dd	_tramaThread
  1802 0000092D 6689C3                  	mov	ebx, eax
  1803 00000930 6689DE                  	mov	esi, ebx
  1804 00000933 66C1CE04                	ror	esi, 4
  1805 00000937 8EDE                    	mov	ds, si
  1806 00000939 66C1EE1C                	shr	esi, 28
  1807 0000093D 668B04                  	mov	eax, [si]
  1808 00000940 6683C014                	add	eax, 20
  1809 00000944 6689C3                  	mov	ebx, eax
  1810 00000947 66B8FFFFFFFF            	mov	eax, -1
  1811 0000094D 6689DE                  	mov	esi, ebx
  1812 00000950 66C1CE04                	ror	esi, 4
  1813 00000954 8EDE                    	mov	ds, si
  1814 00000956 66C1EE1C                	shr	esi, 28
  1815 0000095A 8904                    	mov	[si], ax
  1816 0000095C 660FB7C0                	movzx	eax, ax
  1817 00000960 E91E09                  	jmp	L120
  1818                                  L119:
  1819                                  ; else
  1820                                  ; {
  1821                                  ; if
  1822                                  ; RPN'ized expression: "hpid 1 -u == "
  1823                                  ; Expanded expression: "L12 *(4) -1 == "
  1824                                  ; Fused expression:    "L12 == *ax -1 IF! "
  1825                                  section .relod
  1826 000000EC [65090000]              	dd	L127
  1827                                  section .text
  1828 00000963 66B8                    	db	0x66, 0xB8
  1829                                  L127:
  1830 00000965 [08000000]              	dd	L12
  1831 00000969 6689C3                  	mov	ebx, eax
  1832 0000096C 6689DE                  	mov	esi, ebx
  1833 0000096F 66C1CE04                	ror	esi, 4
  1834 00000973 8EDE                    	mov	ds, si
  1835 00000975 66C1EE1C                	shr	esi, 28
  1836 00000979 668B04                  	mov	eax, [si]
  1837 0000097C 6683F8FF                	cmp	eax, -1
  1838 00000980 0F850802                	jne	L125
  1839                                  ; {
  1840                                  ; RPN'ized expression: "i 0 = "
  1841                                  ; Expanded expression: "L10 0 =(4) "
  1842                                  ; Fused expression:    "L10 =(204) *ax 0 "
  1843                                  section .relod
  1844 000000F0 [86090000]              	dd	L128
  1845                                  section .text
  1846 00000984 66B8                    	db	0x66, 0xB8
  1847                                  L128:
  1848 00000986 [00000000]              	dd	L10
  1849 0000098A 6689C3                  	mov	ebx, eax
  1850 0000098D 66B800000000            	mov	eax, 0
  1851 00000993 6689DE                  	mov	esi, ebx
  1852 00000996 66C1CE04                	ror	esi, 4
  1853 0000099A 8EDE                    	mov	ds, si
  1854 0000099C 66C1EE1C                	shr	esi, 28
  1855 000009A0 668904                  	mov	[si], eax
  1856                                  ; while
  1857                                  ; loc                 <something> : int
  1858                                  ; RPN'ized expression: "i 16 < descProceso i + *u &u ppindx -> *u indProcesoActual != descThread i + *u &u estado -> *u bloqueado != || descThread i + *u &u esperandoPor -> *u 2 -u (something131) != || && "
  1859                                  ; Expanded expression: "L10 *(4) 16 < [sh&&->132] descProceso L10 *(4) 292 * + 12 + *(4) indProcesoActual *(4) != [sh||->134] descThread L10 *(4) 40 * + 4 + *(4) 3 != ||[134] _Bool [sh||->133] descThread L10 *(4) 40
  1860                                  L129:
  1861                                  ; Fused expression:    "L10 < *ax 16 [sh&&->132] descProceso push-ax L10 * *ax 292 + *sp ax + ax 12 push-ax indProcesoActual != **sp *ax [sh||->134] descThread push-ax L10 * *ax 40 + *sp ax + ax 4 != *ax 3 ||[134] _
  1862                                  section .relod
  1863 000000F4 [A5090000]              	dd	L135
  1864                                  section .text
  1865 000009A3 66B8                    	db	0x66, 0xB8
  1866                                  L135:
  1867 000009A5 [00000000]              	dd	L10
  1868 000009A9 6689C3                  	mov	ebx, eax
  1869 000009AC 6689DE                  	mov	esi, ebx
  1870 000009AF 66C1CE04                	ror	esi, 4
  1871 000009B3 8EDE                    	mov	ds, si
  1872 000009B5 66C1EE1C                	shr	esi, 28
  1873 000009B9 668B04                  	mov	eax, [si]
  1874 000009BC 6683F810                	cmp	eax, 16
  1875 000009C0 0F9CC0                  	setl	al
  1876 000009C3 660FB6C0                	movzx	eax, al
  1877                                  ; JumpIfZero
  1878 000009C7 6685C0                  	test	eax, eax
  1879 000009CA 0F842701                	je	L132
  1880                                  section .relod
  1881 000000F8 [D0090000]              	dd	L136
  1882                                  section .text
  1883 000009CE 66B8                    	db	0x66, 0xB8
  1884                                  L136:
  1885 000009D0 [00000000]              	dd	_descProceso
  1886 000009D4 6650                    	push	eax
  1887                                  section .relod
  1888 000000FC [D8090000]              	dd	L137
  1889                                  section .text
  1890 000009D6 66B8                    	db	0x66, 0xB8
  1891                                  L137:
  1892 000009D8 [00000000]              	dd	L10
  1893 000009DC 6689C3                  	mov	ebx, eax
  1894 000009DF 6689DE                  	mov	esi, ebx
  1895 000009E2 66C1CE04                	ror	esi, 4
  1896 000009E6 8EDE                    	mov	ds, si
  1897 000009E8 66C1EE1C                	shr	esi, 28
  1898 000009EC 668B04                  	mov	eax, [si]
  1899 000009EF 6669C024010000          	imul	eax, eax, 292
  1900 000009F6 6689C1                  	mov	ecx, eax
  1901 000009F9 6658                    	pop	eax
  1902 000009FB 6601C8                  	add	eax, ecx
  1903 000009FE 6683C00C                	add	eax, 12
  1904 00000A02 6650                    	push	eax
  1905                                  section .relod
  1906 00000100 [060A0000]              	dd	L138
  1907                                  section .text
  1908 00000A04 66B8                    	db	0x66, 0xB8
  1909                                  L138:
  1910 00000A06 [00000000]              	dd	_indProcesoActual
  1911 00000A0A 6689C3                  	mov	ebx, eax
  1912 00000A0D 6689DE                  	mov	esi, ebx
  1913 00000A10 66C1CE04                	ror	esi, 4
  1914 00000A14 8EDE                    	mov	ds, si
  1915 00000A16 66C1EE1C                	shr	esi, 28
  1916 00000A1A 668B0C                  	mov	ecx, [si]
  1917 00000A1D 665B                    	pop	ebx
  1918 00000A1F 6689DE                  	mov	esi, ebx
  1919 00000A22 66C1CE04                	ror	esi, 4
  1920 00000A26 8EDE                    	mov	ds, si
  1921 00000A28 66C1EE1C                	shr	esi, 28
  1922 00000A2C 668B04                  	mov	eax, [si]
  1923 00000A2F 6639C8                  	cmp	eax, ecx
  1924 00000A32 0F95C0                  	setne	al
  1925 00000A35 660FB6C0                	movzx	eax, al
  1926                                  ; JumpIfNotZero
  1927 00000A39 6685C0                  	test	eax, eax
  1928 00000A3C 754F                    	jne	L134
  1929                                  section .relod
  1930 00000104 [400A0000]              	dd	L139
  1931                                  section .text
  1932 00000A3E 66B8                    	db	0x66, 0xB8
  1933                                  L139:
  1934 00000A40 [00000000]              	dd	_descThread
  1935 00000A44 6650                    	push	eax
  1936                                  section .relod
  1937 00000108 [480A0000]              	dd	L140
  1938                                  section .text
  1939 00000A46 66B8                    	db	0x66, 0xB8
  1940                                  L140:
  1941 00000A48 [00000000]              	dd	L10
  1942 00000A4C 6689C3                  	mov	ebx, eax
  1943 00000A4F 6689DE                  	mov	esi, ebx
  1944 00000A52 66C1CE04                	ror	esi, 4
  1945 00000A56 8EDE                    	mov	ds, si
  1946 00000A58 66C1EE1C                	shr	esi, 28
  1947 00000A5C 668B04                  	mov	eax, [si]
  1948 00000A5F 666BC028                	imul	eax, eax, 40
  1949 00000A63 6689C1                  	mov	ecx, eax
  1950 00000A66 6658                    	pop	eax
  1951 00000A68 6601C8                  	add	eax, ecx
  1952 00000A6B 6683C004                	add	eax, 4
  1953 00000A6F 6689C3                  	mov	ebx, eax
  1954 00000A72 6689DE                  	mov	esi, ebx
  1955 00000A75 66C1CE04                	ror	esi, 4
  1956 00000A79 8EDE                    	mov	ds, si
  1957 00000A7B 66C1EE1C                	shr	esi, 28
  1958 00000A7F 668B04                  	mov	eax, [si]
  1959 00000A82 6683F803                	cmp	eax, 3
  1960 00000A86 0F95C0                  	setne	al
  1961 00000A89 660FB6C0                	movzx	eax, al
  1962                                  L134:
  1963 00000A8D 6685C0                  	test	eax, eax
  1964 00000A90 0F95C0                  	setne	al
  1965 00000A93 660FBEC0                	movsx	eax, al
  1966                                  ; JumpIfNotZero
  1967 00000A97 6685C0                  	test	eax, eax
  1968 00000A9A 754F                    	jne	L133
  1969                                  section .relod
  1970 0000010C [9E0A0000]              	dd	L141
  1971                                  section .text
  1972 00000A9C 66B8                    	db	0x66, 0xB8
  1973                                  L141:
  1974 00000A9E [00000000]              	dd	_descThread
  1975 00000AA2 6650                    	push	eax
  1976                                  section .relod
  1977 00000110 [A60A0000]              	dd	L142
  1978                                  section .text
  1979 00000AA4 66B8                    	db	0x66, 0xB8
  1980                                  L142:
  1981 00000AA6 [00000000]              	dd	L10
  1982 00000AAA 6689C3                  	mov	ebx, eax
  1983 00000AAD 6689DE                  	mov	esi, ebx
  1984 00000AB0 66C1CE04                	ror	esi, 4
  1985 00000AB4 8EDE                    	mov	ds, si
  1986 00000AB6 66C1EE1C                	shr	esi, 28
  1987 00000ABA 668B04                  	mov	eax, [si]
  1988 00000ABD 666BC028                	imul	eax, eax, 40
  1989 00000AC1 6689C1                  	mov	ecx, eax
  1990 00000AC4 6658                    	pop	eax
  1991 00000AC6 6601C8                  	add	eax, ecx
  1992 00000AC9 6683C008                	add	eax, 8
  1993 00000ACD 6689C3                  	mov	ebx, eax
  1994 00000AD0 6689DE                  	mov	esi, ebx
  1995 00000AD3 66C1CE04                	ror	esi, 4
  1996 00000AD7 8EDE                    	mov	ds, si
  1997 00000AD9 66C1EE1C                	shr	esi, 28
  1998 00000ADD 668B04                  	mov	eax, [si]
  1999 00000AE0 6683F8FE                	cmp	eax, -2
  2000 00000AE4 0F95C0                  	setne	al
  2001 00000AE7 660FB6C0                	movzx	eax, al
  2002                                  L133:
  2003 00000AEB 6685C0                  	test	eax, eax
  2004 00000AEE 0F95C0                  	setne	al
  2005 00000AF1 660FBEC0                	movsx	eax, al
  2006                                  L132:
  2007                                  ; JumpIfZero
  2008 00000AF5 6685C0                  	test	eax, eax
  2009 00000AF8 741F                    	je	L130
  2010                                  ; RPN'ized expression: "i ++p "
  2011                                  ; Expanded expression: "L10 ++p(4) "
  2012                                  ; Fused expression:    "L10 ++p(4) *ax "
  2013                                  section .relod
  2014 00000114 [FC0A0000]              	dd	L143
  2015                                  section .text
  2016 00000AFA 66B8                    	db	0x66, 0xB8
  2017                                  L143:
  2018 00000AFC [00000000]              	dd	L10
  2019 00000B00 6689C3                  	mov	ebx, eax
  2020 00000B03 6689DE                  	mov	esi, ebx
  2021 00000B06 66C1CE04                	ror	esi, 4
  2022 00000B0A 8EDE                    	mov	ds, si
  2023 00000B0C 66C1EE1C                	shr	esi, 28
  2024 00000B10 668B04                  	mov	eax, [si]
  2025 00000B13 66FF04                  	inc	dword [si]
  2026 00000B16 E98AFE                  	jmp	L129
  2027                                  L130:
  2028                                  ; if
  2029                                  ; RPN'ized expression: "i 16 < "
  2030                                  ; Expanded expression: "L10 *(4) 16 < "
  2031                                  ; Fused expression:    "L10 < *ax 16 IF! "
  2032                                  section .relod
  2033 00000118 [1B0B0000]              	dd	L146
  2034                                  section .text
  2035 00000B19 66B8                    	db	0x66, 0xB8
  2036                                  L146:
  2037 00000B1B [00000000]              	dd	L10
  2038 00000B1F 6689C3                  	mov	ebx, eax
  2039 00000B22 6689DE                  	mov	esi, ebx
  2040 00000B25 66C1CE04                	ror	esi, 4
  2041 00000B29 8EDE                    	mov	ds, si
  2042 00000B2B 66C1EE1C                	shr	esi, 28
  2043 00000B2F 668B04                  	mov	eax, [si]
  2044 00000B32 6683F810                	cmp	eax, 16
  2045 00000B36 7D35                    	jge	L144
  2046                                  ; RPN'ized expression: "hpindx i = "
  2047                                  ; Expanded expression: "L14 L10 *(4) =(4) "
  2048                                  ; Fused expression:    "L14 push-ax L10 =(204) **sp *ax "
  2049                                  section .relod
  2050 0000011C [3A0B0000]              	dd	L147
  2051                                  section .text
  2052 00000B38 66B8                    	db	0x66, 0xB8
  2053                                  L147:
  2054 00000B3A [10000000]              	dd	L14
  2055 00000B3E 6650                    	push	eax
  2056                                  section .relod
  2057 00000120 [420B0000]              	dd	L148
  2058                                  section .text
  2059 00000B40 66B8                    	db	0x66, 0xB8
  2060                                  L148:
  2061 00000B42 [00000000]              	dd	L10
  2062 00000B46 6689C3                  	mov	ebx, eax
  2063 00000B49 6689DE                  	mov	esi, ebx
  2064 00000B4C 66C1CE04                	ror	esi, 4
  2065 00000B50 8EDE                    	mov	ds, si
  2066 00000B52 66C1EE1C                	shr	esi, 28
  2067 00000B56 668B04                  	mov	eax, [si]
  2068 00000B59 665B                    	pop	ebx
  2069 00000B5B 6689DE                  	mov	esi, ebx
  2070 00000B5E 66C1CE04                	ror	esi, 4
  2071 00000B62 8EDE                    	mov	ds, si
  2072 00000B64 66C1EE1C                	shr	esi, 28
  2073 00000B68 668904                  	mov	[si], eax
  2074 00000B6B EB1F                    	jmp	L145
  2075                                  L144:
  2076                                  ; else
  2077                                  ; RPN'ized expression: "hpindx 1 -u = "
  2078                                  ; Expanded expression: "L14 -1 =(4) "
  2079                                  ; Fused expression:    "L14 =(204) *ax -1 "
  2080                                  section .relod
  2081 00000124 [6F0B0000]              	dd	L149
  2082                                  section .text
  2083 00000B6D 66B8                    	db	0x66, 0xB8
  2084                                  L149:
  2085 00000B6F [10000000]              	dd	L14
  2086 00000B73 6689C3                  	mov	ebx, eax
  2087 00000B76 66B8FFFFFFFF            	mov	eax, -1
  2088 00000B7C 6689DE                  	mov	esi, ebx
  2089 00000B7F 66C1CE04                	ror	esi, 4
  2090 00000B83 8EDE                    	mov	ds, si
  2091 00000B85 66C1EE1C                	shr	esi, 28
  2092 00000B89 668904                  	mov	[si], eax
  2093                                  L145:
  2094                                  ; }
  2095                                  L125:
  2096                                  ; if
  2097                                  ; loc             <something> : int
  2098                                  ; RPN'ized expression: "hpindx 1 -u != descProceso hpindx + *u &u ppindx -> *u indProcesoActual == && descThread hpindx + *u &u estado -> *u bloqueado == && descThread hpindx + *u &u esperandoPor -> *u 2 -u (somethi
  2099                                  ; Expanded expression: "L14 *(4) -1 != [sh&&->155] descProceso L14 *(4) 292 * + 12 + *(4) indProcesoActual *(4) == &&[155] _Bool [sh&&->154] descThread L14 *(4) 40 * + 4 + *(4) 3 == &&[154] _Bool [sh&&->153] descThr
  2100                                  ; Fused expression:    "L14 != *ax -1 [sh&&->155] descProceso push-ax L14 * *ax 292 + *sp ax + ax 12 push-ax indProcesoActual == **sp *ax &&[155] _Bool [sh&&->154] descThread push-ax L14 * *ax 40 + *sp ax + ax 4 == 
  2101                                  section .relod
  2102 00000128 [8E0B0000]              	dd	L156
  2103                                  section .text
  2104 00000B8C 66B8                    	db	0x66, 0xB8
  2105                                  L156:
  2106 00000B8E [10000000]              	dd	L14
  2107 00000B92 6689C3                  	mov	ebx, eax
  2108 00000B95 6689DE                  	mov	esi, ebx
  2109 00000B98 66C1CE04                	ror	esi, 4
  2110 00000B9C 8EDE                    	mov	ds, si
  2111 00000B9E 66C1EE1C                	shr	esi, 28
  2112 00000BA2 668B04                  	mov	eax, [si]
  2113 00000BA5 6683F8FF                	cmp	eax, -1
  2114 00000BA9 0F95C0                  	setne	al
  2115 00000BAC 660FB6C0                	movzx	eax, al
  2116                                  ; JumpIfZero
  2117 00000BB0 6685C0                  	test	eax, eax
  2118 00000BB3 746B                    	je	L155
  2119                                  section .relod
  2120 0000012C [B70B0000]              	dd	L157
  2121                                  section .text
  2122 00000BB5 66B8                    	db	0x66, 0xB8
  2123                                  L157:
  2124 00000BB7 [00000000]              	dd	_descProceso
  2125 00000BBB 6650                    	push	eax
  2126                                  section .relod
  2127 00000130 [BF0B0000]              	dd	L158
  2128                                  section .text
  2129 00000BBD 66B8                    	db	0x66, 0xB8
  2130                                  L158:
  2131 00000BBF [10000000]              	dd	L14
  2132 00000BC3 6689C3                  	mov	ebx, eax
  2133 00000BC6 6689DE                  	mov	esi, ebx
  2134 00000BC9 66C1CE04                	ror	esi, 4
  2135 00000BCD 8EDE                    	mov	ds, si
  2136 00000BCF 66C1EE1C                	shr	esi, 28
  2137 00000BD3 668B04                  	mov	eax, [si]
  2138 00000BD6 6669C024010000          	imul	eax, eax, 292
  2139 00000BDD 6689C1                  	mov	ecx, eax
  2140 00000BE0 6658                    	pop	eax
  2141 00000BE2 6601C8                  	add	eax, ecx
  2142 00000BE5 6683C00C                	add	eax, 12
  2143 00000BE9 6650                    	push	eax
  2144                                  section .relod
  2145 00000134 [ED0B0000]              	dd	L159
  2146                                  section .text
  2147 00000BEB 66B8                    	db	0x66, 0xB8
  2148                                  L159:
  2149 00000BED [00000000]              	dd	_indProcesoActual
  2150 00000BF1 6689C3                  	mov	ebx, eax
  2151 00000BF4 6689DE                  	mov	esi, ebx
  2152 00000BF7 66C1CE04                	ror	esi, 4
  2153 00000BFB 8EDE                    	mov	ds, si
  2154 00000BFD 66C1EE1C                	shr	esi, 28
  2155 00000C01 668B0C                  	mov	ecx, [si]
  2156 00000C04 665B                    	pop	ebx
  2157 00000C06 6689DE                  	mov	esi, ebx
  2158 00000C09 66C1CE04                	ror	esi, 4
  2159 00000C0D 8EDE                    	mov	ds, si
  2160 00000C0F 66C1EE1C                	shr	esi, 28
  2161 00000C13 668B04                  	mov	eax, [si]
  2162 00000C16 6639C8                  	cmp	eax, ecx
  2163 00000C19 0F94C0                  	sete	al
  2164 00000C1C 660FB6C0                	movzx	eax, al
  2165                                  L155:
  2166 00000C20 6685C0                  	test	eax, eax
  2167 00000C23 0F95C0                  	setne	al
  2168 00000C26 660FBEC0                	movsx	eax, al
  2169                                  ; JumpIfZero
  2170 00000C2A 6685C0                  	test	eax, eax
  2171 00000C2D 744F                    	je	L154
  2172                                  section .relod
  2173 00000138 [310C0000]              	dd	L160
  2174                                  section .text
  2175 00000C2F 66B8                    	db	0x66, 0xB8
  2176                                  L160:
  2177 00000C31 [00000000]              	dd	_descThread
  2178 00000C35 6650                    	push	eax
  2179                                  section .relod
  2180 0000013C [390C0000]              	dd	L161
  2181                                  section .text
  2182 00000C37 66B8                    	db	0x66, 0xB8
  2183                                  L161:
  2184 00000C39 [10000000]              	dd	L14
  2185 00000C3D 6689C3                  	mov	ebx, eax
  2186 00000C40 6689DE                  	mov	esi, ebx
  2187 00000C43 66C1CE04                	ror	esi, 4
  2188 00000C47 8EDE                    	mov	ds, si
  2189 00000C49 66C1EE1C                	shr	esi, 28
  2190 00000C4D 668B04                  	mov	eax, [si]
  2191 00000C50 666BC028                	imul	eax, eax, 40
  2192 00000C54 6689C1                  	mov	ecx, eax
  2193 00000C57 6658                    	pop	eax
  2194 00000C59 6601C8                  	add	eax, ecx
  2195 00000C5C 6683C004                	add	eax, 4
  2196 00000C60 6689C3                  	mov	ebx, eax
  2197 00000C63 6689DE                  	mov	esi, ebx
  2198 00000C66 66C1CE04                	ror	esi, 4
  2199 00000C6A 8EDE                    	mov	ds, si
  2200 00000C6C 66C1EE1C                	shr	esi, 28
  2201 00000C70 668B04                  	mov	eax, [si]
  2202 00000C73 6683F803                	cmp	eax, 3
  2203 00000C77 0F94C0                  	sete	al
  2204 00000C7A 660FB6C0                	movzx	eax, al
  2205                                  L154:
  2206 00000C7E 6685C0                  	test	eax, eax
  2207 00000C81 0F95C0                  	setne	al
  2208 00000C84 660FBEC0                	movsx	eax, al
  2209                                  ; JumpIfZero
  2210 00000C88 6685C0                  	test	eax, eax
  2211 00000C8B 744F                    	je	L153
  2212                                  section .relod
  2213 00000140 [8F0C0000]              	dd	L162
  2214                                  section .text
  2215 00000C8D 66B8                    	db	0x66, 0xB8
  2216                                  L162:
  2217 00000C8F [00000000]              	dd	_descThread
  2218 00000C93 6650                    	push	eax
  2219                                  section .relod
  2220 00000144 [970C0000]              	dd	L163
  2221                                  section .text
  2222 00000C95 66B8                    	db	0x66, 0xB8
  2223                                  L163:
  2224 00000C97 [10000000]              	dd	L14
  2225 00000C9B 6689C3                  	mov	ebx, eax
  2226 00000C9E 6689DE                  	mov	esi, ebx
  2227 00000CA1 66C1CE04                	ror	esi, 4
  2228 00000CA5 8EDE                    	mov	ds, si
  2229 00000CA7 66C1EE1C                	shr	esi, 28
  2230 00000CAB 668B04                  	mov	eax, [si]
  2231 00000CAE 666BC028                	imul	eax, eax, 40
  2232 00000CB2 6689C1                  	mov	ecx, eax
  2233 00000CB5 6658                    	pop	eax
  2234 00000CB7 6601C8                  	add	eax, ecx
  2235 00000CBA 6683C008                	add	eax, 8
  2236 00000CBE 6689C3                  	mov	ebx, eax
  2237 00000CC1 6689DE                  	mov	esi, ebx
  2238 00000CC4 66C1CE04                	ror	esi, 4
  2239 00000CC8 8EDE                    	mov	ds, si
  2240 00000CCA 66C1EE1C                	shr	esi, 28
  2241 00000CCE 668B04                  	mov	eax, [si]
  2242 00000CD1 6683F8FE                	cmp	eax, -2
  2243 00000CD5 0F94C0                  	sete	al
  2244 00000CD8 660FB6C0                	movzx	eax, al
  2245                                  L153:
  2246                                  ; JumpIfZero
  2247 00000CDC 6685C0                  	test	eax, eax
  2248 00000CDF 0F846D01                	je	L150
  2249                                  ; {
  2250                                  ; RPN'ized expression: "tramaThread tw -> *u &u AX -> *u descProceso hpindx + *u &u status -> *u = "
  2251                                  ; Expanded expression: "tramaThread *(4) 0 + 32 + descProceso L14 *(4) 292 * + 8 + *(4) =(2) "
  2252                                  ; Fused expression:    "tramaThread + *ax 0 + ax 32 push-ax descProceso push-ax L14 * *ax 292 + *sp ax + ax 8 =(172) **sp *ax "
  2253                                  section .relod
  2254 00000148 [E50C0000]              	dd	L164
  2255                                  section .text
  2256 00000CE3 66B8                    	db	0x66, 0xB8
  2257                                  L164:
  2258 00000CE5 [00000000]              	dd	_tramaThread
  2259 00000CE9 6689C3                  	mov	ebx, eax
  2260 00000CEC 6689DE                  	mov	esi, ebx
  2261 00000CEF 66C1CE04                	ror	esi, 4
  2262 00000CF3 8EDE                    	mov	ds, si
  2263 00000CF5 66C1EE1C                	shr	esi, 28
  2264 00000CF9 668B04                  	mov	eax, [si]
  2265 00000CFC 6683C020                	add	eax, 32
  2266 00000D00 6650                    	push	eax
  2267                                  section .relod
  2268 0000014C [040D0000]              	dd	L165
  2269                                  section .text
  2270 00000D02 66B8                    	db	0x66, 0xB8
  2271                                  L165:
  2272 00000D04 [00000000]              	dd	_descProceso
  2273 00000D08 6650                    	push	eax
  2274                                  section .relod
  2275 00000150 [0C0D0000]              	dd	L166
  2276                                  section .text
  2277 00000D0A 66B8                    	db	0x66, 0xB8
  2278                                  L166:
  2279 00000D0C [10000000]              	dd	L14
  2280 00000D10 6689C3                  	mov	ebx, eax
  2281 00000D13 6689DE                  	mov	esi, ebx
  2282 00000D16 66C1CE04                	ror	esi, 4
  2283 00000D1A 8EDE                    	mov	ds, si
  2284 00000D1C 66C1EE1C                	shr	esi, 28
  2285 00000D20 668B04                  	mov	eax, [si]
  2286 00000D23 6669C024010000          	imul	eax, eax, 292
  2287 00000D2A 6689C1                  	mov	ecx, eax
  2288 00000D2D 6658                    	pop	eax
  2289 00000D2F 6601C8                  	add	eax, ecx
  2290 00000D32 6683C008                	add	eax, 8
  2291 00000D36 6689C3                  	mov	ebx, eax
  2292 00000D39 6689DE                  	mov	esi, ebx
  2293 00000D3C 66C1CE04                	ror	esi, 4
  2294 00000D40 8EDE                    	mov	ds, si
  2295 00000D42 66C1EE1C                	shr	esi, 28
  2296 00000D46 668B04                  	mov	eax, [si]
  2297 00000D49 665B                    	pop	ebx
  2298 00000D4B 6689DE                  	mov	esi, ebx
  2299 00000D4E 66C1CE04                	ror	esi, 4
  2300 00000D52 8EDE                    	mov	ds, si
  2301 00000D54 66C1EE1C                	shr	esi, 28
  2302 00000D58 8904                    	mov	[si], ax
  2303 00000D5A 660FB7C0                	movzx	eax, ax
  2304                                  ; RPN'ized expression: "tramaThread tw -> *u &u BX -> *u descProceso hpindx + *u &u pid -> *u = "
  2305                                  ; Expanded expression: "tramaThread *(4) 0 + 20 + descProceso L14 *(4) 292 * + 0 + *(4) =(2) "
  2306                                  ; Fused expression:    "tramaThread + *ax 0 + ax 20 push-ax descProceso push-ax L14 * *ax 292 + *sp ax + ax 0 =(172) **sp *ax "
  2307                                  section .relod
  2308 00000154 [600D0000]              	dd	L167
  2309                                  section .text
  2310 00000D5E 66B8                    	db	0x66, 0xB8
  2311                                  L167:
  2312 00000D60 [00000000]              	dd	_tramaThread
  2313 00000D64 6689C3                  	mov	ebx, eax
  2314 00000D67 6689DE                  	mov	esi, ebx
  2315 00000D6A 66C1CE04                	ror	esi, 4
  2316 00000D6E 8EDE                    	mov	ds, si
  2317 00000D70 66C1EE1C                	shr	esi, 28
  2318 00000D74 668B04                  	mov	eax, [si]
  2319 00000D77 6683C014                	add	eax, 20
  2320 00000D7B 6650                    	push	eax
  2321                                  section .relod
  2322 00000158 [7F0D0000]              	dd	L168
  2323                                  section .text
  2324 00000D7D 66B8                    	db	0x66, 0xB8
  2325                                  L168:
  2326 00000D7F [00000000]              	dd	_descProceso
  2327 00000D83 6650                    	push	eax
  2328                                  section .relod
  2329 0000015C [870D0000]              	dd	L169
  2330                                  section .text
  2331 00000D85 66B8                    	db	0x66, 0xB8
  2332                                  L169:
  2333 00000D87 [10000000]              	dd	L14
  2334 00000D8B 6689C3                  	mov	ebx, eax
  2335 00000D8E 6689DE                  	mov	esi, ebx
  2336 00000D91 66C1CE04                	ror	esi, 4
  2337 00000D95 8EDE                    	mov	ds, si
  2338 00000D97 66C1EE1C                	shr	esi, 28
  2339 00000D9B 668B04                  	mov	eax, [si]
  2340 00000D9E 6669C024010000          	imul	eax, eax, 292
  2341 00000DA5 6689C1                  	mov	ecx, eax
  2342 00000DA8 6658                    	pop	eax
  2343 00000DAA 6601C8                  	add	eax, ecx
  2344 00000DAD 6689C3                  	mov	ebx, eax
  2345 00000DB0 6689DE                  	mov	esi, ebx
  2346 00000DB3 66C1CE04                	ror	esi, 4
  2347 00000DB7 8EDE                    	mov	ds, si
  2348 00000DB9 66C1EE1C                	shr	esi, 28
  2349 00000DBD 668B04                  	mov	eax, [si]
  2350 00000DC0 665B                    	pop	ebx
  2351 00000DC2 6689DE                  	mov	esi, ebx
  2352 00000DC5 66C1CE04                	ror	esi, 4
  2353 00000DC9 8EDE                    	mov	ds, si
  2354 00000DCB 66C1EE1C                	shr	esi, 28
  2355 00000DCF 8904                    	mov	[si], ax
  2356 00000DD1 660FB7C0                	movzx	eax, ax
  2357                                  ; RPN'ized expression: "( hpindx eliminarProcIndx ) "
  2358                                  ; Expanded expression: " L14 *(4)  eliminarProcIndx ()4 "
  2359                                  ; Fused expression:    "( L14 *(4) ax , eliminarProcIndx )4 "
  2360                                  section .relod
  2361 00000160 [D70D0000]              	dd	L170
  2362                                  section .text
  2363 00000DD5 66B8                    	db	0x66, 0xB8
  2364                                  L170:
  2365 00000DD7 [10000000]              	dd	L14
  2366 00000DDB 6689C3                  	mov	ebx, eax
  2367 00000DDE 6689DE                  	mov	esi, ebx
  2368 00000DE1 66C1CE04                	ror	esi, 4
  2369 00000DE5 8EDE                    	mov	ds, si
  2370 00000DE7 66C1EE1C                	shr	esi, 28
  2371 00000DEB 66FF34                  	push	dword [si]
  2372 00000DEE 9A                      	db	0x9A
  2373                                  section .relot
  2374 00000034 [EF0D0000]              	dd	L171
  2375                                  section .text
  2376                                  L171:
  2377 00000DEF [00000000]              	dd	_eliminarProcIndx
  2378 00000DF3 83ECFC                  	sub	sp, -4
  2379                                  ; loc                 <something> : * struct <something>
  2380                                  ; RPN'ized expression: "( descProceso indProcesoActual + *u &u c2cHijos -> *u &u (something172) , hpindx eliminarPC2c ) "
  2381                                  ; Expanded expression: " descProceso indProcesoActual *(4) 292 * + 20 +  L14 *(4)  eliminarPC2c ()8 "
  2382                                  ; Fused expression:    "( descProceso push-ax indProcesoActual * *ax 292 + *sp ax + ax 20 , L14 *(4) ax , eliminarPC2c )8 "
  2383                                  section .relod
  2384 00000164 [F80D0000]              	dd	L173
  2385                                  section .text
  2386 00000DF6 66B8                    	db	0x66, 0xB8
  2387                                  L173:
  2388 00000DF8 [00000000]              	dd	_descProceso
  2389 00000DFC 6650                    	push	eax
  2390                                  section .relod
  2391 00000168 [000E0000]              	dd	L174
  2392                                  section .text
  2393 00000DFE 66B8                    	db	0x66, 0xB8
  2394                                  L174:
  2395 00000E00 [00000000]              	dd	_indProcesoActual
  2396 00000E04 6689C3                  	mov	ebx, eax
  2397 00000E07 6689DE                  	mov	esi, ebx
  2398 00000E0A 66C1CE04                	ror	esi, 4
  2399 00000E0E 8EDE                    	mov	ds, si
  2400 00000E10 66C1EE1C                	shr	esi, 28
  2401 00000E14 668B04                  	mov	eax, [si]
  2402 00000E17 6669C024010000          	imul	eax, eax, 292
  2403 00000E1E 6689C1                  	mov	ecx, eax
  2404 00000E21 6658                    	pop	eax
  2405 00000E23 6601C8                  	add	eax, ecx
  2406 00000E26 6683C014                	add	eax, 20
  2407 00000E2A 6650                    	push	eax
  2408                                  section .relod
  2409 0000016C [2E0E0000]              	dd	L175
  2410                                  section .text
  2411 00000E2C 66B8                    	db	0x66, 0xB8
  2412                                  L175:
  2413 00000E2E [10000000]              	dd	L14
  2414 00000E32 6689C3                  	mov	ebx, eax
  2415 00000E35 6689DE                  	mov	esi, ebx
  2416 00000E38 66C1CE04                	ror	esi, 4
  2417 00000E3C 8EDE                    	mov	ds, si
  2418 00000E3E 66C1EE1C                	shr	esi, 28
  2419 00000E42 66FF34                  	push	dword [si]
  2420 00000E45 9A                      	db	0x9A
  2421                                  section .relot
  2422 00000038 [460E0000]              	dd	L176
  2423                                  section .text
  2424                                  L176:
  2425 00000E46 [00000000]              	dd	_eliminarPC2c
  2426 00000E4A 83ECF8                  	sub	sp, -8
  2427                                  ; }
  2428 00000E4D E93104                  	jmp	L151
  2429                                  L150:
  2430                                  ; else
  2431                                  ; {
  2432                                  ; RPN'ized expression: "noStatus tramaThread tw -> *u &u DX -> *u = "
  2433                                  ; Expanded expression: "L15 tramaThread *(4) 0 + 24 + *(2) =(4) "
  2434                                  ; Fused expression:    "L15 push-ax tramaThread + *ax 0 + ax 24 =(202) **sp *ax "
  2435                                  section .relod
  2436 00000170 [520E0000]              	dd	L177
  2437                                  section .text
  2438 00000E50 66B8                    	db	0x66, 0xB8
  2439                                  L177:
  2440 00000E52 [14000000]              	dd	L15
  2441 00000E56 6650                    	push	eax
  2442                                  section .relod
  2443 00000174 [5A0E0000]              	dd	L178
  2444                                  section .text
  2445 00000E58 66B8                    	db	0x66, 0xB8
  2446                                  L178:
  2447 00000E5A [00000000]              	dd	_tramaThread
  2448 00000E5E 6689C3                  	mov	ebx, eax
  2449 00000E61 6689DE                  	mov	esi, ebx
  2450 00000E64 66C1CE04                	ror	esi, 4
  2451 00000E68 8EDE                    	mov	ds, si
  2452 00000E6A 66C1EE1C                	shr	esi, 28
  2453 00000E6E 668B04                  	mov	eax, [si]
  2454 00000E71 6683C018                	add	eax, 24
  2455 00000E75 6689C3                  	mov	ebx, eax
  2456 00000E78 6689DE                  	mov	esi, ebx
  2457 00000E7B 66C1CE04                	ror	esi, 4
  2458 00000E7F 8EDE                    	mov	ds, si
  2459 00000E81 66C1EE1C                	shr	esi, 28
  2460 00000E85 8B04                    	mov	ax, [si]
  2461 00000E87 660FB7C0                	movzx	eax, ax
  2462 00000E8B 665B                    	pop	ebx
  2463 00000E8D 6689DE                  	mov	esi, ebx
  2464 00000E90 66C1CE04                	ror	esi, 4
  2465 00000E94 8EDE                    	mov	ds, si
  2466 00000E96 66C1EE1C                	shr	esi, 28
  2467 00000E9A 668904                  	mov	[si], eax
  2468                                  ; if
  2469                                  ; RPN'ized expression: "hpid 1 -u != "
  2470                                  ; Expanded expression: "L12 *(4) -1 != "
  2471                                  ; Fused expression:    "L12 != *ax -1 IF! "
  2472                                  section .relod
  2473 00000178 [9F0E0000]              	dd	L181
  2474                                  section .text
  2475 00000E9D 66B8                    	db	0x66, 0xB8
  2476                                  L181:
  2477 00000E9F [08000000]              	dd	L12
  2478 00000EA3 6689C3                  	mov	ebx, eax
  2479 00000EA6 6689DE                  	mov	esi, ebx
  2480 00000EA9 66C1CE04                	ror	esi, 4
  2481 00000EAD 8EDE                    	mov	ds, si
  2482 00000EAF 66C1EE1C                	shr	esi, 28
  2483 00000EB3 668B04                  	mov	eax, [si]
  2484 00000EB6 6683F8FF                	cmp	eax, -1
  2485 00000EBA 0F84CC00                	je	L179
  2486                                  ; {
  2487                                  ; if
  2488                                  ; RPN'ized expression: "noStatus "
  2489                                  ; Expanded expression: "L15 *(4) "
  2490                                  ; Fused expression:    "L15 *(4) ax  "
  2491                                  section .relod
  2492 0000017C [C00E0000]              	dd	L184
  2493                                  section .text
  2494 00000EBE 66B8                    	db	0x66, 0xB8
  2495                                  L184:
  2496 00000EC0 [14000000]              	dd	L15
  2497 00000EC4 6689C3                  	mov	ebx, eax
  2498 00000EC7 6689DE                  	mov	esi, ebx
  2499 00000ECA 66C1CE04                	ror	esi, 4
  2500 00000ECE 8EDE                    	mov	ds, si
  2501 00000ED0 66C1EE1C                	shr	esi, 28
  2502 00000ED4 668B04                  	mov	eax, [si]
  2503                                  ; JumpIfZero
  2504 00000ED7 6685C0                  	test	eax, eax
  2505 00000EDA 0F848800                	je	L182
  2506                                  ; {
  2507                                  ; RPN'ized expression: "descProceso hpindx + *u &u noStatus -> *u TRUE = "
  2508                                  ; Expanded expression: "descProceso L14 *(4) 292 * + 4 + 1 =(4) "
  2509                                  ; Fused expression:    "descProceso push-ax L14 * *ax 292 + *sp ax + ax 4 =(204) *ax 1 "
  2510                                  section .relod
  2511 00000180 [E00E0000]              	dd	L185
  2512                                  section .text
  2513 00000EDE 66B8                    	db	0x66, 0xB8
  2514                                  L185:
  2515 00000EE0 [00000000]              	dd	_descProceso
  2516 00000EE4 6650                    	push	eax
  2517                                  section .relod
  2518 00000184 [E80E0000]              	dd	L186
  2519                                  section .text
  2520 00000EE6 66B8                    	db	0x66, 0xB8
  2521                                  L186:
  2522 00000EE8 [10000000]              	dd	L14
  2523 00000EEC 6689C3                  	mov	ebx, eax
  2524 00000EEF 6689DE                  	mov	esi, ebx
  2525 00000EF2 66C1CE04                	ror	esi, 4
  2526 00000EF6 8EDE                    	mov	ds, si
  2527 00000EF8 66C1EE1C                	shr	esi, 28
  2528 00000EFC 668B04                  	mov	eax, [si]
  2529 00000EFF 6669C024010000          	imul	eax, eax, 292
  2530 00000F06 6689C1                  	mov	ecx, eax
  2531 00000F09 6658                    	pop	eax
  2532 00000F0B 6601C8                  	add	eax, ecx
  2533 00000F0E 6683C004                	add	eax, 4
  2534 00000F12 6689C3                  	mov	ebx, eax
  2535 00000F15 66B801000000            	mov	eax, 1
  2536 00000F1B 6689DE                  	mov	esi, ebx
  2537 00000F1E 66C1CE04                	ror	esi, 4
  2538 00000F22 8EDE                    	mov	ds, si
  2539 00000F24 66C1EE1C                	shr	esi, 28
  2540 00000F28 668904                  	mov	[si], eax
  2541                                  ; RPN'ized expression: "tramaThread tw -> *u &u BX -> *u 0 = "
  2542                                  ; Expanded expression: "tramaThread *(4) 0 + 20 + 0 =(2) "
  2543                                  ; Fused expression:    "tramaThread + *ax 0 + ax 20 =(172) *ax 0 "
  2544                                  section .relod
  2545 00000188 [2D0F0000]              	dd	L187
  2546                                  section .text
  2547 00000F2B 66B8                    	db	0x66, 0xB8
  2548                                  L187:
  2549 00000F2D [00000000]              	dd	_tramaThread
  2550 00000F31 6689C3                  	mov	ebx, eax
  2551 00000F34 6689DE                  	mov	esi, ebx
  2552 00000F37 66C1CE04                	ror	esi, 4
  2553 00000F3B 8EDE                    	mov	ds, si
  2554 00000F3D 66C1EE1C                	shr	esi, 28
  2555 00000F41 668B04                  	mov	eax, [si]
  2556 00000F44 6683C014                	add	eax, 20
  2557 00000F48 6689C3                  	mov	ebx, eax
  2558 00000F4B 66B800000000            	mov	eax, 0
  2559 00000F51 6689DE                  	mov	esi, ebx
  2560 00000F54 66C1CE04                	ror	esi, 4
  2561 00000F58 8EDE                    	mov	ds, si
  2562 00000F5A 66C1EE1C                	shr	esi, 28
  2563 00000F5E 8904                    	mov	[si], ax
  2564 00000F60 660FB7C0                	movzx	eax, ax
  2565                                  ; }
  2566 00000F64 EB21                    	jmp	L183
  2567                                  L182:
  2568                                  ; else
  2569                                  ; RPN'ized expression: "( hpindx bloquearEsperandoHijo ) "
  2570                                  ; Expanded expression: " L14 *(4)  bloquearEsperandoHijo ()4 "
  2571                                  ; Fused expression:    "( L14 *(4) ax , bloquearEsperandoHijo )4 "
  2572                                  section .relod
  2573 0000018C [680F0000]              	dd	L188
  2574                                  section .text
  2575 00000F66 66B8                    	db	0x66, 0xB8
  2576                                  L188:
  2577 00000F68 [10000000]              	dd	L14
  2578 00000F6C 6689C3                  	mov	ebx, eax
  2579 00000F6F 6689DE                  	mov	esi, ebx
  2580 00000F72 66C1CE04                	ror	esi, 4
  2581 00000F76 8EDE                    	mov	ds, si
  2582 00000F78 66C1EE1C                	shr	esi, 28
  2583 00000F7C 66FF34                  	push	dword [si]
  2584 00000F7F 9A                      	db	0x9A
  2585                                  section .relot
  2586 0000003C [800F0000]              	dd	L189
  2587                                  section .text
  2588                                  L189:
  2589 00000F80 [00000000]              	dd	_bloquearEsperandoHijo
  2590 00000F84 83ECFC                  	sub	sp, -4
  2591                                  L183:
  2592                                  ; }
  2593 00000F87 E9F702                  	jmp	L180
  2594                                  L179:
  2595                                  ; else
  2596                                  ; if
  2597                                  ; RPN'ized expression: "noStatus "
  2598                                  ; Expanded expression: "L15 *(4) "
  2599                                  ; Fused expression:    "L15 *(4) ax  "
  2600                                  section .relod
  2601 00000190 [8C0F0000]              	dd	L192
  2602                                  section .text
  2603 00000F8A 66B8                    	db	0x66, 0xB8
  2604                                  L192:
  2605 00000F8C [14000000]              	dd	L15
  2606 00000F90 6689C3                  	mov	ebx, eax
  2607 00000F93 6689DE                  	mov	esi, ebx
  2608 00000F96 66C1CE04                	ror	esi, 4
  2609 00000F9A 8EDE                    	mov	ds, si
  2610 00000F9C 66C1EE1C                	shr	esi, 28
  2611 00000FA0 668B04                  	mov	eax, [si]
  2612                                  ; JumpIfZero
  2613 00000FA3 6685C0                  	test	eax, eax
  2614 00000FA6 0F844E01                	je	L190
  2615                                  ; {
  2616                                  ; RPN'ized expression: "i 0 = "
  2617                                  ; Expanded expression: "L10 0 =(4) "
  2618                                  ; Fused expression:    "L10 =(204) *ax 0 "
  2619                                  section .relod
  2620 00000194 [AC0F0000]              	dd	L193
  2621                                  section .text
  2622 00000FAA 66B8                    	db	0x66, 0xB8
  2623                                  L193:
  2624 00000FAC [00000000]              	dd	L10
  2625 00000FB0 6689C3                  	mov	ebx, eax
  2626 00000FB3 66B800000000            	mov	eax, 0
  2627 00000FB9 6689DE                  	mov	esi, ebx
  2628 00000FBC 66C1CE04                	ror	esi, 4
  2629 00000FC0 8EDE                    	mov	ds, si
  2630 00000FC2 66C1EE1C                	shr	esi, 28
  2631 00000FC6 668904                  	mov	[si], eax
  2632                                  ; while
  2633                                  ; RPN'ized expression: "i 16 < "
  2634                                  ; Expanded expression: "L10 *(4) 16 < "
  2635                                  L194:
  2636                                  ; Fused expression:    "L10 < *ax 16 IF! "
  2637                                  section .relod
  2638 00000198 [CB0F0000]              	dd	L196
  2639                                  section .text
  2640 00000FC9 66B8                    	db	0x66, 0xB8
  2641                                  L196:
  2642 00000FCB [00000000]              	dd	L10
  2643 00000FCF 6689C3                  	mov	ebx, eax
  2644 00000FD2 6689DE                  	mov	esi, ebx
  2645 00000FD5 66C1CE04                	ror	esi, 4
  2646 00000FD9 8EDE                    	mov	ds, si
  2647 00000FDB 66C1EE1C                	shr	esi, 28
  2648 00000FDF 668B04                  	mov	eax, [si]
  2649 00000FE2 6683F810                	cmp	eax, 16
  2650 00000FE6 0F8DD200                	jge	L195
  2651                                  ; {
  2652                                  ; if
  2653                                  ; RPN'ized expression: "descProceso i + *u &u ppindx -> *u indProcesoActual == "
  2654                                  ; Expanded expression: "descProceso L10 *(4) 292 * + 12 + *(4) indProcesoActual *(4) == "
  2655                                  ; Fused expression:    "descProceso push-ax L10 * *ax 292 + *sp ax + ax 12 push-ax indProcesoActual == **sp *ax IF! "
  2656                                  section .relod
  2657 0000019C [EC0F0000]              	dd	L199
  2658                                  section .text
  2659 00000FEA 66B8                    	db	0x66, 0xB8
  2660                                  L199:
  2661 00000FEC [00000000]              	dd	_descProceso
  2662 00000FF0 6650                    	push	eax
  2663                                  section .relod
  2664 000001A0 [F40F0000]              	dd	L200
  2665                                  section .text
  2666 00000FF2 66B8                    	db	0x66, 0xB8
  2667                                  L200:
  2668 00000FF4 [00000000]              	dd	L10
  2669 00000FF8 6689C3                  	mov	ebx, eax
  2670 00000FFB 6689DE                  	mov	esi, ebx
  2671 00000FFE 66C1CE04                	ror	esi, 4
  2672 00001002 8EDE                    	mov	ds, si
  2673 00001004 66C1EE1C                	shr	esi, 28
  2674 00001008 668B04                  	mov	eax, [si]
  2675 0000100B 6669C024010000          	imul	eax, eax, 292
  2676 00001012 6689C1                  	mov	ecx, eax
  2677 00001015 6658                    	pop	eax
  2678 00001017 6601C8                  	add	eax, ecx
  2679 0000101A 6683C00C                	add	eax, 12
  2680 0000101E 6650                    	push	eax
  2681                                  section .relod
  2682 000001A4 [22100000]              	dd	L201
  2683                                  section .text
  2684 00001020 66B8                    	db	0x66, 0xB8
  2685                                  L201:
  2686 00001022 [00000000]              	dd	_indProcesoActual
  2687 00001026 6689C3                  	mov	ebx, eax
  2688 00001029 6689DE                  	mov	esi, ebx
  2689 0000102C 66C1CE04                	ror	esi, 4
  2690 00001030 8EDE                    	mov	ds, si
  2691 00001032 66C1EE1C                	shr	esi, 28
  2692 00001036 668B0C                  	mov	ecx, [si]
  2693 00001039 665B                    	pop	ebx
  2694 0000103B 6689DE                  	mov	esi, ebx
  2695 0000103E 66C1CE04                	ror	esi, 4
  2696 00001042 8EDE                    	mov	ds, si
  2697 00001044 66C1EE1C                	shr	esi, 28
  2698 00001048 668B04                  	mov	eax, [si]
  2699 0000104B 6639C8                  	cmp	eax, ecx
  2700 0000104E 754D                    	jne	L197
  2701                                  ; RPN'ized expression: "descProceso i + *u &u noStatus -> *u TRUE = "
  2702                                  ; Expanded expression: "descProceso L10 *(4) 292 * + 4 + 1 =(4) "
  2703                                  ; Fused expression:    "descProceso push-ax L10 * *ax 292 + *sp ax + ax 4 =(204) *ax 1 "
  2704                                  section .relod
  2705 000001A8 [52100000]              	dd	L202
  2706                                  section .text
  2707 00001050 66B8                    	db	0x66, 0xB8
  2708                                  L202:
  2709 00001052 [00000000]              	dd	_descProceso
  2710 00001056 6650                    	push	eax
  2711                                  section .relod
  2712 000001AC [5A100000]              	dd	L203
  2713                                  section .text
  2714 00001058 66B8                    	db	0x66, 0xB8
  2715                                  L203:
  2716 0000105A [00000000]              	dd	L10
  2717 0000105E 6689C3                  	mov	ebx, eax
  2718 00001061 6689DE                  	mov	esi, ebx
  2719 00001064 66C1CE04                	ror	esi, 4
  2720 00001068 8EDE                    	mov	ds, si
  2721 0000106A 66C1EE1C                	shr	esi, 28
  2722 0000106E 668B04                  	mov	eax, [si]
  2723 00001071 6669C024010000          	imul	eax, eax, 292
  2724 00001078 6689C1                  	mov	ecx, eax
  2725 0000107B 6658                    	pop	eax
  2726 0000107D 6601C8                  	add	eax, ecx
  2727 00001080 6683C004                	add	eax, 4
  2728 00001084 6689C3                  	mov	ebx, eax
  2729 00001087 66B801000000            	mov	eax, 1
  2730 0000108D 6689DE                  	mov	esi, ebx
  2731 00001090 66C1CE04                	ror	esi, 4
  2732 00001094 8EDE                    	mov	ds, si
  2733 00001096 66C1EE1C                	shr	esi, 28
  2734 0000109A 668904                  	mov	[si], eax
  2735                                  L197:
  2736                                  ; RPN'ized expression: "i ++p "
  2737                                  ; Expanded expression: "L10 ++p(4) "
  2738                                  ; Fused expression:    "L10 ++p(4) *ax "
  2739                                  section .relod
  2740 000001B0 [9F100000]              	dd	L204
  2741                                  section .text
  2742 0000109D 66B8                    	db	0x66, 0xB8
  2743                                  L204:
  2744 0000109F [00000000]              	dd	L10
  2745 000010A3 6689C3                  	mov	ebx, eax
  2746 000010A6 6689DE                  	mov	esi, ebx
  2747 000010A9 66C1CE04                	ror	esi, 4
  2748 000010AD 8EDE                    	mov	ds, si
  2749 000010AF 66C1EE1C                	shr	esi, 28
  2750 000010B3 668B04                  	mov	eax, [si]
  2751 000010B6 66FF04                  	inc	dword [si]
  2752                                  ; }
  2753 000010B9 E90DFF                  	jmp	L194
  2754                                  L195:
  2755                                  ; RPN'ized expression: "tramaThread tw -> *u &u BX -> *u 0 = "
  2756                                  ; Expanded expression: "tramaThread *(4) 0 + 20 + 0 =(2) "
  2757                                  ; Fused expression:    "tramaThread + *ax 0 + ax 20 =(172) *ax 0 "
  2758                                  section .relod
  2759 000001B4 [BE100000]              	dd	L205
  2760                                  section .text
  2761 000010BC 66B8                    	db	0x66, 0xB8
  2762                                  L205:
  2763 000010BE [00000000]              	dd	_tramaThread
  2764 000010C2 6689C3                  	mov	ebx, eax
  2765 000010C5 6689DE                  	mov	esi, ebx
  2766 000010C8 66C1CE04                	ror	esi, 4
  2767 000010CC 8EDE                    	mov	ds, si
  2768 000010CE 66C1EE1C                	shr	esi, 28
  2769 000010D2 668B04                  	mov	eax, [si]
  2770 000010D5 6683C014                	add	eax, 20
  2771 000010D9 6689C3                  	mov	ebx, eax
  2772 000010DC 66B800000000            	mov	eax, 0
  2773 000010E2 6689DE                  	mov	esi, ebx
  2774 000010E5 66C1CE04                	ror	esi, 4
  2775 000010E9 8EDE                    	mov	ds, si
  2776 000010EB 66C1EE1C                	shr	esi, 28
  2777 000010EF 8904                    	mov	[si], ax
  2778 000010F1 660FB7C0                	movzx	eax, ax
  2779                                  ; }
  2780 000010F5 E98901                  	jmp	L191
  2781                                  L190:
  2782                                  ; else
  2783                                  ; {
  2784                                  ; RPN'ized expression: "i 0 = "
  2785                                  ; Expanded expression: "L10 0 =(4) "
  2786                                  ; Fused expression:    "L10 =(204) *ax 0 "
  2787                                  section .relod
  2788 000001B8 [FA100000]              	dd	L206
  2789                                  section .text
  2790 000010F8 66B8                    	db	0x66, 0xB8
  2791                                  L206:
  2792 000010FA [00000000]              	dd	L10
  2793 000010FE 6689C3                  	mov	ebx, eax
  2794 00001101 66B800000000            	mov	eax, 0
  2795 00001107 6689DE                  	mov	esi, ebx
  2796 0000110A 66C1CE04                	ror	esi, 4
  2797 0000110E 8EDE                    	mov	ds, si
  2798 00001110 66C1EE1C                	shr	esi, 28
  2799 00001114 668904                  	mov	[si], eax
  2800                                  ; while
  2801                                  ; RPN'ized expression: "i 16 < descProceso i + *u &u ppindx -> *u indProcesoActual != && "
  2802                                  ; Expanded expression: "L10 *(4) 16 < [sh&&->209] descProceso L10 *(4) 292 * + 12 + *(4) indProcesoActual *(4) != &&[209] "
  2803                                  L207:
  2804                                  ; Fused expression:    "L10 < *ax 16 [sh&&->209] descProceso push-ax L10 * *ax 292 + *sp ax + ax 12 push-ax indProcesoActual != **sp *ax &&[209]  "
  2805                                  section .relod
  2806 000001BC [19110000]              	dd	L210
  2807                                  section .text
  2808 00001117 66B8                    	db	0x66, 0xB8
  2809                                  L210:
  2810 00001119 [00000000]              	dd	L10
  2811 0000111D 6689C3                  	mov	ebx, eax
  2812 00001120 6689DE                  	mov	esi, ebx
  2813 00001123 66C1CE04                	ror	esi, 4
  2814 00001127 8EDE                    	mov	ds, si
  2815 00001129 66C1EE1C                	shr	esi, 28
  2816 0000112D 668B04                  	mov	eax, [si]
  2817 00001130 6683F810                	cmp	eax, 16
  2818 00001134 0F9CC0                  	setl	al
  2819 00001137 660FB6C0                	movzx	eax, al
  2820                                  ; JumpIfZero
  2821 0000113B 6685C0                  	test	eax, eax
  2822 0000113E 746B                    	je	L209
  2823                                  section .relod
  2824 000001C0 [42110000]              	dd	L211
  2825                                  section .text
  2826 00001140 66B8                    	db	0x66, 0xB8
  2827                                  L211:
  2828 00001142 [00000000]              	dd	_descProceso
  2829 00001146 6650                    	push	eax
  2830                                  section .relod
  2831 000001C4 [4A110000]              	dd	L212
  2832                                  section .text
  2833 00001148 66B8                    	db	0x66, 0xB8
  2834                                  L212:
  2835 0000114A [00000000]              	dd	L10
  2836 0000114E 6689C3                  	mov	ebx, eax
  2837 00001151 6689DE                  	mov	esi, ebx
  2838 00001154 66C1CE04                	ror	esi, 4
  2839 00001158 8EDE                    	mov	ds, si
  2840 0000115A 66C1EE1C                	shr	esi, 28
  2841 0000115E 668B04                  	mov	eax, [si]
  2842 00001161 6669C024010000          	imul	eax, eax, 292
  2843 00001168 6689C1                  	mov	ecx, eax
  2844 0000116B 6658                    	pop	eax
  2845 0000116D 6601C8                  	add	eax, ecx
  2846 00001170 6683C00C                	add	eax, 12
  2847 00001174 6650                    	push	eax
  2848                                  section .relod
  2849 000001C8 [78110000]              	dd	L213
  2850                                  section .text
  2851 00001176 66B8                    	db	0x66, 0xB8
  2852                                  L213:
  2853 00001178 [00000000]              	dd	_indProcesoActual
  2854 0000117C 6689C3                  	mov	ebx, eax
  2855 0000117F 6689DE                  	mov	esi, ebx
  2856 00001182 66C1CE04                	ror	esi, 4
  2857 00001186 8EDE                    	mov	ds, si
  2858 00001188 66C1EE1C                	shr	esi, 28
  2859 0000118C 668B0C                  	mov	ecx, [si]
  2860 0000118F 665B                    	pop	ebx
  2861 00001191 6689DE                  	mov	esi, ebx
  2862 00001194 66C1CE04                	ror	esi, 4
  2863 00001198 8EDE                    	mov	ds, si
  2864 0000119A 66C1EE1C                	shr	esi, 28
  2865 0000119E 668B04                  	mov	eax, [si]
  2866 000011A1 6639C8                  	cmp	eax, ecx
  2867 000011A4 0F95C0                  	setne	al
  2868 000011A7 660FB6C0                	movzx	eax, al
  2869                                  L209:
  2870                                  ; JumpIfZero
  2871 000011AB 6685C0                  	test	eax, eax
  2872 000011AE 741F                    	je	L208
  2873                                  ; RPN'ized expression: "i ++p "
  2874                                  ; Expanded expression: "L10 ++p(4) "
  2875                                  ; Fused expression:    "L10 ++p(4) *ax "
  2876                                  section .relod
  2877 000001CC [B2110000]              	dd	L214
  2878                                  section .text
  2879 000011B0 66B8                    	db	0x66, 0xB8
  2880                                  L214:
  2881 000011B2 [00000000]              	dd	L10
  2882 000011B6 6689C3                  	mov	ebx, eax
  2883 000011B9 6689DE                  	mov	esi, ebx
  2884 000011BC 66C1CE04                	ror	esi, 4
  2885 000011C0 8EDE                    	mov	ds, si
  2886 000011C2 66C1EE1C                	shr	esi, 28
  2887 000011C6 668B04                  	mov	eax, [si]
  2888 000011C9 66FF04                  	inc	dword [si]
  2889 000011CC E948FF                  	jmp	L207
  2890                                  L208:
  2891                                  ; if
  2892                                  ; RPN'ized expression: "i 16 < "
  2893                                  ; Expanded expression: "L10 *(4) 16 < "
  2894                                  ; Fused expression:    "L10 < *ax 16 IF! "
  2895                                  section .relod
  2896 000001D0 [D1110000]              	dd	L217
  2897                                  section .text
  2898 000011CF 66B8                    	db	0x66, 0xB8
  2899                                  L217:
  2900 000011D1 [00000000]              	dd	L10
  2901 000011D5 6689C3                  	mov	ebx, eax
  2902 000011D8 6689DE                  	mov	esi, ebx
  2903 000011DB 66C1CE04                	ror	esi, 4
  2904 000011DF 8EDE                    	mov	ds, si
  2905 000011E1 66C1EE1C                	shr	esi, 28
  2906 000011E5 668B04                  	mov	eax, [si]
  2907 000011E8 6683F810                	cmp	eax, 16
  2908 000011EC 7D5A                    	jge	L215
  2909                                  ; {
  2910                                  ; RPN'ized expression: "descProceso indProcesoActual + *u &u hpindx -> *u 1 -u = "
  2911                                  ; Expanded expression: "descProceso indProcesoActual *(4) 292 * + 16 + -1 =(4) "
  2912                                  ; Fused expression:    "descProceso push-ax indProcesoActual * *ax 292 + *sp ax + ax 16 =(204) *ax -1 "
  2913                                  section .relod
  2914 000001D4 [F0110000]              	dd	L218
  2915                                  section .text
  2916 000011EE 66B8                    	db	0x66, 0xB8
  2917                                  L218:
  2918 000011F0 [00000000]              	dd	_descProceso
  2919 000011F4 6650                    	push	eax
  2920                                  section .relod
  2921 000001D8 [F8110000]              	dd	L219
  2922                                  section .text
  2923 000011F6 66B8                    	db	0x66, 0xB8
  2924                                  L219:
  2925 000011F8 [00000000]              	dd	_indProcesoActual
  2926 000011FC 6689C3                  	mov	ebx, eax
  2927 000011FF 6689DE                  	mov	esi, ebx
  2928 00001202 66C1CE04                	ror	esi, 4
  2929 00001206 8EDE                    	mov	ds, si
  2930 00001208 66C1EE1C                	shr	esi, 28
  2931 0000120C 668B04                  	mov	eax, [si]
  2932 0000120F 6669C024010000          	imul	eax, eax, 292
  2933 00001216 6689C1                  	mov	ecx, eax
  2934 00001219 6658                    	pop	eax
  2935 0000121B 6601C8                  	add	eax, ecx
  2936 0000121E 6683C010                	add	eax, 16
  2937 00001222 6689C3                  	mov	ebx, eax
  2938 00001225 66B8FFFFFFFF            	mov	eax, -1
  2939 0000122B 6689DE                  	mov	esi, ebx
  2940 0000122E 66C1CE04                	ror	esi, 4
  2941 00001232 8EDE                    	mov	ds, si
  2942 00001234 66C1EE1C                	shr	esi, 28
  2943 00001238 668904                  	mov	[si], eax
  2944                                  ; loc                         <something> : int
  2945                                  ; RPN'ized expression: "( 1 -u (something220) bloquearThreadActual ) "
  2946                                  ; Expanded expression: " -1  bloquearThreadActual ()4 "
  2947                                  ; Fused expression:    "( -1 , bloquearThreadActual )4 "
  2948 0000123B 666AFF                  	push	dword -1
  2949 0000123E 9A                      	db	0x9A
  2950                                  section .relot
  2951 00000040 [3F120000]              	dd	L221
  2952                                  section .text
  2953                                  L221:
  2954 0000123F [00000000]              	dd	_bloquearThreadActual
  2955 00001243 83ECFC                  	sub	sp, -4
  2956                                  ; }
  2957 00001246 EB39                    	jmp	L216
  2958                                  L215:
  2959                                  ; else
  2960                                  ; RPN'ized expression: "tramaThread tw -> *u &u BX -> *u 1 -u = "
  2961                                  ; Expanded expression: "tramaThread *(4) 0 + 20 + -1 =(2) "
  2962                                  ; Fused expression:    "tramaThread + *ax 0 + ax 20 =(172) *ax -1 "
  2963                                  section .relod
  2964 000001DC [4A120000]              	dd	L222
  2965                                  section .text
  2966 00001248 66B8                    	db	0x66, 0xB8
  2967                                  L222:
  2968 0000124A [00000000]              	dd	_tramaThread
  2969 0000124E 6689C3                  	mov	ebx, eax
  2970 00001251 6689DE                  	mov	esi, ebx
  2971 00001254 66C1CE04                	ror	esi, 4
  2972 00001258 8EDE                    	mov	ds, si
  2973 0000125A 66C1EE1C                	shr	esi, 28
  2974 0000125E 668B04                  	mov	eax, [si]
  2975 00001261 6683C014                	add	eax, 20
  2976 00001265 6689C3                  	mov	ebx, eax
  2977 00001268 66B8FFFFFFFF            	mov	eax, -1
  2978 0000126E 6689DE                  	mov	esi, ebx
  2979 00001271 66C1CE04                	ror	esi, 4
  2980 00001275 8EDE                    	mov	ds, si
  2981 00001277 66C1EE1C                	shr	esi, 28
  2982 0000127B 8904                    	mov	[si], ax
  2983 0000127D 660FB7C0                	movzx	eax, ax
  2984                                  L216:
  2985                                  ; }
  2986                                  L191:
  2987                                  L180:
  2988                                  ; }
  2989                                  L151:
  2990                                  ; }
  2991                                  L120:
  2992                                  ; break
  2993 00001281 E91406                  	jmp	L16
  2994                                  ; case
  2995                                  ; RPN'ized expression: "4 "
  2996                                  ; Expanded expression: "4 "
  2997                                  ; Expression value: 4
  2998                                  L223:
  2999                                  ; RPN'ized expression: "( indProcesoActual doKill ) "
  3000                                  ; Expanded expression: " indProcesoActual *(4)  doKill ()4 "
  3001                                  ; Fused expression:    "( indProcesoActual *(4) ax , doKill )4 "
  3002                                  section .relod
  3003 000001E0 [86120000]              	dd	L224
  3004                                  section .text
  3005 00001284 66B8                    	db	0x66, 0xB8
  3006                                  L224:
  3007 00001286 [00000000]              	dd	_indProcesoActual
  3008 0000128A 6689C3                  	mov	ebx, eax
  3009 0000128D 6689DE                  	mov	esi, ebx
  3010 00001290 66C1CE04                	ror	esi, 4
  3011 00001294 8EDE                    	mov	ds, si
  3012 00001296 66C1EE1C                	shr	esi, 28
  3013 0000129A 66FF34                  	push	dword [si]
  3014 0000129D 9A                      	db	0x9A
  3015                                  section .relot
  3016 00000044 [9E120000]              	dd	L225
  3017                                  section .text
  3018                                  L225:
  3019 0000129E [00000000]              	dd	_doKill
  3020 000012A2 83ECFC                  	sub	sp, -4
  3021                                  ; break
  3022 000012A5 E9F005                  	jmp	L16
  3023                                  ; case
  3024                                  ; RPN'ized expression: "5 "
  3025                                  ; Expanded expression: "5 "
  3026                                  ; Expression value: 5
  3027                                  L226:
  3028                                  ; RPN'ized expression: "tramaThread tw -> *u &u BX -> *u descProceso indProcesoActual + *u &u pid -> *u = "
  3029                                  ; Expanded expression: "tramaThread *(4) 0 + 20 + descProceso indProcesoActual *(4) 292 * + 0 + *(4) =(2) "
  3030                                  ; Fused expression:    "tramaThread + *ax 0 + ax 20 push-ax descProceso push-ax indProcesoActual * *ax 292 + *sp ax + ax 0 =(172) **sp *ax "
  3031                                  section .relod
  3032 000001E4 [AA120000]              	dd	L227
  3033                                  section .text
  3034 000012A8 66B8                    	db	0x66, 0xB8
  3035                                  L227:
  3036 000012AA [00000000]              	dd	_tramaThread
  3037 000012AE 6689C3                  	mov	ebx, eax
  3038 000012B1 6689DE                  	mov	esi, ebx
  3039 000012B4 66C1CE04                	ror	esi, 4
  3040 000012B8 8EDE                    	mov	ds, si
  3041 000012BA 66C1EE1C                	shr	esi, 28
  3042 000012BE 668B04                  	mov	eax, [si]
  3043 000012C1 6683C014                	add	eax, 20
  3044 000012C5 6650                    	push	eax
  3045                                  section .relod
  3046 000001E8 [C9120000]              	dd	L228
  3047                                  section .text
  3048 000012C7 66B8                    	db	0x66, 0xB8
  3049                                  L228:
  3050 000012C9 [00000000]              	dd	_descProceso
  3051 000012CD 6650                    	push	eax
  3052                                  section .relod
  3053 000001EC [D1120000]              	dd	L229
  3054                                  section .text
  3055 000012CF 66B8                    	db	0x66, 0xB8
  3056                                  L229:
  3057 000012D1 [00000000]              	dd	_indProcesoActual
  3058 000012D5 6689C3                  	mov	ebx, eax
  3059 000012D8 6689DE                  	mov	esi, ebx
  3060 000012DB 66C1CE04                	ror	esi, 4
  3061 000012DF 8EDE                    	mov	ds, si
  3062 000012E1 66C1EE1C                	shr	esi, 28
  3063 000012E5 668B04                  	mov	eax, [si]
  3064 000012E8 6669C024010000          	imul	eax, eax, 292
  3065 000012EF 6689C1                  	mov	ecx, eax
  3066 000012F2 6658                    	pop	eax
  3067 000012F4 6601C8                  	add	eax, ecx
  3068 000012F7 6689C3                  	mov	ebx, eax
  3069 000012FA 6689DE                  	mov	esi, ebx
  3070 000012FD 66C1CE04                	ror	esi, 4
  3071 00001301 8EDE                    	mov	ds, si
  3072 00001303 66C1EE1C                	shr	esi, 28
  3073 00001307 668B04                  	mov	eax, [si]
  3074 0000130A 665B                    	pop	ebx
  3075 0000130C 6689DE                  	mov	esi, ebx
  3076 0000130F 66C1CE04                	ror	esi, 4
  3077 00001313 8EDE                    	mov	ds, si
  3078 00001315 66C1EE1C                	shr	esi, 28
  3079 00001319 8904                    	mov	[si], ax
  3080 0000131B 660FB7C0                	movzx	eax, ax
  3081                                  ; break
  3082 0000131F E97605                  	jmp	L16
  3083                                  ; case
  3084                                  ; RPN'ized expression: "6 "
  3085                                  ; Expanded expression: "6 "
  3086                                  ; Expression value: 6
  3087                                  L230:
  3088                                  ; RPN'ized expression: "tramaThread tw -> *u &u BX -> *u indProcesoActual = "
  3089                                  ; Expanded expression: "tramaThread *(4) 0 + 20 + indProcesoActual *(4) =(2) "
  3090                                  ; Fused expression:    "tramaThread + *ax 0 + ax 20 push-ax indProcesoActual =(172) **sp *ax "
  3091                                  section .relod
  3092 000001F0 [24130000]              	dd	L231
  3093                                  section .text
  3094 00001322 66B8                    	db	0x66, 0xB8
  3095                                  L231:
  3096 00001324 [00000000]              	dd	_tramaThread
  3097 00001328 6689C3                  	mov	ebx, eax
  3098 0000132B 6689DE                  	mov	esi, ebx
  3099 0000132E 66C1CE04                	ror	esi, 4
  3100 00001332 8EDE                    	mov	ds, si
  3101 00001334 66C1EE1C                	shr	esi, 28
  3102 00001338 668B04                  	mov	eax, [si]
  3103 0000133B 6683C014                	add	eax, 20
  3104 0000133F 6650                    	push	eax
  3105                                  section .relod
  3106 000001F4 [43130000]              	dd	L232
  3107                                  section .text
  3108 00001341 66B8                    	db	0x66, 0xB8
  3109                                  L232:
  3110 00001343 [00000000]              	dd	_indProcesoActual
  3111 00001347 6689C3                  	mov	ebx, eax
  3112 0000134A 6689DE                  	mov	esi, ebx
  3113 0000134D 66C1CE04                	ror	esi, 4
  3114 00001351 8EDE                    	mov	ds, si
  3115 00001353 66C1EE1C                	shr	esi, 28
  3116 00001357 668B04                  	mov	eax, [si]
  3117 0000135A 665B                    	pop	ebx
  3118 0000135C 6689DE                  	mov	esi, ebx
  3119 0000135F 66C1CE04                	ror	esi, 4
  3120 00001363 8EDE                    	mov	ds, si
  3121 00001365 66C1EE1C                	shr	esi, 28
  3122 00001369 8904                    	mov	[si], ax
  3123 0000136B 660FB7C0                	movzx	eax, ax
  3124                                  ; break
  3125 0000136F E92605                  	jmp	L16
  3126                                  ; case
  3127                                  ; RPN'ized expression: "7 "
  3128                                  ; Expanded expression: "7 "
  3129                                  ; Expression value: 7
  3130                                  L233:
  3131                                  ; RPN'ized expression: "tramaThread tw -> *u &u BX -> *u descProceso descProceso indProcesoActual + *u &u ppindx -> *u + *u &u pid -> *u = "
  3132                                  ; Expanded expression: "tramaThread *(4) 0 + 20 + descProceso descProceso indProcesoActual *(4) 292 * + 12 + *(4) 292 * + 0 + *(4) =(2) "
  3133                                  ; Fused expression:    "tramaThread + *ax 0 + ax 20 push-ax descProceso push-ax descProceso push-ax indProcesoActual * *ax 292 + *sp ax + ax 12 * *ax 292 + *sp ax + ax 0 =(172) **sp *ax "
  3134                                  section .relod
  3135 000001F8 [74130000]              	dd	L234
  3136                                  section .text
  3137 00001372 66B8                    	db	0x66, 0xB8
  3138                                  L234:
  3139 00001374 [00000000]              	dd	_tramaThread
  3140 00001378 6689C3                  	mov	ebx, eax
  3141 0000137B 6689DE                  	mov	esi, ebx
  3142 0000137E 66C1CE04                	ror	esi, 4
  3143 00001382 8EDE                    	mov	ds, si
  3144 00001384 66C1EE1C                	shr	esi, 28
  3145 00001388 668B04                  	mov	eax, [si]
  3146 0000138B 6683C014                	add	eax, 20
  3147 0000138F 6650                    	push	eax
  3148                                  section .relod
  3149 000001FC [93130000]              	dd	L235
  3150                                  section .text
  3151 00001391 66B8                    	db	0x66, 0xB8
  3152                                  L235:
  3153 00001393 [00000000]              	dd	_descProceso
  3154 00001397 6650                    	push	eax
  3155                                  section .relod
  3156 00000200 [9B130000]              	dd	L236
  3157                                  section .text
  3158 00001399 66B8                    	db	0x66, 0xB8
  3159                                  L236:
  3160 0000139B [00000000]              	dd	_descProceso
  3161 0000139F 6650                    	push	eax
  3162                                  section .relod
  3163 00000204 [A3130000]              	dd	L237
  3164                                  section .text
  3165 000013A1 66B8                    	db	0x66, 0xB8
  3166                                  L237:
  3167 000013A3 [00000000]              	dd	_indProcesoActual
  3168 000013A7 6689C3                  	mov	ebx, eax
  3169 000013AA 6689DE                  	mov	esi, ebx
  3170 000013AD 66C1CE04                	ror	esi, 4
  3171 000013B1 8EDE                    	mov	ds, si
  3172 000013B3 66C1EE1C                	shr	esi, 28
  3173 000013B7 668B04                  	mov	eax, [si]
  3174 000013BA 6669C024010000          	imul	eax, eax, 292
  3175 000013C1 6689C1                  	mov	ecx, eax
  3176 000013C4 6658                    	pop	eax
  3177 000013C6 6601C8                  	add	eax, ecx
  3178 000013C9 6683C00C                	add	eax, 12
  3179 000013CD 6689C3                  	mov	ebx, eax
  3180 000013D0 6689DE                  	mov	esi, ebx
  3181 000013D3 66C1CE04                	ror	esi, 4
  3182 000013D7 8EDE                    	mov	ds, si
  3183 000013D9 66C1EE1C                	shr	esi, 28
  3184 000013DD 668B04                  	mov	eax, [si]
  3185 000013E0 6669C024010000          	imul	eax, eax, 292
  3186 000013E7 6689C1                  	mov	ecx, eax
  3187 000013EA 6658                    	pop	eax
  3188 000013EC 6601C8                  	add	eax, ecx
  3189 000013EF 6689C3                  	mov	ebx, eax
  3190 000013F2 6689DE                  	mov	esi, ebx
  3191 000013F5 66C1CE04                	ror	esi, 4
  3192 000013F9 8EDE                    	mov	ds, si
  3193 000013FB 66C1EE1C                	shr	esi, 28
  3194 000013FF 668B04                  	mov	eax, [si]
  3195 00001402 665B                    	pop	ebx
  3196 00001404 6689DE                  	mov	esi, ebx
  3197 00001407 66C1CE04                	ror	esi, 4
  3198 0000140B 8EDE                    	mov	ds, si
  3199 0000140D 66C1EE1C                	shr	esi, 28
  3200 00001411 8904                    	mov	[si], ax
  3201 00001413 660FB7C0                	movzx	eax, ax
  3202                                  ; break
  3203 00001417 E97E04                  	jmp	L16
  3204                                  ; case
  3205                                  ; RPN'ized expression: "8 "
  3206                                  ; Expanded expression: "8 "
  3207                                  ; Expression value: 8
  3208                                  L238:
  3209                                  ; RPN'ized expression: "tramaThread tw -> *u &u BX -> *u descProceso indProcesoActual + *u &u uid -> *u = "
  3210                                  ; Expanded expression: "tramaThread *(4) 0 + 20 + descProceso indProcesoActual *(4) 292 * + 284 + *(4) =(2) "
  3211                                  ; Fused expression:    "tramaThread + *ax 0 + ax 20 push-ax descProceso push-ax indProcesoActual * *ax 292 + *sp ax + ax 284 =(172) **sp *ax "
  3212                                  section .relod
  3213 00000208 [1C140000]              	dd	L239
  3214                                  section .text
  3215 0000141A 66B8                    	db	0x66, 0xB8
  3216                                  L239:
  3217 0000141C [00000000]              	dd	_tramaThread
  3218 00001420 6689C3                  	mov	ebx, eax
  3219 00001423 6689DE                  	mov	esi, ebx
  3220 00001426 66C1CE04                	ror	esi, 4
  3221 0000142A 8EDE                    	mov	ds, si
  3222 0000142C 66C1EE1C                	shr	esi, 28
  3223 00001430 668B04                  	mov	eax, [si]
  3224 00001433 6683C014                	add	eax, 20
  3225 00001437 6650                    	push	eax
  3226                                  section .relod
  3227 0000020C [3B140000]              	dd	L240
  3228                                  section .text
  3229 00001439 66B8                    	db	0x66, 0xB8
  3230                                  L240:
  3231 0000143B [00000000]              	dd	_descProceso
  3232 0000143F 6650                    	push	eax
  3233                                  section .relod
  3234 00000210 [43140000]              	dd	L241
  3235                                  section .text
  3236 00001441 66B8                    	db	0x66, 0xB8
  3237                                  L241:
  3238 00001443 [00000000]              	dd	_indProcesoActual
  3239 00001447 6689C3                  	mov	ebx, eax
  3240 0000144A 6689DE                  	mov	esi, ebx
  3241 0000144D 66C1CE04                	ror	esi, 4
  3242 00001451 8EDE                    	mov	ds, si
  3243 00001453 66C1EE1C                	shr	esi, 28
  3244 00001457 668B04                  	mov	eax, [si]
  3245 0000145A 6669C024010000          	imul	eax, eax, 292
  3246 00001461 6689C1                  	mov	ecx, eax
  3247 00001464 6658                    	pop	eax
  3248 00001466 6601C8                  	add	eax, ecx
  3249 00001469 66051C010000            	add	eax, 284
  3250 0000146F 6689C3                  	mov	ebx, eax
  3251 00001472 6689DE                  	mov	esi, ebx
  3252 00001475 66C1CE04                	ror	esi, 4
  3253 00001479 8EDE                    	mov	ds, si
  3254 0000147B 66C1EE1C                	shr	esi, 28
  3255 0000147F 668B04                  	mov	eax, [si]
  3256 00001482 665B                    	pop	ebx
  3257 00001484 6689DE                  	mov	esi, ebx
  3258 00001487 66C1CE04                	ror	esi, 4
  3259 0000148B 8EDE                    	mov	ds, si
  3260 0000148D 66C1EE1C                	shr	esi, 28
  3261 00001491 8904                    	mov	[si], ax
  3262 00001493 660FB7C0                	movzx	eax, ax
  3263                                  ; break
  3264 00001497 E9FE03                  	jmp	L16
  3265                                  ; case
  3266                                  ; RPN'ized expression: "9 "
  3267                                  ; Expanded expression: "9 "
  3268                                  ; Expression value: 9
  3269                                  L242:
  3270                                  ; RPN'ized expression: "descProceso indProcesoActual + *u &u uid -> *u tramaThread tw -> *u &u BX -> *u = "
  3271                                  ; Expanded expression: "descProceso indProcesoActual *(4) 292 * + 284 + tramaThread *(4) 0 + 20 + *(2) =(4) "
  3272                                  ; Fused expression:    "descProceso push-ax indProcesoActual * *ax 292 + *sp ax + ax 284 push-ax tramaThread + *ax 0 + ax 20 =(202) **sp *ax "
  3273                                  section .relod
  3274 00000214 [9C140000]              	dd	L243
  3275                                  section .text
  3276 0000149A 66B8                    	db	0x66, 0xB8
  3277                                  L243:
  3278 0000149C [00000000]              	dd	_descProceso
  3279 000014A0 6650                    	push	eax
  3280                                  section .relod
  3281 00000218 [A4140000]              	dd	L244
  3282                                  section .text
  3283 000014A2 66B8                    	db	0x66, 0xB8
  3284                                  L244:
  3285 000014A4 [00000000]              	dd	_indProcesoActual
  3286 000014A8 6689C3                  	mov	ebx, eax
  3287 000014AB 6689DE                  	mov	esi, ebx
  3288 000014AE 66C1CE04                	ror	esi, 4
  3289 000014B2 8EDE                    	mov	ds, si
  3290 000014B4 66C1EE1C                	shr	esi, 28
  3291 000014B8 668B04                  	mov	eax, [si]
  3292 000014BB 6669C024010000          	imul	eax, eax, 292
  3293 000014C2 6689C1                  	mov	ecx, eax
  3294 000014C5 6658                    	pop	eax
  3295 000014C7 6601C8                  	add	eax, ecx
  3296 000014CA 66051C010000            	add	eax, 284
  3297 000014D0 6650                    	push	eax
  3298                                  section .relod
  3299 0000021C [D4140000]              	dd	L245
  3300                                  section .text
  3301 000014D2 66B8                    	db	0x66, 0xB8
  3302                                  L245:
  3303 000014D4 [00000000]              	dd	_tramaThread
  3304 000014D8 6689C3                  	mov	ebx, eax
  3305 000014DB 6689DE                  	mov	esi, ebx
  3306 000014DE 66C1CE04                	ror	esi, 4
  3307 000014E2 8EDE                    	mov	ds, si
  3308 000014E4 66C1EE1C                	shr	esi, 28
  3309 000014E8 668B04                  	mov	eax, [si]
  3310 000014EB 6683C014                	add	eax, 20
  3311 000014EF 6689C3                  	mov	ebx, eax
  3312 000014F2 6689DE                  	mov	esi, ebx
  3313 000014F5 66C1CE04                	ror	esi, 4
  3314 000014F9 8EDE                    	mov	ds, si
  3315 000014FB 66C1EE1C                	shr	esi, 28
  3316 000014FF 8B04                    	mov	ax, [si]
  3317 00001501 660FB7C0                	movzx	eax, ax
  3318 00001505 665B                    	pop	ebx
  3319 00001507 6689DE                  	mov	esi, ebx
  3320 0000150A 66C1CE04                	ror	esi, 4
  3321 0000150E 8EDE                    	mov	ds, si
  3322 00001510 66C1EE1C                	shr	esi, 28
  3323 00001514 668904                  	mov	[si], eax
  3324                                  ; break
  3325 00001517 E97E03                  	jmp	L16
  3326                                  ; case
  3327                                  ; RPN'ized expression: "10 "
  3328                                  ; Expanded expression: "10 "
  3329                                  ; Expression value: 10
  3330                                  L246:
  3331                                  ; RPN'ized expression: "tramaThread tw -> *u &u BX -> *u descProceso indProcesoActual + *u &u gid -> *u = "
  3332                                  ; Expanded expression: "tramaThread *(4) 0 + 20 + descProceso indProcesoActual *(4) 292 * + 288 + *(4) =(2) "
  3333                                  ; Fused expression:    "tramaThread + *ax 0 + ax 20 push-ax descProceso push-ax indProcesoActual * *ax 292 + *sp ax + ax 288 =(172) **sp *ax "
  3334                                  section .relod
  3335 00000220 [1C150000]              	dd	L247
  3336                                  section .text
  3337 0000151A 66B8                    	db	0x66, 0xB8
  3338                                  L247:
  3339 0000151C [00000000]              	dd	_tramaThread
  3340 00001520 6689C3                  	mov	ebx, eax
  3341 00001523 6689DE                  	mov	esi, ebx
  3342 00001526 66C1CE04                	ror	esi, 4
  3343 0000152A 8EDE                    	mov	ds, si
  3344 0000152C 66C1EE1C                	shr	esi, 28
  3345 00001530 668B04                  	mov	eax, [si]
  3346 00001533 6683C014                	add	eax, 20
  3347 00001537 6650                    	push	eax
  3348                                  section .relod
  3349 00000224 [3B150000]              	dd	L248
  3350                                  section .text
  3351 00001539 66B8                    	db	0x66, 0xB8
  3352                                  L248:
  3353 0000153B [00000000]              	dd	_descProceso
  3354 0000153F 6650                    	push	eax
  3355                                  section .relod
  3356 00000228 [43150000]              	dd	L249
  3357                                  section .text
  3358 00001541 66B8                    	db	0x66, 0xB8
  3359                                  L249:
  3360 00001543 [00000000]              	dd	_indProcesoActual
  3361 00001547 6689C3                  	mov	ebx, eax
  3362 0000154A 6689DE                  	mov	esi, ebx
  3363 0000154D 66C1CE04                	ror	esi, 4
  3364 00001551 8EDE                    	mov	ds, si
  3365 00001553 66C1EE1C                	shr	esi, 28
  3366 00001557 668B04                  	mov	eax, [si]
  3367 0000155A 6669C024010000          	imul	eax, eax, 292
  3368 00001561 6689C1                  	mov	ecx, eax
  3369 00001564 6658                    	pop	eax
  3370 00001566 6601C8                  	add	eax, ecx
  3371 00001569 660520010000            	add	eax, 288
  3372 0000156F 6689C3                  	mov	ebx, eax
  3373 00001572 6689DE                  	mov	esi, ebx
  3374 00001575 66C1CE04                	ror	esi, 4
  3375 00001579 8EDE                    	mov	ds, si
  3376 0000157B 66C1EE1C                	shr	esi, 28
  3377 0000157F 668B04                  	mov	eax, [si]
  3378 00001582 665B                    	pop	ebx
  3379 00001584 6689DE                  	mov	esi, ebx
  3380 00001587 66C1CE04                	ror	esi, 4
  3381 0000158B 8EDE                    	mov	ds, si
  3382 0000158D 66C1EE1C                	shr	esi, 28
  3383 00001591 8904                    	mov	[si], ax
  3384 00001593 660FB7C0                	movzx	eax, ax
  3385                                  ; break
  3386 00001597 E9FE02                  	jmp	L16
  3387                                  ; case
  3388                                  ; RPN'ized expression: "11 "
  3389                                  ; Expanded expression: "11 "
  3390                                  ; Expression value: 11
  3391                                  L250:
  3392                                  ; RPN'ized expression: "descProceso indProcesoActual + *u &u gid -> *u tramaThread tw -> *u &u BX -> *u = "
  3393                                  ; Expanded expression: "descProceso indProcesoActual *(4) 292 * + 288 + tramaThread *(4) 0 + 20 + *(2) =(4) "
  3394                                  ; Fused expression:    "descProceso push-ax indProcesoActual * *ax 292 + *sp ax + ax 288 push-ax tramaThread + *ax 0 + ax 20 =(202) **sp *ax "
  3395                                  section .relod
  3396 0000022C [9C150000]              	dd	L251
  3397                                  section .text
  3398 0000159A 66B8                    	db	0x66, 0xB8
  3399                                  L251:
  3400 0000159C [00000000]              	dd	_descProceso
  3401 000015A0 6650                    	push	eax
  3402                                  section .relod
  3403 00000230 [A4150000]              	dd	L252
  3404                                  section .text
  3405 000015A2 66B8                    	db	0x66, 0xB8
  3406                                  L252:
  3407 000015A4 [00000000]              	dd	_indProcesoActual
  3408 000015A8 6689C3                  	mov	ebx, eax
  3409 000015AB 6689DE                  	mov	esi, ebx
  3410 000015AE 66C1CE04                	ror	esi, 4
  3411 000015B2 8EDE                    	mov	ds, si
  3412 000015B4 66C1EE1C                	shr	esi, 28
  3413 000015B8 668B04                  	mov	eax, [si]
  3414 000015BB 6669C024010000          	imul	eax, eax, 292
  3415 000015C2 6689C1                  	mov	ecx, eax
  3416 000015C5 6658                    	pop	eax
  3417 000015C7 6601C8                  	add	eax, ecx
  3418 000015CA 660520010000            	add	eax, 288
  3419 000015D0 6650                    	push	eax
  3420                                  section .relod
  3421 00000234 [D4150000]              	dd	L253
  3422                                  section .text
  3423 000015D2 66B8                    	db	0x66, 0xB8
  3424                                  L253:
  3425 000015D4 [00000000]              	dd	_tramaThread
  3426 000015D8 6689C3                  	mov	ebx, eax
  3427 000015DB 6689DE                  	mov	esi, ebx
  3428 000015DE 66C1CE04                	ror	esi, 4
  3429 000015E2 8EDE                    	mov	ds, si
  3430 000015E4 66C1EE1C                	shr	esi, 28
  3431 000015E8 668B04                  	mov	eax, [si]
  3432 000015EB 6683C014                	add	eax, 20
  3433 000015EF 6689C3                  	mov	ebx, eax
  3434 000015F2 6689DE                  	mov	esi, ebx
  3435 000015F5 66C1CE04                	ror	esi, 4
  3436 000015F9 8EDE                    	mov	ds, si
  3437 000015FB 66C1EE1C                	shr	esi, 28
  3438 000015FF 8B04                    	mov	ax, [si]
  3439 00001601 660FB7C0                	movzx	eax, ax
  3440 00001605 665B                    	pop	ebx
  3441 00001607 6689DE                  	mov	esi, ebx
  3442 0000160A 66C1CE04                	ror	esi, 4
  3443 0000160E 8EDE                    	mov	ds, si
  3444 00001610 66C1EE1C                	shr	esi, 28
  3445 00001614 668904                  	mov	[si], eax
  3446                                  ; break
  3447 00001617 E97E02                  	jmp	L16
  3448                                  ; case
  3449                                  ; RPN'ized expression: "12 "
  3450                                  ; Expanded expression: "12 "
  3451                                  ; Expression value: 12
  3452                                  L254:
  3453                                  ; loc         <something> : int
  3454                                  ; RPN'ized expression: "pid tramaThread tw -> *u &u DX -> *u (something255) = "
  3455                                  ; Expanded expression: "L11 tramaThread *(4) 0 + 24 + *(2) =(4) "
  3456                                  ; Fused expression:    "L11 push-ax tramaThread + *ax 0 + ax 24 =(202) **sp *ax "
  3457                                  section .relod
  3458 00000238 [1C160000]              	dd	L256
  3459                                  section .text
  3460 0000161A 66B8                    	db	0x66, 0xB8
  3461                                  L256:
  3462 0000161C [04000000]              	dd	L11
  3463 00001620 6650                    	push	eax
  3464                                  section .relod
  3465 0000023C [24160000]              	dd	L257
  3466                                  section .text
  3467 00001622 66B8                    	db	0x66, 0xB8
  3468                                  L257:
  3469 00001624 [00000000]              	dd	_tramaThread
  3470 00001628 6689C3                  	mov	ebx, eax
  3471 0000162B 6689DE                  	mov	esi, ebx
  3472 0000162E 66C1CE04                	ror	esi, 4
  3473 00001632 8EDE                    	mov	ds, si
  3474 00001634 66C1EE1C                	shr	esi, 28
  3475 00001638 668B04                  	mov	eax, [si]
  3476 0000163B 6683C018                	add	eax, 24
  3477 0000163F 6689C3                  	mov	ebx, eax
  3478 00001642 6689DE                  	mov	esi, ebx
  3479 00001645 66C1CE04                	ror	esi, 4
  3480 00001649 8EDE                    	mov	ds, si
  3481 0000164B 66C1EE1C                	shr	esi, 28
  3482 0000164F 8B04                    	mov	ax, [si]
  3483 00001651 660FB7C0                	movzx	eax, ax
  3484 00001655 665B                    	pop	ebx
  3485 00001657 6689DE                  	mov	esi, ebx
  3486 0000165A 66C1CE04                	ror	esi, 4
  3487 0000165E 8EDE                    	mov	ds, si
  3488 00001660 66C1EE1C                	shr	esi, 28
  3489 00001664 668904                  	mov	[si], eax
  3490                                  ; if
  3491                                  ; RPN'ized expression: "pid 0 >= "
  3492                                  ; Expanded expression: "L11 *(4) 0 >= "
  3493                                  ; Fused expression:    "L11 >= *ax 0 IF! "
  3494                                  section .relod
  3495 00000240 [69160000]              	dd	L260
  3496                                  section .text
  3497 00001667 66B8                    	db	0x66, 0xB8
  3498                                  L260:
  3499 00001669 [04000000]              	dd	L11
  3500 0000166D 6689C3                  	mov	ebx, eax
  3501 00001670 6689DE                  	mov	esi, ebx
  3502 00001673 66C1CE04                	ror	esi, 4
  3503 00001677 8EDE                    	mov	ds, si
  3504 00001679 66C1EE1C                	shr	esi, 28
  3505 0000167D 668B04                  	mov	eax, [si]
  3506 00001680 6683F800                	cmp	eax, 0
  3507 00001684 0F8CC800                	jl	L258
  3508                                  ; {
  3509                                  ; RPN'ized expression: "i ( pid indice ) = "
  3510                                  ; Expanded expression: "L10  L11 *(4)  indice ()4 =(4) "
  3511                                  ; Fused expression:    "L10 push-ax ( L11 *(4) ax , indice )4 =(204) **sp ax "
  3512                                  section .relod
  3513 00000244 [8A160000]              	dd	L261
  3514                                  section .text
  3515 00001688 66B8                    	db	0x66, 0xB8
  3516                                  L261:
  3517 0000168A [00000000]              	dd	L10
  3518 0000168E 6650                    	push	eax
  3519                                  section .relod
  3520 00000248 [92160000]              	dd	L262
  3521                                  section .text
  3522 00001690 66B8                    	db	0x66, 0xB8
  3523                                  L262:
  3524 00001692 [04000000]              	dd	L11
  3525 00001696 6689C3                  	mov	ebx, eax
  3526 00001699 6689DE                  	mov	esi, ebx
  3527 0000169C 66C1CE04                	ror	esi, 4
  3528 000016A0 8EDE                    	mov	ds, si
  3529 000016A2 66C1EE1C                	shr	esi, 28
  3530 000016A6 66FF34                  	push	dword [si]
  3531 000016A9 9A                      	db	0x9A
  3532                                  section .relot
  3533 00000048 [AA160000]              	dd	L263
  3534                                  section .text
  3535                                  L263:
  3536 000016AA [00000000]              	dd	_indice
  3537 000016AE 83ECFC                  	sub	sp, -4
  3538 000016B1 665B                    	pop	ebx
  3539 000016B3 6689DE                  	mov	esi, ebx
  3540 000016B6 66C1CE04                	ror	esi, 4
  3541 000016BA 8EDE                    	mov	ds, si
  3542 000016BC 66C1EE1C                	shr	esi, 28
  3543 000016C0 668904                  	mov	[si], eax
  3544                                  ; loc             <something> : unsigned short
  3545                                  ; RPN'ized expression: "tramaThread tw -> *u &u BX -> *u i 1 -u != 2 -u ( i matarProcIndx ) ? (something264) = "
  3546                                  ; Expanded expression: "tramaThread *(4) 0 + 20 + L10 *(4) -1 != [sh||->265] -2 goto &&[265]  L10 *(4)  matarProcIndx ()4 &&[266] unsigned short =(2) "
  3547                                  ; Fused expression:    "tramaThread + *ax 0 + ax 20 push-ax L10 != *ax -1 [sh||->265] -2 [goto->266] &&[265] ( L10 *(4) ax , matarProcIndx )4 &&[266] unsigned short =(172) **sp ax "
  3548                                  section .relod
  3549 0000024C [C5160000]              	dd	L267
  3550                                  section .text
  3551 000016C3 66B8                    	db	0x66, 0xB8
  3552                                  L267:
  3553 000016C5 [00000000]              	dd	_tramaThread
  3554 000016C9 6689C3                  	mov	ebx, eax
  3555 000016CC 6689DE                  	mov	esi, ebx
  3556 000016CF 66C1CE04                	ror	esi, 4
  3557 000016D3 8EDE                    	mov	ds, si
  3558 000016D5 66C1EE1C                	shr	esi, 28
  3559 000016D9 668B04                  	mov	eax, [si]
  3560 000016DC 6683C014                	add	eax, 20
  3561 000016E0 6650                    	push	eax
  3562                                  section .relod
  3563 00000250 [E4160000]              	dd	L268
  3564                                  section .text
  3565 000016E2 66B8                    	db	0x66, 0xB8
  3566                                  L268:
  3567 000016E4 [00000000]              	dd	L10
  3568 000016E8 6689C3                  	mov	ebx, eax
  3569 000016EB 6689DE                  	mov	esi, ebx
  3570 000016EE 66C1CE04                	ror	esi, 4
  3571 000016F2 8EDE                    	mov	ds, si
  3572 000016F4 66C1EE1C                	shr	esi, 28
  3573 000016F8 668B04                  	mov	eax, [si]
  3574 000016FB 6683F8FF                	cmp	eax, -1
  3575 000016FF 0F95C0                  	setne	al
  3576 00001702 660FB6C0                	movzx	eax, al
  3577                                  ; JumpIfNotZero
  3578 00001706 6685C0                  	test	eax, eax
  3579 00001709 7508                    	jne	L265
  3580 0000170B 66B8FEFFFFFF            	mov	eax, -2
  3581 00001711 EB21                    	jmp	L266
  3582                                  L265:
  3583                                  section .relod
  3584 00000254 [15170000]              	dd	L269
  3585                                  section .text
  3586 00001713 66B8                    	db	0x66, 0xB8
  3587                                  L269:
  3588 00001715 [00000000]              	dd	L10
  3589 00001719 6689C3                  	mov	ebx, eax
  3590 0000171C 6689DE                  	mov	esi, ebx
  3591 0000171F 66C1CE04                	ror	esi, 4
  3592 00001723 8EDE                    	mov	ds, si
  3593 00001725 66C1EE1C                	shr	esi, 28
  3594 00001729 66FF34                  	push	dword [si]
  3595 0000172C 9A                      	db	0x9A
  3596                                  section .relot
  3597 0000004C [2D170000]              	dd	L270
  3598                                  section .text
  3599                                  L270:
  3600 0000172D [00000000]              	dd	_matarProcIndx
  3601 00001731 83ECFC                  	sub	sp, -4
  3602                                  L266:
  3603 00001734 660FB7C0                	movzx	eax, ax
  3604 00001738 665B                    	pop	ebx
  3605 0000173A 6689DE                  	mov	esi, ebx
  3606 0000173D 66C1CE04                	ror	esi, 4
  3607 00001741 8EDE                    	mov	ds, si
  3608 00001743 66C1EE1C                	shr	esi, 28
  3609 00001747 8904                    	mov	[si], ax
  3610 00001749 660FB7C0                	movzx	eax, ax
  3611                                  ; }
  3612 0000174D E9DA00                  	jmp	L259
  3613                                  L258:
  3614                                  ; else
  3615                                  ; {
  3616                                  ; for
  3617                                  ; RPN'ized expression: "i 1 = "
  3618                                  ; Expanded expression: "L10 1 =(4) "
  3619                                  ; Fused expression:    "L10 =(204) *ax 1 "
  3620                                  section .relod
  3621 00000258 [52170000]              	dd	L275
  3622                                  section .text
  3623 00001750 66B8                    	db	0x66, 0xB8
  3624                                  L275:
  3625 00001752 [00000000]              	dd	L10
  3626 00001756 6689C3                  	mov	ebx, eax
  3627 00001759 66B801000000            	mov	eax, 1
  3628 0000175F 6689DE                  	mov	esi, ebx
  3629 00001762 66C1CE04                	ror	esi, 4
  3630 00001766 8EDE                    	mov	ds, si
  3631 00001768 66C1EE1C                	shr	esi, 28
  3632 0000176C 668904                  	mov	[si], eax
  3633                                  L271:
  3634                                  ; RPN'ized expression: "i 16 < "
  3635                                  ; Expanded expression: "L10 *(4) 16 < "
  3636                                  ; Fused expression:    "L10 < *ax 16 IF! "
  3637                                  section .relod
  3638 0000025C [71170000]              	dd	L276
  3639                                  section .text
  3640 0000176F 66B8                    	db	0x66, 0xB8
  3641                                  L276:
  3642 00001771 [00000000]              	dd	L10
  3643 00001775 6689C3                  	mov	ebx, eax
  3644 00001778 6689DE                  	mov	esi, ebx
  3645 0000177B 66C1CE04                	ror	esi, 4
  3646 0000177F 8EDE                    	mov	ds, si
  3647 00001781 66C1EE1C                	shr	esi, 28
  3648 00001785 668B04                  	mov	eax, [si]
  3649 00001788 6683F810                	cmp	eax, 16
  3650 0000178C 7D3F                    	jge	L274
  3651                                  ; RPN'ized expression: "i ++p "
  3652                                  ; Expanded expression: "L10 ++p(4) "
  3653                                  ; RPN'ized expression: "( i matarProcIndx ) "
  3654                                  ; Expanded expression: " L10 *(4)  matarProcIndx ()4 "
  3655                                  ; Fused expression:    "( L10 *(4) ax , matarProcIndx )4 "
  3656                                  section .relod
  3657 00000260 [90170000]              	dd	L277
  3658                                  section .text
  3659 0000178E 66B8                    	db	0x66, 0xB8
  3660                                  L277:
  3661 00001790 [00000000]              	dd	L10
  3662 00001794 6689C3                  	mov	ebx, eax
  3663 00001797 6689DE                  	mov	esi, ebx
  3664 0000179A 66C1CE04                	ror	esi, 4
  3665 0000179E 8EDE                    	mov	ds, si
  3666 000017A0 66C1EE1C                	shr	esi, 28
  3667 000017A4 66FF34                  	push	dword [si]
  3668 000017A7 9A                      	db	0x9A
  3669                                  section .relot
  3670 00000050 [A8170000]              	dd	L278
  3671                                  section .text
  3672                                  L278:
  3673 000017A8 [00000000]              	dd	_matarProcIndx
  3674 000017AC 83ECFC                  	sub	sp, -4
  3675                                  L272:
  3676                                  ; Fused expression:    "L10 ++p(4) *ax "
  3677                                  section .relod
  3678 00000264 [B1170000]              	dd	L279
  3679                                  section .text
  3680 000017AF 66B8                    	db	0x66, 0xB8
  3681                                  L279:
  3682 000017B1 [00000000]              	dd	L10
  3683 000017B5 6689C3                  	mov	ebx, eax
  3684 000017B8 6689DE                  	mov	esi, ebx
  3685 000017BB 66C1CE04                	ror	esi, 4
  3686 000017BF 8EDE                    	mov	ds, si
  3687 000017C1 66C1EE1C                	shr	esi, 28
  3688 000017C5 668B04                  	mov	eax, [si]
  3689 000017C8 66FF04                  	inc	dword [si]
  3690 000017CB EBA2                    	jmp	L271
  3691                                  L274:
  3692                                  ; RPN'ized expression: "tramaThread tw -> *u &u BX -> *u 0 = "
  3693                                  ; Expanded expression: "tramaThread *(4) 0 + 20 + 0 =(2) "
  3694                                  ; Fused expression:    "tramaThread + *ax 0 + ax 20 =(172) *ax 0 "
  3695                                  section .relod
  3696 00000268 [CF170000]              	dd	L280
  3697                                  section .text
  3698 000017CD 66B8                    	db	0x66, 0xB8
  3699                                  L280:
  3700 000017CF [00000000]              	dd	_tramaThread
  3701 000017D3 6689C3                  	mov	ebx, eax
  3702 000017D6 6689DE                  	mov	esi, ebx
  3703 000017D9 66C1CE04                	ror	esi, 4
  3704 000017DD 8EDE                    	mov	ds, si
  3705 000017DF 66C1EE1C                	shr	esi, 28
  3706 000017E3 668B04                  	mov	eax, [si]
  3707 000017E6 6683C014                	add	eax, 20
  3708 000017EA 6689C3                  	mov	ebx, eax
  3709 000017ED 66B800000000            	mov	eax, 0
  3710 000017F3 6689DE                  	mov	esi, ebx
  3711 000017F6 66C1CE04                	ror	esi, 4
  3712 000017FA 8EDE                    	mov	ds, si
  3713 000017FC 66C1EE1C                	shr	esi, 28
  3714 00001800 8904                    	mov	[si], ax
  3715 00001802 660FB7C0                	movzx	eax, ax
  3716                                  ; if
  3717                                  ; RPN'ized expression: "indProcesoActual 0 > "
  3718                                  ; Expanded expression: "indProcesoActual *(4) 0 > "
  3719                                  ; Fused expression:    "indProcesoActual > *ax 0 IF! "
  3720                                  section .relod
  3721 0000026C [08180000]              	dd	L283
  3722                                  section .text
  3723 00001806 66B8                    	db	0x66, 0xB8
  3724                                  L283:
  3725 00001808 [00000000]              	dd	_indProcesoActual
  3726 0000180C 6689C3                  	mov	ebx, eax
  3727 0000180F 6689DE                  	mov	esi, ebx
  3728 00001812 66C1CE04                	ror	esi, 4
  3729 00001816 8EDE                    	mov	ds, si
  3730 00001818 66C1EE1C                	shr	esi, 28
  3731 0000181C 668B04                  	mov	eax, [si]
  3732 0000181F 6683F800                	cmp	eax, 0
  3733 00001823 7E05                    	jle	L281
  3734                                  ; RPN'ized expression: "( buscarNuevoThreadActual ) "
  3735                                  ; Expanded expression: " buscarNuevoThreadActual ()0 "
  3736                                  ; Fused expression:    "( buscarNuevoThreadActual )0 "
  3737 00001825 9A                      	db	0x9A
  3738                                  section .relot
  3739 00000054 [26180000]              	dd	L284
  3740                                  section .text
  3741                                  L284:
  3742 00001826 [00000000]              	dd	_buscarNuevoThreadActual
  3743                                  L281:
  3744                                  ; }
  3745                                  L259:
  3746                                  ; break
  3747 0000182A EB6C                    	jmp	L16
  3748                                  ; default
  3749                                  L285:
  3750                                  ; }
  3751 0000182C EB6A                    	jmp	L16
  3752                                  L17:
  3753 0000182E 6683F800                	cmp	eax, 0
  3754 00001832 0F8465E8                	je	L19
  3755 00001836 6683F801                	cmp	eax, 1
  3756 0000183A 0F845DE8                	je	L20
  3757 0000183E 6683F802                	cmp	eax, 2
  3758 00001842 0F8431ED                	je	L77
  3759 00001846 6683F803                	cmp	eax, 3
  3760 0000184A 0F84FFEF                	je	L113
  3761 0000184E 6683F804                	cmp	eax, 4
  3762 00001852 0F842EFA                	je	L223
  3763 00001856 6683F805                	cmp	eax, 5
  3764 0000185A 0F844AFA                	je	L226
  3765 0000185E 6683F806                	cmp	eax, 6
  3766 00001862 0F84BCFA                	je	L230
  3767 00001866 6683F807                	cmp	eax, 7
  3768 0000186A 0F8404FB                	je	L233
  3769 0000186E 6683F808                	cmp	eax, 8
  3770 00001872 0F84A4FB                	je	L238
  3771 00001876 6683F809                	cmp	eax, 9
  3772 0000187A 0F841CFC                	je	L242
  3773 0000187E 6683F80A                	cmp	eax, 10
  3774 00001882 0F8494FC                	je	L246
  3775 00001886 6683F80B                	cmp	eax, 11
  3776 0000188A 0F840CFD                	je	L250
  3777 0000188E 6683F80C                	cmp	eax, 12
  3778 00001892 0F8484FD                	je	L254
  3779 00001896 EB94                    	jmp	L285
  3780                                  L16:
  3781                                  L8:
  3782 00001898 66                      	db	0x66
  3783 00001899 C9                      	leave
  3784 0000189A CB                      	retf
  3785                                  L286:
  3786                                  
  3787                                  section .fxnsz
  3788 00000004 3C180000                	dd	L286 - _so1_manejador_01
  3789                                  
  3790                                  
  3791                                  	extern	_descProceso
  3792                                  	extern	_indProcesoActual
  3793                                  	extern	_bloquearThreadActual
  3794                                  	extern	_tramaThread
  3795                                  	extern	_c2cPFR
  3796                                  	extern	_descThread
  3797                                  	extern	_indThreadActual
  3798                                  	extern	_kk_fork
  3799                                  	extern	_preEjecutar
  3800                                  	extern	_printStrBIOS
  3801                                  	extern	_apilarPC2c
  3802                                  	extern	_buscarNuevoThreadActual
  3803                                  	extern	_eliminarProcIndx
  3804                                  	extern	_eliminarPC2c
  3805                                  	extern	_activarThread
  3806                                  	extern	_indice
  3807                                  	extern	_doKill
  3808                                  	extern	_matarProcIndx
  3809                                  
  3810                                  ; Syntax/declaration table/stack:
  3811                                  ; Bytes used: 11215/40960
  3812                                  
  3813                                  
  3814                                  ; Macro table:
  3815                                  ; Macro __SMALLER_C__ = `0x0100`
  3816                                  ; Macro __SMALLER_C_32__ = ``
  3817                                  ; Macro __HUGE__ = ``
  3818                                  ; Macro __SMALLER_C_SCHAR__ = ``
  3819                                  ; Bytes used: 74/5120
  3820                                  
  3821                                  
  3822                                  ; Identifier table:
  3823                                  ; Ident __floatsisf
  3824                                  ; Ident __floatunsisf
  3825                                  ; Ident __fixsfsi
  3826                                  ; Ident __fixunssfsi
  3827                                  ; Ident __addsf3
  3828                                  ; Ident __subsf3
  3829                                  ; Ident __negsf2
  3830                                  ; Ident __mulsf3
  3831                                  ; Ident __divsf3
  3832                                  ; Ident __lesf2
  3833                                  ; Ident __gesf2
  3834                                  ; Ident intptr_t
  3835                                  ; Ident uintptr_t
  3836                                  ; Ident intmax_t
  3837                                  ; Ident uintmax_t
  3838                                  ; Ident int8_t
  3839                                  ; Ident int_least8_t
  3840                                  ; Ident int_fast8_t
  3841                                  ; Ident uint8_t
  3842                                  ; Ident uint_least8_t
  3843                                  ; Ident uint_fast8_t
  3844                                  ; Ident int16_t
  3845                                  ; Ident int_least16_t
  3846                                  ; Ident int_fast16_t
  3847                                  ; Ident uint16_t
  3848                                  ; Ident uint_least16_t
  3849                                  ; Ident uint_fast16_t
  3850                                  ; Ident int32_t
  3851                                  ; Ident int_least32_t
  3852                                  ; Ident int_fast32_t
  3853                                  ; Ident uint32_t
  3854                                  ; Ident uint_least32_t
  3855                                  ; Ident uint_fast32_t
  3856                                  ; Ident <something>
  3857                                  ; Ident quot
  3858                                  ; Ident rem
  3859                                  ; Ident imaxdiv_t
  3860                                  ; Ident FALSE
  3861                                  ; Ident TRUE
  3862                                  ; Ident bool_t
  3863                                  ; Ident pointer_t
  3864                                  ; Ident funcion_t
  3865                                  ; Ident manejador_t
  3866                                  ; Ident rti_t
  3867                                  ; Ident isr_t
  3868                                  ; Ident handler_t
  3869                                  ; Ident retardarThread_t
  3870                                  ; Ident ptrTVI_t
  3871                                  ; Ident modoSO1_Bin
  3872                                  ; Ident modoSO1_Exe
  3873                                  ; Ident modoSO1_Bs
  3874                                  ; Ident modoSO1_t
  3875                                  ; Ident lo
  3876                                  ; Ident hi
  3877                                  ; Ident lh_t
  3878                                  ; Ident offset
  3879                                  ; Ident segment
  3880                                  ; Ident address_t
  3881                                  ; Ident ptr
  3882                                  ; Ident adr
  3883                                  ; Ident uPtrAdr_t
  3884                                  ; Ident pid_t
  3885                                  ; Ident tid_t
  3886                                  ; Ident uid_t
  3887                                  ; Ident gid_t
  3888                                  ; Ident pindx_t
  3889                                  ; Ident tindx_t
  3890                                  ; Ident df_t
  3891                                  ; Ident dfs_t
  3892                                  ; Ident rindx_t
  3893                                  ; Ident printCarVideo
  3894                                  ; Ident car
  3895                                  ; Ident printLnVideo
  3896                                  ; Ident printStrVideo
  3897                                  ; Ident str
  3898                                  ; Ident printStrHastaVideo
  3899                                  ; Ident n
  3900                                  ; Ident lleno
  3901                                  ; Ident printDecVideo
  3902                                  ; Ident num
  3903                                  ; Ident l
  3904                                  ; Ident printLDecVideo
  3905                                  ; Ident printIntVideo
  3906                                  ; Ident printLIntVideo
  3907                                  ; Ident printHexVideo
  3908                                  ; Ident printLHexVideo
  3909                                  ; Ident printBinVideo
  3910                                  ; Ident printLBinVideo
  3911                                  ; Ident printPtrVideo
  3912                                  ; Ident printByteVideo
  3913                                  ; Ident b
  3914                                  ; Ident printWordVideo
  3915                                  ; Ident w
  3916                                  ; Ident printCadVideo
  3917                                  ; Ident cad
  3918                                  ; Ident modoAp_t
  3919                                  ; Ident DS
  3920                                  ; Ident ES
  3921                                  ; Ident EDI
  3922                                  ; Ident ESI
  3923                                  ; Ident EBP
  3924                                  ; Ident ESP
  3925                                  ; Ident EBX
  3926                                  ; Ident EDX
  3927                                  ; Ident ECX
  3928                                  ; Ident EAX
  3929                                  ; Ident IP
  3930                                  ; Ident CS
  3931                                  ; Ident Flags
  3932                                  ; Ident tramaDWords_t
  3933                                  ; Ident DI
  3934                                  ; Ident rDI
  3935                                  ; Ident SI
  3936                                  ; Ident rSI
  3937                                  ; Ident BP
  3938                                  ; Ident rBP
  3939                                  ; Ident SP
  3940                                  ; Ident rSP
  3941                                  ; Ident BX
  3942                                  ; Ident rBX
  3943                                  ; Ident DX
  3944                                  ; Ident rDX
  3945                                  ; Ident CX
  3946                                  ; Ident rCX
  3947                                  ; Ident AX
  3948                                  ; Ident rAX
  3949                                  ; Ident tramaWords_t
  3950                                  ; Ident BL
  3951                                  ; Ident BH
  3952                                  ; Ident rB
  3953                                  ; Ident DL
  3954                                  ; Ident DH
  3955                                  ; Ident rD
  3956                                  ; Ident CL
  3957                                  ; Ident CH
  3958                                  ; Ident rC
  3959                                  ; Ident AL
  3960                                  ; Ident AH
  3961                                  ; Ident rA
  3962                                  ; Ident tramaBytes_t
  3963                                  ; Ident td
  3964                                  ; Ident tw
  3965                                  ; Ident tb
  3966                                  ; Ident trama_t
  3967                                  ; Ident tam
  3968                                  ; Ident sig
  3969                                  ; Ident ant
  3970                                  ; Ident aux
  3971                                  ; Ident relleno
  3972                                  ; Ident bloque_t
  3973                                  ; Ident ptrBloque_t
  3974                                  ; Ident cab
  3975                                  ; Ident dobleEnlace_t
  3976                                  ; Ident numElem
  3977                                  ; Ident primero
  3978                                  ; Ident cabecera
  3979                                  ; Ident e
  3980                                  ; Ident c2c_t
  3981                                  ; Ident posicionC2c
  3982                                  ; Ident i
  3983                                  ; Ident c2c
  3984                                  ; Ident eliminarC2c
  3985                                  ; Ident apilarC2c
  3986                                  ; Ident encolarC2c
  3987                                  ; Ident desencolarC2c
  3988                                  ; Ident inicializarC2c
  3989                                  ; Ident compartida
  3990                                  ; Ident ptrC2c_t
  3991                                  ; Ident posicionPC2c
  3992                                  ; Ident eliminarPC2c
  3993                                  ; Ident ptrC2c
  3994                                  ; Ident apilarPC2c
  3995                                  ; Ident encolarPC2c
  3996                                  ; Ident desencolarPC2c
  3997                                  ; Ident inicializarPC2c
  3998                                  ; Ident callBack_t
  3999                                  ; Ident arg
  4000                                  ; Ident in
  4001                                  ; Ident out
  4002                                  ; Ident max
  4003                                  ; Ident callBack
  4004                                  ; Ident descCcb_t
  4005                                  ; Ident ccb_t
  4006                                  ; Ident inicCcb
  4007                                  ; Ident ccb
  4008                                  ; Ident encolarCcb
  4009                                  ; Ident cb
  4010                                  ; Ident desencolarCcb
  4011                                  ; Ident eliminarCcb
  4012                                  ; Ident eliminarSegCcb
  4013                                  ; Ident segmento
  4014                                  ; Ident vaciarCcb
  4015                                  ; Ident atenderCcb
  4016                                  ; Ident libre
  4017                                  ; Ident preparado
  4018                                  ; Ident ejecutandose
  4019                                  ; Ident bloqueado
  4020                                  ; Ident estado_t
  4021                                  ; Ident modoAp
  4022                                  ; Ident dfs
  4023                                  ; Ident pos
  4024                                  ; Ident dfa_t
  4025                                  ; Ident pid
  4026                                  ; Ident noStatus
  4027                                  ; Ident status
  4028                                  ; Ident ppindx
  4029                                  ; Ident hpindx
  4030                                  ; Ident c2cHijos
  4031                                  ; Ident c2cThreads
  4032                                  ; Ident CSProc
  4033                                  ; Ident tamCodigo
  4034                                  ; Ident desplBSS
  4035                                  ; Ident desplPila
  4036                                  ; Ident tamFichero
  4037                                  ; Ident programa
  4038                                  ; Ident comando
  4039                                  ; Ident nfa
  4040                                  ; Ident tfa
  4041                                  ; Ident uid
  4042                                  ; Ident gid
  4043                                  ; Ident descProceso_t
  4044                                  ; Ident tid
  4045                                  ; Ident estado
  4046                                  ; Ident esperandoPor
  4047                                  ; Ident trama
  4048                                  ; Ident ptindx
  4049                                  ; Ident htindx
  4050                                  ; Ident pindx
  4051                                  ; Ident SSThread
  4052                                  ; Ident SP0
  4053                                  ; Ident descThread_t
  4054                                  ; Ident flibre
  4055                                  ; Ident fRegular
  4056                                  ; Ident fedBloques
  4057                                  ; Ident fedCaracteres
  4058                                  ; Ident tuberia
  4059                                  ; Ident tipoFichero_t
  4060                                  ; Ident tipo
  4061                                  ; Ident nombre
  4062                                  ; Ident rindx
  4063                                  ; Ident menor
  4064                                  ; Ident shareMode
  4065                                  ; Ident contAp_L
  4066                                  ; Ident contAp_E
  4067                                  ; Ident descFichero_t
  4068                                  ; Ident rLibre
  4069                                  ; Ident rDCaracteres
  4070                                  ; Ident rDBloques
  4071                                  ; Ident rTuberia
  4072                                  ; Ident rGP
  4073                                  ; Ident rGM
  4074                                  ; Ident rSF
  4075                                  ; Ident rOtro
  4076                                  ; Ident tipoRecurso_t
  4077                                  ; Ident open_t
  4078                                  ; Ident modo
  4079                                  ; Ident release_t
  4080                                  ; Ident read_t
  4081                                  ; Ident dir
  4082                                  ; Ident nbytes
  4083                                  ; Ident aio_read_t
  4084                                  ; Ident write_t
  4085                                  ; Ident aio_write_t
  4086                                  ; Ident lseek_t
  4087                                  ; Ident whence
  4088                                  ; Ident fcntl_t
  4089                                  ; Ident cmd
  4090                                  ; Ident ioctl_t
  4091                                  ; Ident request
  4092                                  ; Ident eliminar_t
  4093                                  ; Ident tindx
  4094                                  ; Ident c2cFichRec
  4095                                  ; Ident numVI
  4096                                  ; Ident nVInt
  4097                                  ; Ident irq
  4098                                  ; Ident isr
  4099                                  ; Ident open
  4100                                  ; Ident release
  4101                                  ; Ident read
  4102                                  ; Ident aio_read
  4103                                  ; Ident write
  4104                                  ; Ident aio_write
  4105                                  ; Ident lseek
  4106                                  ; Ident fcntl
  4107                                  ; Ident ioctl
  4108                                  ; Ident eliminar
  4109                                  ; Ident descRecurso_t
  4110                                  ; Ident SP0_So1
  4111                                  ; Ident IMR
  4112                                  ; Ident modoSO1
  4113                                  ; Ident ptrDebugWord
  4114                                  ; Ident info_t
  4115                                  ; Ident signatura
  4116                                  ; Ident bytesUltSector
  4117                                  ; Ident sectores
  4118                                  ; Ident numDirReub
  4119                                  ; Ident numParCabecera
  4120                                  ; Ident minAlloc
  4121                                  ; Ident maxAlloc
  4122                                  ; Ident SS0
  4123                                  ; Ident checkSum
  4124                                  ; Ident IP0
  4125                                  ; Ident CS0
  4126                                  ; Ident offTablaReub
  4127                                  ; Ident numOverlay
  4128                                  ; Ident cabecera_t
  4129                                  ; Ident Libres
  4130                                  ; Ident Ocupados
  4131                                  ; Ident e2DescProceso
  4132                                  ; Ident e2DescThread
  4133                                  ; Ident e2DescFichero
  4134                                  ; Ident e2DescRecurso
  4135                                  ; Ident e2Hijos
  4136                                  ; Ident e2Threads
  4137                                  ; Ident e2Preparados
  4138                                  ; Ident e2Urgentes
  4139                                  ; Ident e2POrdenados
  4140                                  ; Ident e2TDormidos
  4141                                  ; Ident e2FichRec
  4142                                  ; Ident e2PFR_t
  4143                                  ; Ident DPLibres
  4144                                  ; Ident DPOcupados
  4145                                  ; Ident DTLibres
  4146                                  ; Ident DTOcupados
  4147                                  ; Ident TPreparados
  4148                                  ; Ident TUrgentes
  4149                                  ; Ident POrdenados
  4150                                  ; Ident TDormidos
  4151                                  ; Ident DFLibres
  4152                                  ; Ident DFOcupados
  4153                                  ; Ident DRLibres
  4154                                  ; Ident DROcupados
  4155                                  ; Ident numColasPFR
  4156                                  ; Ident cPFR_t
  4157                                  ; Ident sigThread_t
  4158                                  ; Ident activarThread_t
  4159                                  ; Ident buscarNuevoThreadActual_t
  4160                                  ; Ident bloquearThreadActual_t
  4161                                  ; Ident ptrIndProcesoActual
  4162                                  ; Ident ptrIndThreadActual
  4163                                  ; Ident ptrTramaThread
  4164                                  ; Ident ptrActivarAlEpilogo
  4165                                  ; Ident ptrDescProceso
  4166                                  ; Ident tamDescProceso
  4167                                  ; Ident ptrDescThread
  4168                                  ; Ident tamDescThread
  4169                                  ; Ident ptrDescFichero
  4170                                  ; Ident ptrDescRecurso
  4171                                  ; Ident ptrC2cPFR
  4172                                  ; Ident ptrE2PFR
  4173                                  ; Ident ptrNivelActivacionSO1H
  4174                                  ; Ident ptrEnHalt
  4175                                  ; Ident ptrHayTic
  4176                                  ; Ident ptrCcbAlEpilogo
  4177                                  ; Ident ptrSS_Thread
  4178                                  ; Ident ptrSP_Thread
  4179                                  ; Ident ptrSS_Kernel
  4180                                  ; Ident ptrSP0_Kernel
  4181                                  ; Ident SP0_SO1H
  4182                                  ; Ident ptrContRodajas
  4183                                  ; Ident ptrContTicsRodaja
  4184                                  ; Ident ptrVIOrg
  4185                                  ; Ident sigThread
  4186                                  ; Ident activarThread
  4187                                  ; Ident buscarNuevoThreadActual
  4188                                  ; Ident bloquearThreadActual
  4189                                  ; Ident ptrListaLibres
  4190                                  ; Ident ptrTamBloqueMax
  4191                                  ; Ident descSO1H_t
  4192                                  ; Ident descProcesoExt_t
  4193                                  ; Ident descThreadExt_t
  4194                                  ; Ident descProceso
  4195                                  ; Ident descThread
  4196                                  ; Ident descFichero
  4197                                  ; Ident descRecurso
  4198                                  ; Ident c2cPFR
  4199                                  ; Ident e2PFR
  4200                                  ; Ident descCcbAlEpilogo
  4201                                  ; Ident ccbAlEpilogo
  4202                                  ; Ident tramaThread
  4203                                  ; Ident tramaTarea
  4204                                  ; Ident indThreadActual
  4205                                  ; Ident indProcesoActual
  4206                                  ; Ident indThreadDeSuperficie
  4207                                  ; Ident contRodajas
  4208                                  ; Ident contTicsRodaja
  4209                                  ; Ident contadorTimer00
  4210                                  ; Ident contOcioso
  4211                                  ; Ident nuevoPid
  4212                                  ; Ident nuevoTid
  4213                                  ; Ident indice
  4214                                  ; Ident registrarEnPOrdenados
  4215                                  ; Ident crearThread
  4216                                  ; Ident funcion
  4217                                  ; Ident crearProceso
  4218                                  ; Ident tamFich
  4219                                  ; Ident inicProcesos
  4220                                  ; Ident resetPids
  4221                                  ; Ident resetTids
  4222                                  ; Ident terminarThreadIndx
  4223                                  ; Ident eliminarThreadIndx
  4224                                  ; Ident terminarProcIndx
  4225                                  ; Ident eliminarProcIndx
  4226                                  ; Ident matarThreadIndx
  4227                                  ; Ident matarProcIndx
  4228                                  ; Ident link_procs
  4229                                  ; Ident startBin
  4230                                  ; Ident unidadBIOS
  4231                                  ; Ident CS_SO1H
  4232                                  ; Ident RO_SO1H
  4233                                  ; Ident DS_SO1H
  4234                                  ; Ident BSS_SO1H
  4235                                  ; Ident SS_SO1H
  4236                                  ; Ident SS_Kernel
  4237                                  ; Ident IMRInicial
  4238                                  ; Ident obtenerMapa
  4239                                  ; Ident SS_Thread
  4240                                  ; Ident SP_Thread
  4241                                  ; Ident SS_Tarea
  4242                                  ; Ident SP_Tarea
  4243                                  ; Ident nivelActivacionSO1H
  4244                                  ; Ident nVIntActual
  4245                                  ; Ident enHalt
  4246                                  ; Ident activarAlEpilogo1
  4247                                  ; Ident hayTic
  4248                                  ; Ident setKernelStack
  4249                                  ; Ident setThreadStack
  4250                                  ; Ident reg_DL
  4251                                  ; Ident prepararDesbloqueadosUrgentes
  4252                                  ; Ident opciones
  4253                                  ; Ident thread_attribs_t
  4254                                  ; Ident thread_create
  4255                                  ; Ident attribs
  4256                                  ; Ident funcionInicial
  4257                                  ; Ident thread_join
  4258                                  ; Ident res
  4259                                  ; Ident thread_exit
  4260                                  ; Ident thread_yield
  4261                                  ; Ident thread_self
  4262                                  ; Ident doKill
  4263                                  ; Ident kk_fork
  4264                                  ; Ident preEjecutar
  4265                                  ; Ident bloquearEsperandoHijo
  4266                                  ; Ident so1_manejador_01
  4267                                  ; Bytes used: 4672/16384
  4268                                  
  4269                                  ; Next label number: 287
  4270                                  ; Compilation succeeded.
