     1                                  bits 16
     2                                  
     3                                  ; glb intptr_t : int
     4                                  ; glb uintptr_t : unsigned
     5                                  ; glb intmax_t : int
     6                                  ; glb uintmax_t : unsigned
     7                                  ; glb int8_t : signed char
     8                                  ; glb int_least8_t : signed char
     9                                  ; glb int_fast8_t : signed char
    10                                  ; glb uint8_t : unsigned char
    11                                  ; glb uint_least8_t : unsigned char
    12                                  ; glb uint_fast8_t : unsigned char
    13                                  ; glb int16_t : short
    14                                  ; glb int_least16_t : short
    15                                  ; glb int_fast16_t : short
    16                                  ; glb uint16_t : unsigned short
    17                                  ; glb uint_least16_t : unsigned short
    18                                  ; glb uint_fast16_t : unsigned short
    19                                  ; glb int32_t : int
    20                                  ; glb int_least32_t : int
    21                                  ; glb int_fast32_t : int
    22                                  ; glb uint32_t : unsigned
    23                                  ; glb uint_least32_t : unsigned
    24                                  ; glb uint_fast32_t : unsigned
    25                                  ; glb imaxdiv_t : struct <something>
    26                                  ; glb bool_t : int
    27                                  ; glb pointer_t : * unsigned char
    28                                  ; glb funcion_t : * (
    29                                  ; prm     <something> : * void
    30                                  ;     ) * void
    31                                  ; glb manejador_t : * (void) void
    32                                  ; glb rti_t : * (void) void
    33                                  ; glb isr_t : * (void) void
    34                                  ; glb handler_t : * (void) void
    35                                  ; glb retardarThread_t : * (void) int
    36                                  ; glb ptrTVI_t : * * (void) void
    37                                  ; glb modoSO1_t : int
    38                                  ; glb lh_t : struct <something>
    39                                  ; glb address_t : struct <something>
    40                                  ; glb uPtrAdr_t : union <something>
    41                                  ; glb pid_t : int
    42                                  ; glb tid_t : int
    43                                  ; glb uid_t : int
    44                                  ; glb gid_t : int
    45                                  ; glb pindx_t : int
    46                                  ; glb tindx_t : int
    47                                  ; glb df_t : int
    48                                  ; glb dfs_t : int
    49                                  ; glb rindx_t : int
    50                                  ; glb modoAp_t : unsigned short
    51                                  ; glb tramaDWords_t : struct <something>
    52                                  ; glb tramaWords_t : struct <something>
    53                                  ; RPN'ized expression: "2 "
    54                                  ; Expanded expression: "2 "
    55                                  ; Expression value: 2
    56                                  ; RPN'ized expression: "2 "
    57                                  ; Expanded expression: "2 "
    58                                  ; Expression value: 2
    59                                  ; RPN'ized expression: "2 "
    60                                  ; Expanded expression: "2 "
    61                                  ; Expression value: 2
    62                                  ; RPN'ized expression: "2 "
    63                                  ; Expanded expression: "2 "
    64                                  ; Expression value: 2
    65                                  ; glb tramaBytes_t : struct <something>
    66                                  ; glb trama_t : union <something>
    67                                  ; RPN'ized expression: "8 "
    68                                  ; Expanded expression: "8 "
    69                                  ; Expression value: 8
    70                                  ; glb bloque_t : struct <something>
    71                                  ; glb ptrBloque_t : * struct <something>
    72                                  ; glb dobleEnlace_t : struct <something>
    73                                  ; glb c2c_t : struct <something>
    74                                  ; glb posicionC2c : (
    75                                  ; prm     i : int
    76                                  ; prm     c2c : struct <something>
    77                                  ;     ) int
    78                                  ; glb eliminarC2c : (
    79                                  ; prm     i : int
    80                                  ; prm     c2c : struct <something>
    81                                  ;     ) void
    82                                  ; glb apilarC2c : (
    83                                  ; prm     i : int
    84                                  ; prm     c2c : struct <something>
    85                                  ;     ) void
    86                                  ; glb encolarC2c : (
    87                                  ; prm     i : int
    88                                  ; prm     c2c : struct <something>
    89                                  ;     ) void
    90                                  ; glb desencolarC2c : (
    91                                  ; prm     c2c : struct <something>
    92                                  ;     ) int
    93                                  ; glb inicializarC2c : (
    94                                  ; prm     c2c : * struct <something>
    95                                  ; prm     e : * struct <something>
    96                                  ; prm     cabecera : int
    97                                  ; prm     compartida : int
    98                                  ;     ) void
    99                                  ; glb ptrC2c_t : * struct <something>
   100                                  ; glb posicionPC2c : (
   101                                  ; prm     i : int
   102                                  ; prm     c2c : * struct <something>
   103                                  ;     ) int
   104                                  ; glb eliminarPC2c : (
   105                                  ; prm     i : int
   106                                  ; prm     ptrC2c : * struct <something>
   107                                  ;     ) void
   108                                  ; glb apilarPC2c : (
   109                                  ; prm     i : int
   110                                  ; prm     ptrC2c : * struct <something>
   111                                  ;     ) void
   112                                  ; glb encolarPC2c : (
   113                                  ; prm     i : int
   114                                  ; prm     ptrC2c : * struct <something>
   115                                  ;     ) void
   116                                  ; glb desencolarPC2c : (
   117                                  ; prm     ptrC2c : * struct <something>
   118                                  ;     ) int
   119                                  ; glb inicializarPC2c : (
   120                                  ; prm     ptrC2c : * struct <something>
   121                                  ; prm     e : * struct <something>
   122                                  ; prm     cabecera : int
   123                                  ; prm     compartida : int
   124                                  ;     ) void
   125                                  ; glb callBack_t : * (
   126                                  ; prm     arg : * void
   127                                  ;     ) int
   128                                  ; RPN'ized expression: "10 "
   129                                  ; Expanded expression: "10 "
   130                                  ; Expression value: 10
   131                                  ; glb descCcb_t : struct <something>
   132                                  ; glb ccb_t : * struct <something>
   133                                  ; glb inicCcb : (
   134                                  ; prm     ccb : * struct <something>
   135                                  ; prm     max : unsigned short
   136                                  ;     ) int
   137                                  ; glb encolarCcb : (
   138                                  ; prm     cb : * (
   139                                  ; prm         arg : * void
   140                                  ;         ) int
   141                                  ; prm     ccb : * struct <something>
   142                                  ;     ) int
   143                                  ; glb desencolarCcb : (
   144                                  ; prm     ccb : * struct <something>
   145                                  ;     ) * (
   146                                  ; prm     arg : * void
   147                                  ;     ) int
   148                                  ; glb eliminarCcb : (
   149                                  ; prm     cb : * (
   150                                  ; prm         arg : * void
   151                                  ;         ) int
   152                                  ; prm     ccb : * struct <something>
   153                                  ;     ) int
   154                                  ; glb eliminarSegCcb : (
   155                                  ; prm     segmento : unsigned short
   156                                  ; prm     ccb : * struct <something>
   157                                  ;     ) int
   158                                  ; glb vaciarCcb : (
   159                                  ; prm     ccb : * struct <something>
   160                                  ;     ) int
   161                                  ; glb atenderCcb : (
   162                                  ; prm     ccb : * struct <something>
   163                                  ;     ) int
   164                                  ; glb estado_t : int
   165                                  ; glb dfa_t : struct <something>
   166                                  ; RPN'ized expression: "12 "
   167                                  ; Expanded expression: "12 "
   168                                  ; Expression value: 12
   169                                  ; RPN'ized expression: "80 "
   170                                  ; Expanded expression: "80 "
   171                                  ; Expression value: 80
   172                                  ; RPN'ized expression: "10 "
   173                                  ; Expanded expression: "10 "
   174                                  ; Expression value: 10
   175                                  ; glb descProceso_t : struct <something>
   176                                  ; glb descThread_t : struct <something>
   177                                  ; glb tipoFichero_t : int
   178                                  ; RPN'ized expression: "9 "
   179                                  ; Expanded expression: "9 "
   180                                  ; Expression value: 9
   181                                  ; glb descFichero_t : struct <something>
   182                                  ; glb tipoRecurso_t : int
   183                                  ; glb open_t : * (
   184                                  ; prm     dfs : int
   185                                  ; prm     modo : unsigned short
   186                                  ;     ) int
   187                                  ; glb release_t : * (
   188                                  ; prm     dfs : int
   189                                  ;     ) int
   190                                  ; glb read_t : * (
   191                                  ; prm     dfs : int
   192                                  ; prm     dir : * unsigned char
   193                                  ; prm     nbytes : unsigned short
   194                                  ;     ) int
   195                                  ; glb aio_read_t : * (
   196                                  ; prm     dfs : int
   197                                  ; prm     dir : * unsigned char
   198                                  ; prm     nbytes : unsigned short
   199                                  ;     ) int
   200                                  ; glb write_t : * (
   201                                  ; prm     dfs : int
   202                                  ; prm     dir : * unsigned char
   203                                  ; prm     nbytes : unsigned short
   204                                  ;     ) int
   205                                  ; glb aio_write_t : * (
   206                                  ; prm     dfs : int
   207                                  ; prm     dir : * unsigned char
   208                                  ; prm     nbytes : unsigned short
   209                                  ;     ) int
   210                                  ; glb lseek_t : * (
   211                                  ; prm     dfs : int
   212                                  ; prm     pos : int
   213                                  ; prm     whence : unsigned short
   214                                  ;     ) int
   215                                  ; glb fcntl_t : * (
   216                                  ; prm     dfs : int
   217                                  ; prm     cmd : unsigned short
   218                                  ; prm     arg : unsigned short
   219                                  ;     ) int
   220                                  ; glb ioctl_t : * (
   221                                  ; prm     dfs : int
   222                                  ; prm     request : unsigned short
   223                                  ; prm     arg : unsigned short
   224                                  ;     ) int
   225                                  ; glb eliminar_t : * (
   226                                  ; prm     pindx : int
   227                                  ;     ) int
   228                                  ; RPN'ized expression: "12 "
   229                                  ; Expanded expression: "12 "
   230                                  ; Expression value: 12
   231                                  ; RPN'ized expression: "2 "
   232                                  ; Expanded expression: "2 "
   233                                  ; Expression value: 2
   234                                  ; RPN'ized expression: "2 "
   235                                  ; Expanded expression: "2 "
   236                                  ; Expression value: 2
   237                                  ; RPN'ized expression: "2 "
   238                                  ; Expanded expression: "2 "
   239                                  ; Expression value: 2
   240                                  ; glb descRecurso_t : struct <something>
   241                                  ; glb info_t : struct <something>
   242                                  ; glb cabecera_t : struct <something>
   243                                  ; RPN'ized expression: "16 1 + "
   244                                  ; Expanded expression: "17 "
   245                                  ; Expression value: 17
   246                                  ; RPN'ized expression: "16 2 + "
   247                                  ; Expanded expression: "18 "
   248                                  ; Expression value: 18
   249                                  ; RPN'ized expression: "2010 1 + "
   250                                  ; Expanded expression: "2011 "
   251                                  ; Expression value: 2011
   252                                  ; RPN'ized expression: "2010 2 + "
   253                                  ; Expanded expression: "2012 "
   254                                  ; Expression value: 2012
   255                                  ; RPN'ized expression: "20 1 + "
   256                                  ; Expanded expression: "21 "
   257                                  ; Expression value: 21
   258                                  ; RPN'ized expression: "20 2 + "
   259                                  ; Expanded expression: "22 "
   260                                  ; Expression value: 22
   261                                  ; RPN'ized expression: "14 1 + "
   262                                  ; Expanded expression: "15 "
   263                                  ; Expression value: 15
   264                                  ; RPN'ized expression: "14 2 + "
   265                                  ; Expanded expression: "16 "
   266                                  ; Expression value: 16
   267                                  ; RPN'ized expression: "16 16 + "
   268                                  ; Expanded expression: "32 "
   269                                  ; Expression value: 32
   270                                  ; RPN'ized expression: "2010 16 + "
   271                                  ; Expanded expression: "2026 "
   272                                  ; Expression value: 2026
   273                                  ; RPN'ized expression: "2010 1 + "
   274                                  ; Expanded expression: "2011 "
   275                                  ; Expression value: 2011
   276                                  ; RPN'ized expression: "2010 1 + "
   277                                  ; Expanded expression: "2011 "
   278                                  ; Expression value: 2011
   279                                  ; RPN'ized expression: "16 1 + "
   280                                  ; Expanded expression: "17 "
   281                                  ; Expression value: 17
   282                                  ; RPN'ized expression: "2010 1 + "
   283                                  ; Expanded expression: "2011 "
   284                                  ; Expression value: 2011
   285                                  ; RPN'ized expression: "20 14 + "
   286                                  ; Expanded expression: "34 "
   287                                  ; Expression value: 34
   288                                  ; glb e2PFR_t : struct <something>
   289                                  ; glb cPFR_t : int
   290                                  ; glb sigThread_t : * () int
   291                                  ; glb activarThread_t : * (
   292                                  ; prm     tindx : int
   293                                  ;     ) void
   294                                  ; glb buscarNuevoThreadActual_t : * (void) void
   295                                  ; glb bloquearThreadActual_t : * (
   296                                  ; prm     rindx : int
   297                                  ;     ) void
   298                                  ; glb descSO1H_t : struct <something>
   299                                  ; RPN'ized expression: "12 "
   300                                  ; Expanded expression: "12 "
   301                                  ; Expression value: 12
   302                                  ; RPN'ized expression: "80 "
   303                                  ; Expanded expression: "80 "
   304                                  ; Expression value: 80
   305                                  ; RPN'ized expression: "10 "
   306                                  ; Expanded expression: "10 "
   307                                  ; Expression value: 10
   308                                  ; glb descProcesoExt_t : struct <something>
   309                                  ; glb descThreadExt_t : struct <something>
   310                                  ; RPN'ized expression: "16 "
   311                                  ; Expanded expression: "16 "
   312                                  ; Expression value: 16
   313                                  ; glb descProceso : [16u] struct <something>
   314                                  ; RPN'ized expression: "2010 "
   315                                  ; Expanded expression: "2010 "
   316                                  ; Expression value: 2010
   317                                  ; glb descThread : [2010u] struct <something>
   318                                  ; RPN'ized expression: "20 "
   319                                  ; Expanded expression: "20 "
   320                                  ; Expression value: 20
   321                                  ; glb descFichero : [20u] struct <something>
   322                                  ; RPN'ized expression: "14 "
   323                                  ; Expanded expression: "14 "
   324                                  ; Expression value: 14
   325                                  ; glb descRecurso : [14u] struct <something>
   326                                  ; RPN'ized expression: "numColasPFR "
   327                                  ; Expanded expression: "12 "
   328                                  ; Expression value: 12
   329                                  ; glb c2cPFR : [12u] struct <something>
   330                                  ; glb e2PFR : struct <something>
   331                                  ; glb descCcbAlEpilogo : struct <something>
   332                                  ; glb ccbAlEpilogo : * struct <something>
   333                                  ; glb tramaThread : * union <something>
   334                                  ; glb tramaTarea : * union <something>
   335                                  ; glb indThreadActual : int
   336                                  ; glb indProcesoActual : int
   337                                  ; glb indThreadDeSuperficie : int
   338                                  ; glb contRodajas : unsigned
   339                                  ; glb contTicsRodaja : int
   340                                  ; glb contadorTimer00 : unsigned short
   341                                  ; glb contOcioso : int
   342                                  ; glb nuevoPid : (void) int
   343                                  ; glb nuevoTid : (void) int
   344                                  ; glb indice : (
   345                                  ; prm     tid : int
   346                                  ;     ) int
   347                                  ; glb sigThread : (void) int
   348                                  ; glb activarThread : (
   349                                  ; prm     tindx : int
   350                                  ;     ) int
   351                                  ; glb registrarEnPOrdenados : (
   352                                  ; prm     pindx : int
   353                                  ;     ) void
   354                                  ; glb crearThread : (
   355                                  ; prm     funcion : * (
   356                                  ; prm         <something> : * void
   357                                  ;         ) * void
   358                                  ; prm     SP0 : unsigned short
   359                                  ; prm     arg : * void
   360                                  ; prm     pindx : int
   361                                  ;     ) int
   362                                  ; glb crearProceso : (
   363                                  ; prm     segmento : unsigned short
   364                                  ; prm     tam : unsigned short
   365                                  ; prm     tamFich : unsigned
   366                                  ; prm     programa : * char
   367                                  ; prm     comando : * char
   368                                  ; prm     pindx : int
   369                                  ;     ) int
   370                                  ; glb inicProcesos : (void) void
   371                                  ; glb resetPids : (void) void
   372                                  ; glb resetTids : (void) void
   373                                  ; glb terminarThreadIndx : (
   374                                  ; prm     tindx : int
   375                                  ;     ) int
   376                                  ; glb eliminarThreadIndx : (
   377                                  ; prm     tindx : int
   378                                  ;     ) int
   379                                  ; glb terminarProcIndx : (
   380                                  ; prm     pindx : int
   381                                  ;     ) int
   382                                  ; glb eliminarProcIndx : (
   383                                  ; prm     pindx : int
   384                                  ;     ) int
   385                                  ; glb matarThreadIndx : (
   386                                  ; prm     tindx : int
   387                                  ;     ) int
   388                                  ; glb matarProcIndx : (
   389                                  ; prm     pindx : int
   390                                  ;     ) int
   391                                  ; glb link_procs : (void) void
   392                                  ; glb indiceTFAS : (
   393                                  ; prm     nombre : * char
   394                                  ;     ) int
   395                                  section .text
   396                                  	global	_indiceTFAS
   397                                  _indiceTFAS:
   398 00000000 6655                    	push	ebp
   399 00000002 660FB7EC                	movzx	ebp, sp
   400 00000006 83EC04                  	 sub	sp,          4
   401                                  ; loc     nombre : (@8): * char
   402                                  ; loc     dfs : (@-4): int
   403                                  ; RPN'ized expression: "dfs c2cPFR DFOcupados + *u &u primero -> *u = "
   404                                  ; Expanded expression: "(@-4) c2cPFR 144 + 4 + *(4) =(4) "
   405                                  ; Fused expression:    "c2cPFR + ax 144 + ax 4 =(204) *(@-4) *ax "
   406                                  section .relod
   407 00000000 [0B000000]              	dd	L3
   408                                  section .text
   409 00000009 66B8                    	db	0x66, 0xB8
   410                                  L3:
   411 0000000B [00000000]              	dd	_c2cPFR
   412 0000000F 660590000000            	add	eax, 144
   413 00000015 6683C004                	add	eax, 4
   414 00000019 6689C3                  	mov	ebx, eax
   415 0000001C 6689DE                  	mov	esi, ebx
   416 0000001F 66C1CE04                	ror	esi, 4
   417 00000023 8EDE                    	mov	ds, si
   418 00000025 66C1EE1C                	shr	esi, 28
   419 00000029 668B04                  	mov	eax, [si]
   420 0000002C 668946FC                	mov	[bp-4], eax
   421                                  ; while
   422                                  ; RPN'ized expression: "dfs c2cPFR DFOcupados + *u &u cabecera -> *u != "
   423                                  ; Expanded expression: "(@-4) *(4) c2cPFR 144 + 8 + *(4) != "
   424                                  L4:
   425                                  ; Fused expression:    "c2cPFR + ax 144 + ax 8 != *(@-4) *ax IF! "
   426                                  section .relod
   427 00000004 [32000000]              	dd	L6
   428                                  section .text
   429 00000030 66B8                    	db	0x66, 0xB8
   430                                  L6:
   431 00000032 [00000000]              	dd	_c2cPFR
   432 00000036 660590000000            	add	eax, 144
   433 0000003C 6683C008                	add	eax, 8
   434 00000040 6689C3                  	mov	ebx, eax
   435 00000043 6689DE                  	mov	esi, ebx
   436 00000046 66C1CE04                	ror	esi, 4
   437 0000004A 8EDE                    	mov	ds, si
   438 0000004C 66C1EE1C                	shr	esi, 28
   439 00000050 668B0C                  	mov	ecx, [si]
   440 00000053 668B46FC                	mov	eax, [bp-4]
   441 00000057 6639C8                  	cmp	eax, ecx
   442 0000005A 0F848200                	je	L5
   443                                  ; {
   444                                  ; if
   445                                  ; RPN'ized expression: "( nombre , descFichero dfs + *u &u nombre -> *u strcmp ) 0 == "
   446                                  ; Expanded expression: " (@8) *(4)  descFichero (@-4) *(4) 36 * + 4 +  strcmp ()8 0 == "
   447                                  ; Fused expression:    "( *(4) (@8) , descFichero push-ax * *(@-4) 36 + *sp ax + ax 4 , strcmp )8 == ax 0 IF! "
   448 0000005E 66FF7608                	push	dword [bp+8]
   449                                  section .relod
   450 00000008 [64000000]              	dd	L9
   451                                  section .text
   452 00000062 66B8                    	db	0x66, 0xB8
   453                                  L9:
   454 00000064 [00000000]              	dd	_descFichero
   455 00000068 6650                    	push	eax
   456 0000006A 668B46FC                	mov	eax, [bp-4]
   457 0000006E 666BC024                	imul	eax, eax, 36
   458 00000072 6689C1                  	mov	ecx, eax
   459 00000075 6658                    	pop	eax
   460 00000077 6601C8                  	add	eax, ecx
   461 0000007A 6683C004                	add	eax, 4
   462 0000007E 6650                    	push	eax
   463 00000080 9A                      	db	0x9A
   464                                  section .relot
   465 00000000 [81000000]              	dd	L10
   466                                  section .text
   467                                  L10:
   468 00000081 [00000000]              	dd	_strcmp
   469 00000085 83ECF8                  	sub	sp, -8
   470 00000088 6683F800                	cmp	eax, 0
   471 0000008C 7506                    	jne	L7
   472                                  ; return
   473                                  ; RPN'ized expression: "dfs "
   474                                  ; Expanded expression: "(@-4) *(4) "
   475                                  ; Fused expression:    "*(4) (@-4)  "
   476 0000008E 668B46FC                	mov	eax, [bp-4]
   477 00000092 EB52                    	jmp	L1
   478                                  L7:
   479                                  ; RPN'ized expression: "dfs c2cPFR DFOcupados + *u &u e -> *u dfs + *u &u sig -> *u = "
   480                                  ; Expanded expression: "(@-4) c2cPFR 144 + 12 + *(4) (@-4) *(4) 12 * + 0 + *(4) =(4) "
   481                                  ; Fused expression:    "c2cPFR + ax 144 + ax 12 push-ax * *(@-4) 12 + **sp ax + ax 0 =(204) *(@-4) *ax "
   482                                  section .relod
   483 0000000C [96000000]              	dd	L11
   484                                  section .text
   485 00000094 66B8                    	db	0x66, 0xB8
   486                                  L11:
   487 00000096 [00000000]              	dd	_c2cPFR
   488 0000009A 660590000000            	add	eax, 144
   489 000000A0 6683C00C                	add	eax, 12
   490 000000A4 6650                    	push	eax
   491 000000A6 668B46FC                	mov	eax, [bp-4]
   492 000000AA 666BC00C                	imul	eax, eax, 12
   493 000000AE 6689C1                  	mov	ecx, eax
   494 000000B1 665B                    	pop	ebx
   495 000000B3 6689DE                  	mov	esi, ebx
   496 000000B6 66C1CE04                	ror	esi, 4
   497 000000BA 8EDE                    	mov	ds, si
   498 000000BC 66C1EE1C                	shr	esi, 28
   499 000000C0 668B04                  	mov	eax, [si]
   500 000000C3 6601C8                  	add	eax, ecx
   501 000000C6 6689C3                  	mov	ebx, eax
   502 000000C9 6689DE                  	mov	esi, ebx
   503 000000CC 66C1CE04                	ror	esi, 4
   504 000000D0 8EDE                    	mov	ds, si
   505 000000D2 66C1EE1C                	shr	esi, 28
   506 000000D6 668B04                  	mov	eax, [si]
   507 000000D9 668946FC                	mov	[bp-4], eax
   508                                  ; }
   509 000000DD E950FF                  	jmp	L4
   510                                  L5:
   511                                  ; return
   512                                  ; RPN'ized expression: "1 -u "
   513                                  ; Expanded expression: "-1 "
   514                                  ; Expression value: -1
   515                                  ; Fused expression:    "-1  "
   516 000000E0 66B8FFFFFFFF            	mov	eax, -1
   517                                  L1:
   518 000000E6 66                      	db	0x66
   519 000000E7 C9                      	leave
   520 000000E8 CB                      	retf
   521                                  L12:
   522                                  
   523                                  section .fxnsz noalloc
   524 00000000 E9000000                	dd	L12 - _indiceTFAS
   525                                  
   526                                  ; glb indiceTFA : (
   527                                  ; prm     nombre : * char
   528                                  ;     ) int
   529                                  section .text
   530                                  	global	_indiceTFA
   531                                  _indiceTFA:
   532 000000E9 6655                    	push	ebp
   533 000000EB 660FB7EC                	movzx	ebp, sp
   534 000000EF 83EC08                  	 sub	sp,          8
   535                                  ; loc     nombre : (@8): * char
   536                                  ; loc     df : (@-4): int
   537                                  ; loc     dfs : (@-8): int
   538                                  ; for
   539                                  ; RPN'ized expression: "df 0 = "
   540                                  ; Expanded expression: "(@-4) 0 =(4) "
   541                                  ; Fused expression:    "=(204) *(@-4) 0 "
   542 000000F2 66B800000000            	mov	eax, 0
   543 000000F8 668946FC                	mov	[bp-4], eax
   544                                  L15:
   545                                  ; RPN'ized expression: "df 10 < "
   546                                  ; Expanded expression: "(@-4) *(4) 10 < "
   547                                  ; Fused expression:    "< *(@-4) 10 IF! "
   548 000000FC 668B46FC                	mov	eax, [bp-4]
   549 00000100 6683F80A                	cmp	eax, 10
   550 00000104 0F8DC100                	jge	L18
   551                                  ; RPN'ized expression: "df ++p "
   552                                  ; Expanded expression: "(@-4) ++p(4) "
   553                                  ; {
   554                                  ; if
   555                                  ; RPN'ized expression: "dfs descProceso indProcesoActual + *u &u tfa -> *u df + *u &u dfs -> *u = 1 -u != ( 8 , nombre , descFichero dfs + *u &u nombre -> *u strncmp ) 0 == && "
   556                                  ; Expanded expression: "(@-8) descProceso indProcesoActual *(4) 292 * + 164 + (@-4) *(4) 12 * + 4 + *(4) =(4) -1 != [sh&&->21]  8  (@8) *(4)  descFichero (@-8) *(4) 36 * + 4 +  strncmp ()12 0 == &&[21] "
   557                                  ; Fused expression:    "descProceso push-ax indProcesoActual * *ax 292 + *sp ax + ax 164 push-ax * *(@-4) 12 + *sp ax + ax 4 =(204) *(@-8) *ax != ax -1 [sh&&->21] ( 8 , *(4) (@8) , descFichero push-ax * *(@-8) 36 + 
   558                                  section .relod
   559 00000010 [0A010000]              	dd	L22
   560                                  section .text
   561 00000108 66B8                    	db	0x66, 0xB8
   562                                  L22:
   563 0000010A [00000000]              	dd	_descProceso
   564 0000010E 6650                    	push	eax
   565                                  section .relod
   566 00000014 [12010000]              	dd	L23
   567                                  section .text
   568 00000110 66B8                    	db	0x66, 0xB8
   569                                  L23:
   570 00000112 [00000000]              	dd	_indProcesoActual
   571 00000116 6689C3                  	mov	ebx, eax
   572 00000119 6689DE                  	mov	esi, ebx
   573 0000011C 66C1CE04                	ror	esi, 4
   574 00000120 8EDE                    	mov	ds, si
   575 00000122 66C1EE1C                	shr	esi, 28
   576 00000126 668B04                  	mov	eax, [si]
   577 00000129 6669C024010000          	imul	eax, eax, 292
   578 00000130 6689C1                  	mov	ecx, eax
   579 00000133 6658                    	pop	eax
   580 00000135 6601C8                  	add	eax, ecx
   581 00000138 6605A4000000            	add	eax, 164
   582 0000013E 6650                    	push	eax
   583 00000140 668B46FC                	mov	eax, [bp-4]
   584 00000144 666BC00C                	imul	eax, eax, 12
   585 00000148 6689C1                  	mov	ecx, eax
   586 0000014B 6658                    	pop	eax
   587 0000014D 6601C8                  	add	eax, ecx
   588 00000150 6683C004                	add	eax, 4
   589 00000154 6689C3                  	mov	ebx, eax
   590 00000157 6689DE                  	mov	esi, ebx
   591 0000015A 66C1CE04                	ror	esi, 4
   592 0000015E 8EDE                    	mov	ds, si
   593 00000160 66C1EE1C                	shr	esi, 28
   594 00000164 668B04                  	mov	eax, [si]
   595 00000167 668946F8                	mov	[bp-8], eax
   596 0000016B 6683F8FF                	cmp	eax, -1
   597 0000016F 0F95C0                  	setne	al
   598 00000172 660FB6C0                	movzx	eax, al
   599                                  ; JumpIfZero
   600 00000176 6685C0                  	test	eax, eax
   601 00000179 7438                    	je	L21
   602 0000017B 666A08                  	push	dword 8
   603 0000017E 66FF7608                	push	dword [bp+8]
   604                                  section .relod
   605 00000018 [84010000]              	dd	L24
   606                                  section .text
   607 00000182 66B8                    	db	0x66, 0xB8
   608                                  L24:
   609 00000184 [00000000]              	dd	_descFichero
   610 00000188 6650                    	push	eax
   611 0000018A 668B46F8                	mov	eax, [bp-8]
   612 0000018E 666BC024                	imul	eax, eax, 36
   613 00000192 6689C1                  	mov	ecx, eax
   614 00000195 6658                    	pop	eax
   615 00000197 6601C8                  	add	eax, ecx
   616 0000019A 6683C004                	add	eax, 4
   617 0000019E 6650                    	push	eax
   618 000001A0 9A                      	db	0x9A
   619                                  section .relot
   620 00000004 [A1010000]              	dd	L25
   621                                  section .text
   622                                  L25:
   623 000001A1 [00000000]              	dd	_strncmp
   624 000001A5 83ECF4                  	sub	sp, -12
   625 000001A8 6683F800                	cmp	eax, 0
   626 000001AC 0F94C0                  	sete	al
   627 000001AF 660FB6C0                	movzx	eax, al
   628                                  L21:
   629                                  ; JumpIfZero
   630 000001B3 6685C0                  	test	eax, eax
   631 000001B6 7406                    	je	L19
   632                                  ; return
   633                                  ; RPN'ized expression: "df "
   634                                  ; Expanded expression: "(@-4) *(4) "
   635                                  ; Fused expression:    "*(4) (@-4)  "
   636 000001B8 668B46FC                	mov	eax, [bp-4]
   637 000001BC EB11                    	jmp	L13
   638                                  L19:
   639                                  ; }
   640                                  L16:
   641                                  ; Fused expression:    "++p(4) *(@-4) "
   642 000001BE 668B46FC                	mov	eax, [bp-4]
   643 000001C2 66FF46FC                	inc	dword [bp-4]
   644 000001C6 E933FF                  	jmp	L15
   645                                  L18:
   646                                  ; return
   647                                  ; RPN'ized expression: "1 -u "
   648                                  ; Expanded expression: "-1 "
   649                                  ; Expression value: -1
   650                                  ; Fused expression:    "-1  "
   651 000001C9 66B8FFFFFFFF            	mov	eax, -1
   652                                  L13:
   653 000001CF 66                      	db	0x66
   654 000001D0 C9                      	leave
   655 000001D1 CB                      	retf
   656                                  L26:
   657                                  
   658                                  section .fxnsz
   659 00000004 E9000000                	dd	L26 - _indiceTFA
   660                                  
   661                                  ; glb nuevaEntradaTFA : (void) int
   662                                  section .text
   663                                  	global	_nuevaEntradaTFA
   664                                  _nuevaEntradaTFA:
   665 000001D2 6655                    	push	ebp
   666 000001D4 660FB7EC                	movzx	ebp, sp
   667 000001D8 83EC04                  	 sub	sp,          4
   668                                  ; loc     df : (@-4): int
   669                                  ; for
   670                                  ; RPN'ized expression: "df 0 = "
   671                                  ; Expanded expression: "(@-4) 0 =(4) "
   672                                  ; Fused expression:    "=(204) *(@-4) 0 "
   673 000001DB 66B800000000            	mov	eax, 0
   674 000001E1 668946FC                	mov	[bp-4], eax
   675                                  L29:
   676                                  ; RPN'ized expression: "df 10 < "
   677                                  ; Expanded expression: "(@-4) *(4) 10 < "
   678                                  ; Fused expression:    "< *(@-4) 10 IF! "
   679 000001E5 668B46FC                	mov	eax, [bp-4]
   680 000001E9 6683F80A                	cmp	eax, 10
   681 000001ED 7D75                    	jge	L32
   682                                  ; RPN'ized expression: "df ++p "
   683                                  ; Expanded expression: "(@-4) ++p(4) "
   684                                  ; if
   685                                  ; RPN'ized expression: "descProceso indProcesoActual + *u &u tfa -> *u df + *u &u dfs -> *u 0 < "
   686                                  ; Expanded expression: "descProceso indProcesoActual *(4) 292 * + 164 + (@-4) *(4) 12 * + 4 + *(4) 0 < "
   687                                  ; Fused expression:    "descProceso push-ax indProcesoActual * *ax 292 + *sp ax + ax 164 push-ax * *(@-4) 12 + *sp ax + ax 4 < *ax 0 IF! "
   688                                  section .relod
   689 0000001C [F1010000]              	dd	L35
   690                                  section .text
   691 000001EF 66B8                    	db	0x66, 0xB8
   692                                  L35:
   693 000001F1 [00000000]              	dd	_descProceso
   694 000001F5 6650                    	push	eax
   695                                  section .relod
   696 00000020 [F9010000]              	dd	L36
   697                                  section .text
   698 000001F7 66B8                    	db	0x66, 0xB8
   699                                  L36:
   700 000001F9 [00000000]              	dd	_indProcesoActual
   701 000001FD 6689C3                  	mov	ebx, eax
   702 00000200 6689DE                  	mov	esi, ebx
   703 00000203 66C1CE04                	ror	esi, 4
   704 00000207 8EDE                    	mov	ds, si
   705 00000209 66C1EE1C                	shr	esi, 28
   706 0000020D 668B04                  	mov	eax, [si]
   707 00000210 6669C024010000          	imul	eax, eax, 292
   708 00000217 6689C1                  	mov	ecx, eax
   709 0000021A 6658                    	pop	eax
   710 0000021C 6601C8                  	add	eax, ecx
   711 0000021F 6605A4000000            	add	eax, 164
   712 00000225 6650                    	push	eax
   713 00000227 668B46FC                	mov	eax, [bp-4]
   714 0000022B 666BC00C                	imul	eax, eax, 12
   715 0000022F 6689C1                  	mov	ecx, eax
   716 00000232 6658                    	pop	eax
   717 00000234 6601C8                  	add	eax, ecx
   718 00000237 6683C004                	add	eax, 4
   719 0000023B 6689C3                  	mov	ebx, eax
   720 0000023E 6689DE                  	mov	esi, ebx
   721 00000241 66C1CE04                	ror	esi, 4
   722 00000245 8EDE                    	mov	ds, si
   723 00000247 66C1EE1C                	shr	esi, 28
   724 0000024B 668B04                  	mov	eax, [si]
   725 0000024E 6683F800                	cmp	eax, 0
   726 00000252 7D06                    	jge	L33
   727                                  ; {
   728                                  ; return
   729                                  ; RPN'ized expression: "df "
   730                                  ; Expanded expression: "(@-4) *(4) "
   731                                  ; Fused expression:    "*(4) (@-4)  "
   732 00000254 668B46FC                	mov	eax, [bp-4]
   733 00000258 EB10                    	jmp	L27
   734                                  ; }
   735                                  L33:
   736                                  L30:
   737                                  ; Fused expression:    "++p(4) *(@-4) "
   738 0000025A 668B46FC                	mov	eax, [bp-4]
   739 0000025E 66FF46FC                	inc	dword [bp-4]
   740 00000262 EB81                    	jmp	L29
   741                                  L32:
   742                                  ; return
   743                                  ; RPN'ized expression: "1 -u "
   744                                  ; Expanded expression: "-1 "
   745                                  ; Expression value: -1
   746                                  ; Fused expression:    "-1  "
   747 00000264 66B8FFFFFFFF            	mov	eax, -1
   748                                  L27:
   749 0000026A 66                      	db	0x66
   750 0000026B C9                      	leave
   751 0000026C CB                      	retf
   752                                  L37:
   753                                  
   754                                  section .fxnsz
   755 00000008 9B000000                	dd	L37 - _nuevaEntradaTFA
   756                                  
   757                                  ; glb so1_manejador_02 : (void) void
   758                                  section .text
   759                                  	global	_so1_manejador_02
   760                                  _so1_manejador_02:
   761 0000026D 6655                    	push	ebp
   762 0000026F 660FB7EC                	movzx	ebp, sp
   763 00000273 83EC38                  	 sub	sp,         56
   764                                  ; loc     df : (@-4): int
   765                                  ; loc     dfs : (@-8): int
   766                                  ; loc     dfs1 : (@-12): int
   767                                  ; loc     res : (@-16): int
   768                                  ; loc     rindx : (@-20): int
   769                                  ; loc     nombre : (@-24): * char
   770                                  ; loc     modoAp : (@-28): unsigned short
   771                                  ; loc     dir : (@-32): * unsigned char
   772                                  ; loc     nbytes : (@-36): unsigned short
   773                                  ; loc     posNueva : (@-40): int
   774                                  ; loc     pos : (@-44): int
   775                                  ; loc     whence : (@-48): int
   776                                  ; loc     cmd : (@-52): unsigned short
   777                                  ; loc     arg : (@-56): unsigned short
   778                                  ; switch
   779                                  ; RPN'ized expression: "tramaThread tb -> *u &u AL -> *u "
   780                                  ; Expanded expression: "tramaThread *(4) 0 + 32 + *(1) "
   781                                  ; Fused expression:    "tramaThread + *ax 0 + ax 32 *(1) ax  "
   782                                  section .relod
   783 00000024 [78020000]              	dd	L42
   784                                  section .text
   785 00000276 66B8                    	db	0x66, 0xB8
   786                                  L42:
   787 00000278 [00000000]              	dd	_tramaThread
   788 0000027C 6689C3                  	mov	ebx, eax
   789 0000027F 6689DE                  	mov	esi, ebx
   790 00000282 66C1CE04                	ror	esi, 4
   791 00000286 8EDE                    	mov	ds, si
   792 00000288 66C1EE1C                	shr	esi, 28
   793 0000028C 668B04                  	mov	eax, [si]
   794 0000028F 6683C020                	add	eax, 32
   795 00000293 6689C3                  	mov	ebx, eax
   796 00000296 6689DE                  	mov	esi, ebx
   797 00000299 66C1CE04                	ror	esi, 4
   798 0000029D 8EDE                    	mov	ds, si
   799 0000029F 66C1EE1C                	shr	esi, 28
   800 000002A3 8A04                    	mov	al, [si]
   801 000002A5 660FB6C0                	movzx	eax, al
   802 000002A9 E9BB16                  	jmp	L41
   803                                  ; {
   804                                  ; case
   805                                  ; RPN'ized expression: "0 "
   806                                  ; Expanded expression: "0 "
   807                                  ; Expression value: 0
   808                                  L43:
   809                                  ; RPN'ized expression: "modoAp tramaThread tw -> *u &u DX -> *u = "
   810                                  ; Expanded expression: "(@-28) tramaThread *(4) 0 + 24 + *(2) =(2) "
   811                                  ; Fused expression:    "tramaThread + *ax 0 + ax 24 =(170) *(@-28) *ax "
   812                                  section .relod
   813 00000028 [AE020000]              	dd	L44
   814                                  section .text
   815 000002AC 66B8                    	db	0x66, 0xB8
   816                                  L44:
   817 000002AE [00000000]              	dd	_tramaThread
   818 000002B2 6689C3                  	mov	ebx, eax
   819 000002B5 6689DE                  	mov	esi, ebx
   820 000002B8 66C1CE04                	ror	esi, 4
   821 000002BC 8EDE                    	mov	ds, si
   822 000002BE 66C1EE1C                	shr	esi, 28
   823 000002C2 668B04                  	mov	eax, [si]
   824 000002C5 6683C018                	add	eax, 24
   825 000002C9 6689C3                  	mov	ebx, eax
   826 000002CC 6689DE                  	mov	esi, ebx
   827 000002CF 66C1CE04                	ror	esi, 4
   828 000002D3 8EDE                    	mov	ds, si
   829 000002D5 66C1EE1C                	shr	esi, 28
   830 000002D9 8B04                    	mov	ax, [si]
   831 000002DB 660FB7C0                	movzx	eax, ax
   832 000002DF 8946E4                  	mov	[bp-28], ax
   833 000002E2 660FB7C0                	movzx	eax, ax
   834                                  ; loc         <something> : * char
   835                                  ; RPN'ized expression: "nombre ( tramaThread tw -> *u &u BX -> *u , tramaThread tw -> *u &u ES -> *u pointer ) (something45) = "
   836                                  ; Expanded expression: "(@-24)  tramaThread *(4) 0 + 20 + *(2)  tramaThread *(4) 0 + 2 + *(2)  pointer ()8 =(4) "
   837                                  ; Fused expression:    "( tramaThread + *ax 0 + ax 20 *(2) ax , tramaThread + *ax 0 + ax 2 *(2) ax , pointer )8 =(204) *(@-24) ax "
   838                                  section .relod
   839 0000002C [E8020000]              	dd	L46
   840                                  section .text
   841 000002E6 66B8                    	db	0x66, 0xB8
   842                                  L46:
   843 000002E8 [00000000]              	dd	_tramaThread
   844 000002EC 6689C3                  	mov	ebx, eax
   845 000002EF 6689DE                  	mov	esi, ebx
   846 000002F2 66C1CE04                	ror	esi, 4
   847 000002F6 8EDE                    	mov	ds, si
   848 000002F8 66C1EE1C                	shr	esi, 28
   849 000002FC 668B04                  	mov	eax, [si]
   850 000002FF 6683C014                	add	eax, 20
   851 00000303 6689C3                  	mov	ebx, eax
   852 00000306 6689DE                  	mov	esi, ebx
   853 00000309 66C1CE04                	ror	esi, 4
   854 0000030D 8EDE                    	mov	ds, si
   855 0000030F 66C1EE1C                	shr	esi, 28
   856 00000313 8B04                    	mov	ax, [si]
   857 00000315 660FB7C0                	movzx	eax, ax
   858 00000319 6650                    	push	eax
   859                                  section .relod
   860 00000030 [1D030000]              	dd	L47
   861                                  section .text
   862 0000031B 66B8                    	db	0x66, 0xB8
   863                                  L47:
   864 0000031D [00000000]              	dd	_tramaThread
   865 00000321 6689C3                  	mov	ebx, eax
   866 00000324 6689DE                  	mov	esi, ebx
   867 00000327 66C1CE04                	ror	esi, 4
   868 0000032B 8EDE                    	mov	ds, si
   869 0000032D 66C1EE1C                	shr	esi, 28
   870 00000331 668B04                  	mov	eax, [si]
   871 00000334 6683C002                	add	eax, 2
   872 00000338 6689C3                  	mov	ebx, eax
   873 0000033B 6689DE                  	mov	esi, ebx
   874 0000033E 66C1CE04                	ror	esi, 4
   875 00000342 8EDE                    	mov	ds, si
   876 00000344 66C1EE1C                	shr	esi, 28
   877 00000348 8B04                    	mov	ax, [si]
   878 0000034A 660FB7C0                	movzx	eax, ax
   879 0000034E 6650                    	push	eax
   880 00000350 9A                      	db	0x9A
   881                                  section .relot
   882 00000008 [51030000]              	dd	L48
   883                                  section .text
   884                                  L48:
   885 00000351 [00000000]              	dd	_pointer
   886 00000355 83ECF8                  	sub	sp, -8
   887 00000358 668946E8                	mov	[bp-24], eax
   888                                  ; RPN'ized expression: "df 1 -u = "
   889                                  ; Expanded expression: "(@-4) -1 =(4) "
   890                                  ; Fused expression:    "=(204) *(@-4) -1 "
   891 0000035C 66B8FFFFFFFF            	mov	eax, -1
   892 00000362 668946FC                	mov	[bp-4], eax
   893                                  ; if
   894                                  ; RPN'ized expression: "modoAp 16384 32768 | & 16384 32768 | == "
   895                                  ; Expanded expression: "(@-28) *(2) 49152 & 49152 == "
   896                                  ; Fused expression:    "& *(@-28) 49152 == ax 49152 IF! "
   897 00000366 8B46E4                  	mov	ax, [bp-28]
   898 00000369 660FB7C0                	movzx	eax, ax
   899 0000036D 662500C00000            	and	eax, 49152
   900 00000373 663D00C00000            	cmp	eax, 49152
   901 00000379 753A                    	jne	L49
   902                                  ; {
   903                                  ; RPN'ized expression: "tramaThread tw -> *u &u AX -> *u df = "
   904                                  ; Expanded expression: "tramaThread *(4) 0 + 32 + (@-4) *(4) =(2) "
   905                                  ; Fused expression:    "tramaThread + *ax 0 + ax 32 =(172) *ax *(@-4) "
   906                                  section .relod
   907 00000034 [7D030000]              	dd	L51
   908                                  section .text
   909 0000037B 66B8                    	db	0x66, 0xB8
   910                                  L51:
   911 0000037D [00000000]              	dd	_tramaThread
   912 00000381 6689C3                  	mov	ebx, eax
   913 00000384 6689DE                  	mov	esi, ebx
   914 00000387 66C1CE04                	ror	esi, 4
   915 0000038B 8EDE                    	mov	ds, si
   916 0000038D 66C1EE1C                	shr	esi, 28
   917 00000391 668B04                  	mov	eax, [si]
   918 00000394 6683C020                	add	eax, 32
   919 00000398 6689C3                  	mov	ebx, eax
   920 0000039B 668B46FC                	mov	eax, [bp-4]
   921 0000039F 6689DE                  	mov	esi, ebx
   922 000003A2 66C1CE04                	ror	esi, 4
   923 000003A6 8EDE                    	mov	ds, si
   924 000003A8 66C1EE1C                	shr	esi, 28
   925 000003AC 8904                    	mov	[si], ax
   926 000003AE 660FB7C0                	movzx	eax, ax
   927                                  ; break
   928 000003B2 E9FC15                  	jmp	L40
   929                                  ; }
   930                                  L49:
   931                                  ; if
   932                                  ; RPN'ized expression: "modoAp 16384 32768 | & 0 == "
   933                                  ; Expanded expression: "(@-28) *(2) 49152 & 0 == "
   934                                  ; Fused expression:    "& *(@-28) 49152 == ax 0 IF! "
   935 000003B5 8B46E4                  	mov	ax, [bp-28]
   936 000003B8 660FB7C0                	movzx	eax, ax
   937 000003BC 662500C00000            	and	eax, 49152
   938 000003C2 6683F800                	cmp	eax, 0
   939 000003C6 7514                    	jne	L52
   940                                  ; RPN'ized expression: "modoAp modoAp 16384 + = "
   941                                  ; Expanded expression: "(@-28) (@-28) *(2) 16384 + =(2) "
   942                                  ; Fused expression:    "+ *(@-28) 16384 =(172) *(@-28) ax "
   943 000003C8 8B46E4                  	mov	ax, [bp-28]
   944 000003CB 660FB7C0                	movzx	eax, ax
   945 000003CF 660500400000            	add	eax, 16384
   946 000003D5 8946E4                  	mov	[bp-28], ax
   947 000003D8 660FB7C0                	movzx	eax, ax
   948                                  L52:
   949                                  ; RPN'ized expression: "df ( nombre indiceTFA ) = "
   950                                  ; Expanded expression: "(@-4)  (@-24) *(4)  indiceTFA ()4 =(4) "
   951                                  ; Fused expression:    "( *(4) (@-24) , indiceTFA )4 =(204) *(@-4) ax "
   952 000003DC 66FF76E8                	push	dword [bp-24]
   953 000003E0 9A                      	db	0x9A
   954                                  section .relot
   955 0000000C [E1030000]              	dd	L54
   956                                  section .text
   957                                  L54:
   958 000003E1 [E9000000]              	dd	_indiceTFA
   959 000003E5 83ECFC                  	sub	sp, -4
   960 000003E8 668946FC                	mov	[bp-4], eax
   961                                  ; if
   962                                  ; RPN'ized expression: "df 0 >= "
   963                                  ; Expanded expression: "(@-4) *(4) 0 >= "
   964                                  ; Fused expression:    ">= *(@-4) 0 IF! "
   965 000003EC 668B46FC                	mov	eax, [bp-4]
   966 000003F0 6683F800                	cmp	eax, 0
   967 000003F4 0F8C9800                	jl	L55
   968                                  ; {
   969                                  ; RPN'ized expression: "dfs descProceso indProcesoActual + *u &u tfa -> *u df + *u &u dfs -> *u = "
   970                                  ; Expanded expression: "(@-8) descProceso indProcesoActual *(4) 292 * + 164 + (@-4) *(4) 12 * + 4 + *(4) =(4) "
   971                                  ; Fused expression:    "descProceso push-ax indProcesoActual * *ax 292 + *sp ax + ax 164 push-ax * *(@-4) 12 + *sp ax + ax 4 =(204) *(@-8) *ax "
   972                                  section .relod
   973 00000038 [FA030000]              	dd	L57
   974                                  section .text
   975 000003F8 66B8                    	db	0x66, 0xB8
   976                                  L57:
   977 000003FA [00000000]              	dd	_descProceso
   978 000003FE 6650                    	push	eax
   979                                  section .relod
   980 0000003C [02040000]              	dd	L58
   981                                  section .text
   982 00000400 66B8                    	db	0x66, 0xB8
   983                                  L58:
   984 00000402 [00000000]              	dd	_indProcesoActual
   985 00000406 6689C3                  	mov	ebx, eax
   986 00000409 6689DE                  	mov	esi, ebx
   987 0000040C 66C1CE04                	ror	esi, 4
   988 00000410 8EDE                    	mov	ds, si
   989 00000412 66C1EE1C                	shr	esi, 28
   990 00000416 668B04                  	mov	eax, [si]
   991 00000419 6669C024010000          	imul	eax, eax, 292
   992 00000420 6689C1                  	mov	ecx, eax
   993 00000423 6658                    	pop	eax
   994 00000425 6601C8                  	add	eax, ecx
   995 00000428 6605A4000000            	add	eax, 164
   996 0000042E 6650                    	push	eax
   997 00000430 668B46FC                	mov	eax, [bp-4]
   998 00000434 666BC00C                	imul	eax, eax, 12
   999 00000438 6689C1                  	mov	ecx, eax
  1000 0000043B 6658                    	pop	eax
  1001 0000043D 6601C8                  	add	eax, ecx
  1002 00000440 6683C004                	add	eax, 4
  1003 00000444 6689C3                  	mov	ebx, eax
  1004 00000447 6689DE                  	mov	esi, ebx
  1005 0000044A 66C1CE04                	ror	esi, 4
  1006 0000044E 8EDE                    	mov	ds, si
  1007 00000450 66C1EE1C                	shr	esi, 28
  1008 00000454 668B04                  	mov	eax, [si]
  1009 00000457 668946F8                	mov	[bp-8], eax
  1010                                  ; RPN'ized expression: "rindx descFichero dfs + *u &u rindx -> *u = "
  1011                                  ; Expanded expression: "(@-20) descFichero (@-8) *(4) 36 * + 16 + *(4) =(4) "
  1012                                  ; Fused expression:    "descFichero push-ax * *(@-8) 36 + *sp ax + ax 16 =(204) *(@-20) *ax "
  1013                                  section .relod
  1014 00000040 [5D040000]              	dd	L59
  1015                                  section .text
  1016 0000045B 66B8                    	db	0x66, 0xB8
  1017                                  L59:
  1018 0000045D [00000000]              	dd	_descFichero
  1019 00000461 6650                    	push	eax
  1020 00000463 668B46F8                	mov	eax, [bp-8]
  1021 00000467 666BC024                	imul	eax, eax, 36
  1022 0000046B 6689C1                  	mov	ecx, eax
  1023 0000046E 6658                    	pop	eax
  1024 00000470 6601C8                  	add	eax, ecx
  1025 00000473 6683C010                	add	eax, 16
  1026 00000477 6689C3                  	mov	ebx, eax
  1027 0000047A 6689DE                  	mov	esi, ebx
  1028 0000047D 66C1CE04                	ror	esi, 4
  1029 00000481 8EDE                    	mov	ds, si
  1030 00000483 66C1EE1C                	shr	esi, 28
  1031 00000487 668B04                  	mov	eax, [si]
  1032 0000048A 668946EC                	mov	[bp-20], eax
  1033                                  ; }
  1034 0000048E EB4D                    	jmp	L56
  1035                                  L55:
  1036                                  ; else
  1037                                  ; {
  1038                                  ; RPN'ized expression: "dfs ( nombre indiceTFAS ) = "
  1039                                  ; Expanded expression: "(@-8)  (@-24) *(4)  indiceTFAS ()4 =(4) "
  1040                                  ; Fused expression:    "( *(4) (@-24) , indiceTFAS )4 =(204) *(@-8) ax "
  1041 00000490 66FF76E8                	push	dword [bp-24]
  1042 00000494 9A                      	db	0x9A
  1043                                  section .relot
  1044 00000010 [95040000]              	dd	L60
  1045                                  section .text
  1046                                  L60:
  1047 00000495 [00000000]              	dd	_indiceTFAS
  1048 00000499 83ECFC                  	sub	sp, -4
  1049 0000049C 668946F8                	mov	[bp-8], eax
  1050                                  ; if
  1051                                  ; RPN'ized expression: "dfs 0 >= "
  1052                                  ; Expanded expression: "(@-8) *(4) 0 >= "
  1053                                  ; Fused expression:    ">= *(@-8) 0 IF! "
  1054 000004A0 668B46F8                	mov	eax, [bp-8]
  1055 000004A4 6683F800                	cmp	eax, 0
  1056 000004A8 7C33                    	jl	L61
  1057                                  ; RPN'ized expression: "rindx descFichero dfs + *u &u rindx -> *u = "
  1058                                  ; Expanded expression: "(@-20) descFichero (@-8) *(4) 36 * + 16 + *(4) =(4) "
  1059                                  ; Fused expression:    "descFichero push-ax * *(@-8) 36 + *sp ax + ax 16 =(204) *(@-20) *ax "
  1060                                  section .relod
  1061 00000044 [AC040000]              	dd	L63
  1062                                  section .text
  1063 000004AA 66B8                    	db	0x66, 0xB8
  1064                                  L63:
  1065 000004AC [00000000]              	dd	_descFichero
  1066 000004B0 6650                    	push	eax
  1067 000004B2 668B46F8                	mov	eax, [bp-8]
  1068 000004B6 666BC024                	imul	eax, eax, 36
  1069 000004BA 6689C1                  	mov	ecx, eax
  1070 000004BD 6658                    	pop	eax
  1071 000004BF 6601C8                  	add	eax, ecx
  1072 000004C2 6683C010                	add	eax, 16
  1073 000004C6 6689C3                  	mov	ebx, eax
  1074 000004C9 6689DE                  	mov	esi, ebx
  1075 000004CC 66C1CE04                	ror	esi, 4
  1076 000004D0 8EDE                    	mov	ds, si
  1077 000004D2 66C1EE1C                	shr	esi, 28
  1078 000004D6 668B04                  	mov	eax, [si]
  1079 000004D9 668946EC                	mov	[bp-20], eax
  1080                                  L61:
  1081                                  ; }
  1082                                  L56:
  1083                                  ; if
  1084                                  ; loc         <something> : * (
  1085                                  ; prm             dfs : int
  1086                                  ; prm             modo : unsigned short
  1087                                  ;             ) int
  1088                                  ; loc         <something> : * unsigned char
  1089                                  ; RPN'ized expression: "descRecurso rindx + *u &u open -> *u 0 (something67) (something66) != dfs1 ( modoAp , dfs descRecurso rindx + *u &u open -> *u ) = 0 >= && "
  1090                                  ; Expanded expression: "descRecurso (@-20) *(4) 96 * + 56 + *(4) 0 != [sh&&->68] (@-12)  (@-28) *(2)  (@-8) *(4)  descRecurso (@-20) *(4) 96 * + 56 + *(4) ()8 =(4) 0 >= &&[68] "
  1091                                  ; Fused expression:    "descRecurso push-ax * *(@-20) 96 + *sp ax + ax 56 != *ax 0 [sh&&->68] ( *(2) (@-28) , *(4) (@-8) , descRecurso push-ax * *(@-20) 96 + *sp ax + ax 56 *(4) ax )8 =(204) *(@-12) ax >= ax 0 &&[68
  1092                                  section .relod
  1093 00000048 [DF040000]              	dd	L69
  1094                                  section .text
  1095 000004DD 66B8                    	db	0x66, 0xB8
  1096                                  L69:
  1097 000004DF [00000000]              	dd	_descRecurso
  1098 000004E3 6650                    	push	eax
  1099 000004E5 668B46EC                	mov	eax, [bp-20]
  1100 000004E9 666BC060                	imul	eax, eax, 96
  1101 000004ED 6689C1                  	mov	ecx, eax
  1102 000004F0 6658                    	pop	eax
  1103 000004F2 6601C8                  	add	eax, ecx
  1104 000004F5 6683C038                	add	eax, 56
  1105 000004F9 6689C3                  	mov	ebx, eax
  1106 000004FC 6689DE                  	mov	esi, ebx
  1107 000004FF 66C1CE04                	ror	esi, 4
  1108 00000503 8EDE                    	mov	ds, si
  1109 00000505 66C1EE1C                	shr	esi, 28
  1110 00000509 668B04                  	mov	eax, [si]
  1111 0000050C 6683F800                	cmp	eax, 0
  1112 00000510 0F95C0                  	setne	al
  1113 00000513 660FB6C0                	movzx	eax, al
  1114                                  ; JumpIfZero
  1115 00000517 6685C0                  	test	eax, eax
  1116 0000051A 7463                    	je	L68
  1117 0000051C 8B46E4                  	mov	ax, [bp-28]
  1118 0000051F 660FB7C0                	movzx	eax, ax
  1119 00000523 6650                    	push	eax
  1120 00000525 66FF76F8                	push	dword [bp-8]
  1121                                  section .relod
  1122 0000004C [2B050000]              	dd	L70
  1123                                  section .text
  1124 00000529 66B8                    	db	0x66, 0xB8
  1125                                  L70:
  1126 0000052B [00000000]              	dd	_descRecurso
  1127 0000052F 6650                    	push	eax
  1128 00000531 668B46EC                	mov	eax, [bp-20]
  1129 00000535 666BC060                	imul	eax, eax, 96
  1130 00000539 6689C1                  	mov	ecx, eax
  1131 0000053C 6658                    	pop	eax
  1132 0000053E 6601C8                  	add	eax, ecx
  1133 00000541 6683C038                	add	eax, 56
  1134 00000545 6689C3                  	mov	ebx, eax
  1135 00000548 6689DE                  	mov	esi, ebx
  1136 0000054B 66C1CE04                	ror	esi, 4
  1137 0000054F 8EDE                    	mov	ds, si
  1138 00000551 66C1EE1C                	shr	esi, 28
  1139 00000555 668B04                  	mov	eax, [si]
  1140 00000558 9A                      	db	0x9A
  1141                                  section .relot
  1142 00000014 [59050000]              	dd	L71
  1143                                  section .text
  1144                                  L71:
  1145 00000559 [5D050000]              	dd	L72
  1146                                  L72:
  1147 0000055D 89E6                    	mov	si, sp
  1148 0000055F 36830410                	add	word [ss:si], L73 - L72
  1149 00000563 66C1E00C                	shl	eax, 12
  1150 00000567 C1C004                  	rol	ax, 4
  1151 0000056A 6650                    	push	eax
  1152 0000056C CB                      	retf
  1153                                  L73:
  1154 0000056D 83ECF8                  	sub	sp, -8
  1155 00000570 668946F4                	mov	[bp-12], eax
  1156 00000574 6683F800                	cmp	eax, 0
  1157 00000578 0F9DC0                  	setge	al
  1158 0000057B 660FB6C0                	movzx	eax, al
  1159                                  L68:
  1160                                  ; JumpIfZero
  1161 0000057F 6685C0                  	test	eax, eax
  1162 00000582 0F847302                	je	L64
  1163                                  ; {
  1164                                  ; if
  1165                                  ; RPN'ized expression: "df ( nuevaEntradaTFA ) = 0 >= "
  1166                                  ; Expanded expression: "(@-4)  nuevaEntradaTFA ()0 =(4) 0 >= "
  1167                                  ; Fused expression:    "( nuevaEntradaTFA )0 =(204) *(@-4) ax >= ax 0 IF! "
  1168 00000586 9A                      	db	0x9A
  1169                                  section .relot
  1170 00000018 [87050000]              	dd	L76
  1171                                  section .text
  1172                                  L76:
  1173 00000587 [D2010000]              	dd	_nuevaEntradaTFA
  1174 0000058B 668946FC                	mov	[bp-4], eax
  1175 0000058F 6683F800                	cmp	eax, 0
  1176 00000593 0F8C1702                	jl	L74
  1177                                  ; {
  1178                                  ; if
  1179                                  ; RPN'ized expression: "dfs1 0 > "
  1180                                  ; Expanded expression: "(@-12) *(4) 0 > "
  1181                                  ; Fused expression:    "> *(@-12) 0 IF! "
  1182 00000597 668B46F4                	mov	eax, [bp-12]
  1183 0000059B 6683F800                	cmp	eax, 0
  1184 0000059F 7E08                    	jle	L77
  1185                                  ; RPN'ized expression: "dfs dfs1 = "
  1186                                  ; Expanded expression: "(@-8) (@-12) *(4) =(4) "
  1187                                  ; Fused expression:    "=(204) *(@-8) *(@-12) "
  1188 000005A1 668B46F4                	mov	eax, [bp-12]
  1189 000005A5 668946F8                	mov	[bp-8], eax
  1190                                  L77:
  1191                                  ; RPN'ized expression: "descProceso indProcesoActual + *u &u nfa -> *u ++p "
  1192                                  ; Expanded expression: "descProceso indProcesoActual *(4) 292 * + 160 + ++p(2) "
  1193                                  ; Fused expression:    "descProceso push-ax indProcesoActual * *ax 292 + *sp ax + ax 160 ++p(2) *ax "
  1194                                  section .relod
  1195 00000050 [AB050000]              	dd	L79
  1196                                  section .text
  1197 000005A9 66B8                    	db	0x66, 0xB8
  1198                                  L79:
  1199 000005AB [00000000]              	dd	_descProceso
  1200 000005AF 6650                    	push	eax
  1201                                  section .relod
  1202 00000054 [B3050000]              	dd	L80
  1203                                  section .text
  1204 000005B1 66B8                    	db	0x66, 0xB8
  1205                                  L80:
  1206 000005B3 [00000000]              	dd	_indProcesoActual
  1207 000005B7 6689C3                  	mov	ebx, eax
  1208 000005BA 6689DE                  	mov	esi, ebx
  1209 000005BD 66C1CE04                	ror	esi, 4
  1210 000005C1 8EDE                    	mov	ds, si
  1211 000005C3 66C1EE1C                	shr	esi, 28
  1212 000005C7 668B04                  	mov	eax, [si]
  1213 000005CA 6669C024010000          	imul	eax, eax, 292
  1214 000005D1 6689C1                  	mov	ecx, eax
  1215 000005D4 6658                    	pop	eax
  1216 000005D6 6601C8                  	add	eax, ecx
  1217 000005D9 6605A0000000            	add	eax, 160
  1218 000005DF 6689C3                  	mov	ebx, eax
  1219 000005E2 6689DE                  	mov	esi, ebx
  1220 000005E5 66C1CE04                	ror	esi, 4
  1221 000005E9 8EDE                    	mov	ds, si
  1222 000005EB 66C1EE1C                	shr	esi, 28
  1223 000005EF 8B04                    	mov	ax, [si]
  1224 000005F1 660FB7C0                	movzx	eax, ax
  1225 000005F5 FF04                    	inc	word [si]
  1226                                  ; RPN'ized expression: "descProceso indProcesoActual + *u &u tfa -> *u df + *u &u modoAp -> *u modoAp = "
  1227                                  ; Expanded expression: "descProceso indProcesoActual *(4) 292 * + 164 + (@-4) *(4) 12 * + 0 + (@-28) *(2) =(2) "
  1228                                  ; Fused expression:    "descProceso push-ax indProcesoActual * *ax 292 + *sp ax + ax 164 push-ax * *(@-4) 12 + *sp ax + ax 0 =(170) *ax *(@-28) "
  1229                                  section .relod
  1230 00000058 [F9050000]              	dd	L81
  1231                                  section .text
  1232 000005F7 66B8                    	db	0x66, 0xB8
  1233                                  L81:
  1234 000005F9 [00000000]              	dd	_descProceso
  1235 000005FD 6650                    	push	eax
  1236                                  section .relod
  1237 0000005C [01060000]              	dd	L82
  1238                                  section .text
  1239 000005FF 66B8                    	db	0x66, 0xB8
  1240                                  L82:
  1241 00000601 [00000000]              	dd	_indProcesoActual
  1242 00000605 6689C3                  	mov	ebx, eax
  1243 00000608 6689DE                  	mov	esi, ebx
  1244 0000060B 66C1CE04                	ror	esi, 4
  1245 0000060F 8EDE                    	mov	ds, si
  1246 00000611 66C1EE1C                	shr	esi, 28
  1247 00000615 668B04                  	mov	eax, [si]
  1248 00000618 6669C024010000          	imul	eax, eax, 292
  1249 0000061F 6689C1                  	mov	ecx, eax
  1250 00000622 6658                    	pop	eax
  1251 00000624 6601C8                  	add	eax, ecx
  1252 00000627 6605A4000000            	add	eax, 164
  1253 0000062D 6650                    	push	eax
  1254 0000062F 668B46FC                	mov	eax, [bp-4]
  1255 00000633 666BC00C                	imul	eax, eax, 12
  1256 00000637 6689C1                  	mov	ecx, eax
  1257 0000063A 6658                    	pop	eax
  1258 0000063C 6601C8                  	add	eax, ecx
  1259 0000063F 6689C3                  	mov	ebx, eax
  1260 00000642 8B46E4                  	mov	ax, [bp-28]
  1261 00000645 660FB7C0                	movzx	eax, ax
  1262 00000649 6689DE                  	mov	esi, ebx
  1263 0000064C 66C1CE04                	ror	esi, 4
  1264 00000650 8EDE                    	mov	ds, si
  1265 00000652 66C1EE1C                	shr	esi, 28
  1266 00000656 8904                    	mov	[si], ax
  1267 00000658 660FB7C0                	movzx	eax, ax
  1268                                  ; RPN'ized expression: "descProceso indProcesoActual + *u &u tfa -> *u df + *u &u dfs -> *u dfs = "
  1269                                  ; Expanded expression: "descProceso indProcesoActual *(4) 292 * + 164 + (@-4) *(4) 12 * + 4 + (@-8) *(4) =(4) "
  1270                                  ; Fused expression:    "descProceso push-ax indProcesoActual * *ax 292 + *sp ax + ax 164 push-ax * *(@-4) 12 + *sp ax + ax 4 =(204) *ax *(@-8) "
  1271                                  section .relod
  1272 00000060 [5E060000]              	dd	L83
  1273                                  section .text
  1274 0000065C 66B8                    	db	0x66, 0xB8
  1275                                  L83:
  1276 0000065E [00000000]              	dd	_descProceso
  1277 00000662 6650                    	push	eax
  1278                                  section .relod
  1279 00000064 [66060000]              	dd	L84
  1280                                  section .text
  1281 00000664 66B8                    	db	0x66, 0xB8
  1282                                  L84:
  1283 00000666 [00000000]              	dd	_indProcesoActual
  1284 0000066A 6689C3                  	mov	ebx, eax
  1285 0000066D 6689DE                  	mov	esi, ebx
  1286 00000670 66C1CE04                	ror	esi, 4
  1287 00000674 8EDE                    	mov	ds, si
  1288 00000676 66C1EE1C                	shr	esi, 28
  1289 0000067A 668B04                  	mov	eax, [si]
  1290 0000067D 6669C024010000          	imul	eax, eax, 292
  1291 00000684 6689C1                  	mov	ecx, eax
  1292 00000687 6658                    	pop	eax
  1293 00000689 6601C8                  	add	eax, ecx
  1294 0000068C 6605A4000000            	add	eax, 164
  1295 00000692 6650                    	push	eax
  1296 00000694 668B46FC                	mov	eax, [bp-4]
  1297 00000698 666BC00C                	imul	eax, eax, 12
  1298 0000069C 6689C1                  	mov	ecx, eax
  1299 0000069F 6658                    	pop	eax
  1300 000006A1 6601C8                  	add	eax, ecx
  1301 000006A4 6683C004                	add	eax, 4
  1302 000006A8 6689C3                  	mov	ebx, eax
  1303 000006AB 668B46F8                	mov	eax, [bp-8]
  1304 000006AF 6689DE                  	mov	esi, ebx
  1305 000006B2 66C1CE04                	ror	esi, 4
  1306 000006B6 8EDE                    	mov	ds, si
  1307 000006B8 66C1EE1C                	shr	esi, 28
  1308 000006BC 668904                  	mov	[si], eax
  1309                                  ; RPN'ized expression: "descProceso indProcesoActual + *u &u tfa -> *u df + *u &u pos -> *u 0 = "
  1310                                  ; Expanded expression: "descProceso indProcesoActual *(4) 292 * + 164 + (@-4) *(4) 12 * + 8 + 0 =(4) "
  1311                                  ; Fused expression:    "descProceso push-ax indProcesoActual * *ax 292 + *sp ax + ax 164 push-ax * *(@-4) 12 + *sp ax + ax 8 =(204) *ax 0 "
  1312                                  section .relod
  1313 00000068 [C1060000]              	dd	L85
  1314                                  section .text
  1315 000006BF 66B8                    	db	0x66, 0xB8
  1316                                  L85:
  1317 000006C1 [00000000]              	dd	_descProceso
  1318 000006C5 6650                    	push	eax
  1319                                  section .relod
  1320 0000006C [C9060000]              	dd	L86
  1321                                  section .text
  1322 000006C7 66B8                    	db	0x66, 0xB8
  1323                                  L86:
  1324 000006C9 [00000000]              	dd	_indProcesoActual
  1325 000006CD 6689C3                  	mov	ebx, eax
  1326 000006D0 6689DE                  	mov	esi, ebx
  1327 000006D3 66C1CE04                	ror	esi, 4
  1328 000006D7 8EDE                    	mov	ds, si
  1329 000006D9 66C1EE1C                	shr	esi, 28
  1330 000006DD 668B04                  	mov	eax, [si]
  1331 000006E0 6669C024010000          	imul	eax, eax, 292
  1332 000006E7 6689C1                  	mov	ecx, eax
  1333 000006EA 6658                    	pop	eax
  1334 000006EC 6601C8                  	add	eax, ecx
  1335 000006EF 6605A4000000            	add	eax, 164
  1336 000006F5 6650                    	push	eax
  1337 000006F7 668B46FC                	mov	eax, [bp-4]
  1338 000006FB 666BC00C                	imul	eax, eax, 12
  1339 000006FF 6689C1                  	mov	ecx, eax
  1340 00000702 6658                    	pop	eax
  1341 00000704 6601C8                  	add	eax, ecx
  1342 00000707 6683C008                	add	eax, 8
  1343 0000070B 6689C3                  	mov	ebx, eax
  1344 0000070E 66B800000000            	mov	eax, 0
  1345 00000714 6689DE                  	mov	esi, ebx
  1346 00000717 66C1CE04                	ror	esi, 4
  1347 0000071B 8EDE                    	mov	ds, si
  1348 0000071D 66C1EE1C                	shr	esi, 28
  1349 00000721 668904                  	mov	[si], eax
  1350                                  ; if
  1351                                  ; RPN'ized expression: "modoAp 7 & 1 == "
  1352                                  ; Expanded expression: "(@-28) *(2) 7 & 1 == "
  1353                                  ; Fused expression:    "& *(@-28) 7 == ax 1 IF! "
  1354 00000724 8B46E4                  	mov	ax, [bp-28]
  1355 00000727 660FB7C0                	movzx	eax, ax
  1356 0000072B 6683E007                	and	eax, 7
  1357 0000072F 6683F801                	cmp	eax, 1
  1358 00000733 7534                    	jne	L87
  1359                                  ; RPN'ized expression: "descFichero dfs + *u &u contAp_L -> *u ++p "
  1360                                  ; Expanded expression: "descFichero (@-8) *(4) 36 * + 28 + ++p(4) "
  1361                                  ; Fused expression:    "descFichero push-ax * *(@-8) 36 + *sp ax + ax 28 ++p(4) *ax "
  1362                                  section .relod
  1363 00000070 [37070000]              	dd	L89
  1364                                  section .text
  1365 00000735 66B8                    	db	0x66, 0xB8
  1366                                  L89:
  1367 00000737 [00000000]              	dd	_descFichero
  1368 0000073B 6650                    	push	eax
  1369 0000073D 668B46F8                	mov	eax, [bp-8]
  1370 00000741 666BC024                	imul	eax, eax, 36
  1371 00000745 6689C1                  	mov	ecx, eax
  1372 00000748 6658                    	pop	eax
  1373 0000074A 6601C8                  	add	eax, ecx
  1374 0000074D 6683C01C                	add	eax, 28
  1375 00000751 6689C3                  	mov	ebx, eax
  1376 00000754 6689DE                  	mov	esi, ebx
  1377 00000757 66C1CE04                	ror	esi, 4
  1378 0000075B 8EDE                    	mov	ds, si
  1379 0000075D 66C1EE1C                	shr	esi, 28
  1380 00000761 668B04                  	mov	eax, [si]
  1381 00000764 66FF04                  	inc	dword [si]
  1382 00000767 EB43                    	jmp	L88
  1383                                  L87:
  1384                                  ; else
  1385                                  ; if
  1386                                  ; RPN'ized expression: "modoAp 7 & 2 == "
  1387                                  ; Expanded expression: "(@-28) *(2) 7 & 2 == "
  1388                                  ; Fused expression:    "& *(@-28) 7 == ax 2 IF! "
  1389 00000769 8B46E4                  	mov	ax, [bp-28]
  1390 0000076C 660FB7C0                	movzx	eax, ax
  1391 00000770 6683E007                	and	eax, 7
  1392 00000774 6683F802                	cmp	eax, 2
  1393 00000778 7532                    	jne	L90
  1394                                  ; RPN'ized expression: "descFichero dfs + *u &u contAp_E -> *u ++p "
  1395                                  ; Expanded expression: "descFichero (@-8) *(4) 36 * + 32 + ++p(4) "
  1396                                  ; Fused expression:    "descFichero push-ax * *(@-8) 36 + *sp ax + ax 32 ++p(4) *ax "
  1397                                  section .relod
  1398 00000074 [7C070000]              	dd	L92
  1399                                  section .text
  1400 0000077A 66B8                    	db	0x66, 0xB8
  1401                                  L92:
  1402 0000077C [00000000]              	dd	_descFichero
  1403 00000780 6650                    	push	eax
  1404 00000782 668B46F8                	mov	eax, [bp-8]
  1405 00000786 666BC024                	imul	eax, eax, 36
  1406 0000078A 6689C1                  	mov	ecx, eax
  1407 0000078D 6658                    	pop	eax
  1408 0000078F 6601C8                  	add	eax, ecx
  1409 00000792 6683C020                	add	eax, 32
  1410 00000796 6689C3                  	mov	ebx, eax
  1411 00000799 6689DE                  	mov	esi, ebx
  1412 0000079C 66C1CE04                	ror	esi, 4
  1413 000007A0 8EDE                    	mov	ds, si
  1414 000007A2 66C1EE1C                	shr	esi, 28
  1415 000007A6 668B04                  	mov	eax, [si]
  1416 000007A9 66FF04                  	inc	dword [si]
  1417                                  L90:
  1418                                  L88:
  1419                                  ; }
  1420 000007AC EB4B                    	jmp	L75
  1421                                  L74:
  1422                                  ; else
  1423                                  ; RPN'ized expression: "( dfs descRecurso rindx + *u &u release -> *u ) "
  1424                                  ; Expanded expression: " (@-8) *(4)  descRecurso (@-20) *(4) 96 * + 60 + *(4) ()4 "
  1425                                  ; Fused expression:    "( *(4) (@-8) , descRecurso push-ax * *(@-20) 96 + *sp ax + ax 60 *(4) ax )4 "
  1426 000007AE 66FF76F8                	push	dword [bp-8]
  1427                                  section .relod
  1428 00000078 [B4070000]              	dd	L93
  1429                                  section .text
  1430 000007B2 66B8                    	db	0x66, 0xB8
  1431                                  L93:
  1432 000007B4 [00000000]              	dd	_descRecurso
  1433 000007B8 6650                    	push	eax
  1434 000007BA 668B46EC                	mov	eax, [bp-20]
  1435 000007BE 666BC060                	imul	eax, eax, 96
  1436 000007C2 6689C1                  	mov	ecx, eax
  1437 000007C5 6658                    	pop	eax
  1438 000007C7 6601C8                  	add	eax, ecx
  1439 000007CA 6683C03C                	add	eax, 60
  1440 000007CE 6689C3                  	mov	ebx, eax
  1441 000007D1 6689DE                  	mov	esi, ebx
  1442 000007D4 66C1CE04                	ror	esi, 4
  1443 000007D8 8EDE                    	mov	ds, si
  1444 000007DA 66C1EE1C                	shr	esi, 28
  1445 000007DE 668B04                  	mov	eax, [si]
  1446 000007E1 9A                      	db	0x9A
  1447                                  section .relot
  1448 0000001C [E2070000]              	dd	L94
  1449                                  section .text
  1450                                  L94:
  1451 000007E2 [E6070000]              	dd	L95
  1452                                  L95:
  1453 000007E6 89E6                    	mov	si, sp
  1454 000007E8 36830410                	add	word [ss:si], L96 - L95
  1455 000007EC 66C1E00C                	shl	eax, 12
  1456 000007F0 C1C004                  	rol	ax, 4
  1457 000007F3 6650                    	push	eax
  1458 000007F5 CB                      	retf
  1459                                  L96:
  1460 000007F6 83ECFC                  	sub	sp, -4
  1461                                  L75:
  1462                                  ; }
  1463                                  L64:
  1464                                  ; RPN'ized expression: "tramaThread tw -> *u &u AX -> *u df = "
  1465                                  ; Expanded expression: "tramaThread *(4) 0 + 32 + (@-4) *(4) =(2) "
  1466                                  ; Fused expression:    "tramaThread + *ax 0 + ax 32 =(172) *ax *(@-4) "
  1467                                  section .relod
  1468 0000007C [FB070000]              	dd	L97
  1469                                  section .text
  1470 000007F9 66B8                    	db	0x66, 0xB8
  1471                                  L97:
  1472 000007FB [00000000]              	dd	_tramaThread
  1473 000007FF 6689C3                  	mov	ebx, eax
  1474 00000802 6689DE                  	mov	esi, ebx
  1475 00000805 66C1CE04                	ror	esi, 4
  1476 00000809 8EDE                    	mov	ds, si
  1477 0000080B 66C1EE1C                	shr	esi, 28
  1478 0000080F 668B04                  	mov	eax, [si]
  1479 00000812 6683C020                	add	eax, 32
  1480 00000816 6689C3                  	mov	ebx, eax
  1481 00000819 668B46FC                	mov	eax, [bp-4]
  1482 0000081D 6689DE                  	mov	esi, ebx
  1483 00000820 66C1CE04                	ror	esi, 4
  1484 00000824 8EDE                    	mov	ds, si
  1485 00000826 66C1EE1C                	shr	esi, 28
  1486 0000082A 8904                    	mov	[si], ax
  1487 0000082C 660FB7C0                	movzx	eax, ax
  1488                                  ; break
  1489 00000830 E97E11                  	jmp	L40
  1490                                  ; case
  1491                                  ; RPN'ized expression: "1 "
  1492                                  ; Expanded expression: "1 "
  1493                                  ; Expression value: 1
  1494                                  L98:
  1495                                  ; RPN'ized expression: "df tramaThread tw -> *u &u BX -> *u = "
  1496                                  ; Expanded expression: "(@-4) tramaThread *(4) 0 + 20 + *(2) =(4) "
  1497                                  ; Fused expression:    "tramaThread + *ax 0 + ax 20 =(202) *(@-4) *ax "
  1498                                  section .relod
  1499 00000080 [35080000]              	dd	L99
  1500                                  section .text
  1501 00000833 66B8                    	db	0x66, 0xB8
  1502                                  L99:
  1503 00000835 [00000000]              	dd	_tramaThread
  1504 00000839 6689C3                  	mov	ebx, eax
  1505 0000083C 6689DE                  	mov	esi, ebx
  1506 0000083F 66C1CE04                	ror	esi, 4
  1507 00000843 8EDE                    	mov	ds, si
  1508 00000845 66C1EE1C                	shr	esi, 28
  1509 00000849 668B04                  	mov	eax, [si]
  1510 0000084C 6683C014                	add	eax, 20
  1511 00000850 6689C3                  	mov	ebx, eax
  1512 00000853 6689DE                  	mov	esi, ebx
  1513 00000856 66C1CE04                	ror	esi, 4
  1514 0000085A 8EDE                    	mov	ds, si
  1515 0000085C 66C1EE1C                	shr	esi, 28
  1516 00000860 8B04                    	mov	ax, [si]
  1517 00000862 660FB7C0                	movzx	eax, ax
  1518 00000866 668946FC                	mov	[bp-4], eax
  1519                                  ; RPN'ized expression: "res 1 -u = "
  1520                                  ; Expanded expression: "(@-16) -1 =(4) "
  1521                                  ; Fused expression:    "=(204) *(@-16) -1 "
  1522 0000086A 66B8FFFFFFFF            	mov	eax, -1
  1523 00000870 668946F0                	mov	[bp-16], eax
  1524                                  ; if
  1525                                  ; RPN'ized expression: "0 df <= df 10 < && "
  1526                                  ; Expanded expression: "0 (@-4) *(4) <= [sh&&->102] (@-4) *(4) 10 < &&[102] "
  1527                                  ; Fused expression:    "<= 0 *(@-4) [sh&&->102] < *(@-4) 10 &&[102]  "
  1528 00000874 66B800000000            	mov	eax, 0
  1529 0000087A 663B46FC                	cmp	eax, [bp-4]
  1530 0000087E 0F9EC0                  	setle	al
  1531 00000881 660FB6C0                	movzx	eax, al
  1532                                  ; JumpIfZero
  1533 00000885 6685C0                  	test	eax, eax
  1534 00000888 740F                    	je	L102
  1535 0000088A 668B46FC                	mov	eax, [bp-4]
  1536 0000088E 6683F80A                	cmp	eax, 10
  1537 00000892 0F9CC0                  	setl	al
  1538 00000895 660FB6C0                	movzx	eax, al
  1539                                  L102:
  1540                                  ; JumpIfZero
  1541 00000899 6685C0                  	test	eax, eax
  1542 0000089C 0F84B702                	je	L100
  1543                                  ; {
  1544                                  ; RPN'ized expression: "dfs descProceso indProcesoActual + *u &u tfa -> *u df + *u &u dfs -> *u = "
  1545                                  ; Expanded expression: "(@-8) descProceso indProcesoActual *(4) 292 * + 164 + (@-4) *(4) 12 * + 4 + *(4) =(4) "
  1546                                  ; Fused expression:    "descProceso push-ax indProcesoActual * *ax 292 + *sp ax + ax 164 push-ax * *(@-4) 12 + *sp ax + ax 4 =(204) *(@-8) *ax "
  1547                                  section .relod
  1548 00000084 [A2080000]              	dd	L103
  1549                                  section .text
  1550 000008A0 66B8                    	db	0x66, 0xB8
  1551                                  L103:
  1552 000008A2 [00000000]              	dd	_descProceso
  1553 000008A6 6650                    	push	eax
  1554                                  section .relod
  1555 00000088 [AA080000]              	dd	L104
  1556                                  section .text
  1557 000008A8 66B8                    	db	0x66, 0xB8
  1558                                  L104:
  1559 000008AA [00000000]              	dd	_indProcesoActual
  1560 000008AE 6689C3                  	mov	ebx, eax
  1561 000008B1 6689DE                  	mov	esi, ebx
  1562 000008B4 66C1CE04                	ror	esi, 4
  1563 000008B8 8EDE                    	mov	ds, si
  1564 000008BA 66C1EE1C                	shr	esi, 28
  1565 000008BE 668B04                  	mov	eax, [si]
  1566 000008C1 6669C024010000          	imul	eax, eax, 292
  1567 000008C8 6689C1                  	mov	ecx, eax
  1568 000008CB 6658                    	pop	eax
  1569 000008CD 6601C8                  	add	eax, ecx
  1570 000008D0 6605A4000000            	add	eax, 164
  1571 000008D6 6650                    	push	eax
  1572 000008D8 668B46FC                	mov	eax, [bp-4]
  1573 000008DC 666BC00C                	imul	eax, eax, 12
  1574 000008E0 6689C1                  	mov	ecx, eax
  1575 000008E3 6658                    	pop	eax
  1576 000008E5 6601C8                  	add	eax, ecx
  1577 000008E8 6683C004                	add	eax, 4
  1578 000008EC 6689C3                  	mov	ebx, eax
  1579 000008EF 6689DE                  	mov	esi, ebx
  1580 000008F2 66C1CE04                	ror	esi, 4
  1581 000008F6 8EDE                    	mov	ds, si
  1582 000008F8 66C1EE1C                	shr	esi, 28
  1583 000008FC 668B04                  	mov	eax, [si]
  1584 000008FF 668946F8                	mov	[bp-8], eax
  1585                                  ; if
  1586                                  ; RPN'ized expression: "0 dfs <= dfs 20 < && "
  1587                                  ; Expanded expression: "0 (@-8) *(4) <= [sh&&->107] (@-8) *(4) 20 < &&[107] "
  1588                                  ; Fused expression:    "<= 0 *(@-8) [sh&&->107] < *(@-8) 20 &&[107]  "
  1589 00000903 66B800000000            	mov	eax, 0
  1590 00000909 663B46F8                	cmp	eax, [bp-8]
  1591 0000090D 0F9EC0                  	setle	al
  1592 00000910 660FB6C0                	movzx	eax, al
  1593                                  ; JumpIfZero
  1594 00000914 6685C0                  	test	eax, eax
  1595 00000917 740F                    	je	L107
  1596 00000919 668B46F8                	mov	eax, [bp-8]
  1597 0000091D 6683F814                	cmp	eax, 20
  1598 00000921 0F9CC0                  	setl	al
  1599 00000924 660FB6C0                	movzx	eax, al
  1600                                  L107:
  1601                                  ; JumpIfZero
  1602 00000928 6685C0                  	test	eax, eax
  1603 0000092B 0F842802                	je	L105
  1604                                  ; {
  1605                                  ; RPN'ized expression: "rindx descFichero dfs + *u &u rindx -> *u = "
  1606                                  ; Expanded expression: "(@-20) descFichero (@-8) *(4) 36 * + 16 + *(4) =(4) "
  1607                                  ; Fused expression:    "descFichero push-ax * *(@-8) 36 + *sp ax + ax 16 =(204) *(@-20) *ax "
  1608                                  section .relod
  1609 0000008C [31090000]              	dd	L108
  1610                                  section .text
  1611 0000092F 66B8                    	db	0x66, 0xB8
  1612                                  L108:
  1613 00000931 [00000000]              	dd	_descFichero
  1614 00000935 6650                    	push	eax
  1615 00000937 668B46F8                	mov	eax, [bp-8]
  1616 0000093B 666BC024                	imul	eax, eax, 36
  1617 0000093F 6689C1                  	mov	ecx, eax
  1618 00000942 6658                    	pop	eax
  1619 00000944 6601C8                  	add	eax, ecx
  1620 00000947 6683C010                	add	eax, 16
  1621 0000094B 6689C3                  	mov	ebx, eax
  1622 0000094E 6689DE                  	mov	esi, ebx
  1623 00000951 66C1CE04                	ror	esi, 4
  1624 00000955 8EDE                    	mov	ds, si
  1625 00000957 66C1EE1C                	shr	esi, 28
  1626 0000095B 668B04                  	mov	eax, [si]
  1627 0000095E 668946EC                	mov	[bp-20], eax
  1628                                  ; RPN'ized expression: "descProceso indProcesoActual + *u &u nfa -> *u --p "
  1629                                  ; Expanded expression: "descProceso indProcesoActual *(4) 292 * + 160 + --p(2) "
  1630                                  ; Fused expression:    "descProceso push-ax indProcesoActual * *ax 292 + *sp ax + ax 160 --p(2) *ax "
  1631                                  section .relod
  1632 00000090 [64090000]              	dd	L109
  1633                                  section .text
  1634 00000962 66B8                    	db	0x66, 0xB8
  1635                                  L109:
  1636 00000964 [00000000]              	dd	_descProceso
  1637 00000968 6650                    	push	eax
  1638                                  section .relod
  1639 00000094 [6C090000]              	dd	L110
  1640                                  section .text
  1641 0000096A 66B8                    	db	0x66, 0xB8
  1642                                  L110:
  1643 0000096C [00000000]              	dd	_indProcesoActual
  1644 00000970 6689C3                  	mov	ebx, eax
  1645 00000973 6689DE                  	mov	esi, ebx
  1646 00000976 66C1CE04                	ror	esi, 4
  1647 0000097A 8EDE                    	mov	ds, si
  1648 0000097C 66C1EE1C                	shr	esi, 28
  1649 00000980 668B04                  	mov	eax, [si]
  1650 00000983 6669C024010000          	imul	eax, eax, 292
  1651 0000098A 6689C1                  	mov	ecx, eax
  1652 0000098D 6658                    	pop	eax
  1653 0000098F 6601C8                  	add	eax, ecx
  1654 00000992 6605A0000000            	add	eax, 160
  1655 00000998 6689C3                  	mov	ebx, eax
  1656 0000099B 6689DE                  	mov	esi, ebx
  1657 0000099E 66C1CE04                	ror	esi, 4
  1658 000009A2 8EDE                    	mov	ds, si
  1659 000009A4 66C1EE1C                	shr	esi, 28
  1660 000009A8 8B04                    	mov	ax, [si]
  1661 000009AA 660FB7C0                	movzx	eax, ax
  1662 000009AE FF0C                    	dec	word [si]
  1663                                  ; RPN'ized expression: "modoAp descProceso indProcesoActual + *u &u tfa -> *u df + *u &u modoAp -> *u = "
  1664                                  ; Expanded expression: "(@-28) descProceso indProcesoActual *(4) 292 * + 164 + (@-4) *(4) 12 * + 0 + *(2) =(2) "
  1665                                  ; Fused expression:    "descProceso push-ax indProcesoActual * *ax 292 + *sp ax + ax 164 push-ax * *(@-4) 12 + *sp ax + ax 0 =(170) *(@-28) *ax "
  1666                                  section .relod
  1667 00000098 [B2090000]              	dd	L111
  1668                                  section .text
  1669 000009B0 66B8                    	db	0x66, 0xB8
  1670                                  L111:
  1671 000009B2 [00000000]              	dd	_descProceso
  1672 000009B6 6650                    	push	eax
  1673                                  section .relod
  1674 0000009C [BA090000]              	dd	L112
  1675                                  section .text
  1676 000009B8 66B8                    	db	0x66, 0xB8
  1677                                  L112:
  1678 000009BA [00000000]              	dd	_indProcesoActual
  1679 000009BE 6689C3                  	mov	ebx, eax
  1680 000009C1 6689DE                  	mov	esi, ebx
  1681 000009C4 66C1CE04                	ror	esi, 4
  1682 000009C8 8EDE                    	mov	ds, si
  1683 000009CA 66C1EE1C                	shr	esi, 28
  1684 000009CE 668B04                  	mov	eax, [si]
  1685 000009D1 6669C024010000          	imul	eax, eax, 292
  1686 000009D8 6689C1                  	mov	ecx, eax
  1687 000009DB 6658                    	pop	eax
  1688 000009DD 6601C8                  	add	eax, ecx
  1689 000009E0 6605A4000000            	add	eax, 164
  1690 000009E6 6650                    	push	eax
  1691 000009E8 668B46FC                	mov	eax, [bp-4]
  1692 000009EC 666BC00C                	imul	eax, eax, 12
  1693 000009F0 6689C1                  	mov	ecx, eax
  1694 000009F3 6658                    	pop	eax
  1695 000009F5 6601C8                  	add	eax, ecx
  1696 000009F8 6689C3                  	mov	ebx, eax
  1697 000009FB 6689DE                  	mov	esi, ebx
  1698 000009FE 66C1CE04                	ror	esi, 4
  1699 00000A02 8EDE                    	mov	ds, si
  1700 00000A04 66C1EE1C                	shr	esi, 28
  1701 00000A08 8B04                    	mov	ax, [si]
  1702 00000A0A 660FB7C0                	movzx	eax, ax
  1703 00000A0E 8946E4                  	mov	[bp-28], ax
  1704 00000A11 660FB7C0                	movzx	eax, ax
  1705                                  ; if
  1706                                  ; RPN'ized expression: "modoAp 7 & 1 == "
  1707                                  ; Expanded expression: "(@-28) *(2) 7 & 1 == "
  1708                                  ; Fused expression:    "& *(@-28) 7 == ax 1 IF! "
  1709 00000A15 8B46E4                  	mov	ax, [bp-28]
  1710 00000A18 660FB7C0                	movzx	eax, ax
  1711 00000A1C 6683E007                	and	eax, 7
  1712 00000A20 6683F801                	cmp	eax, 1
  1713 00000A24 7534                    	jne	L113
  1714                                  ; RPN'ized expression: "descFichero dfs + *u &u contAp_L -> *u --p "
  1715                                  ; Expanded expression: "descFichero (@-8) *(4) 36 * + 28 + --p(4) "
  1716                                  ; Fused expression:    "descFichero push-ax * *(@-8) 36 + *sp ax + ax 28 --p(4) *ax "
  1717                                  section .relod
  1718 000000A0 [280A0000]              	dd	L115
  1719                                  section .text
  1720 00000A26 66B8                    	db	0x66, 0xB8
  1721                                  L115:
  1722 00000A28 [00000000]              	dd	_descFichero
  1723 00000A2C 6650                    	push	eax
  1724 00000A2E 668B46F8                	mov	eax, [bp-8]
  1725 00000A32 666BC024                	imul	eax, eax, 36
  1726 00000A36 6689C1                  	mov	ecx, eax
  1727 00000A39 6658                    	pop	eax
  1728 00000A3B 6601C8                  	add	eax, ecx
  1729 00000A3E 6683C01C                	add	eax, 28
  1730 00000A42 6689C3                  	mov	ebx, eax
  1731 00000A45 6689DE                  	mov	esi, ebx
  1732 00000A48 66C1CE04                	ror	esi, 4
  1733 00000A4C 8EDE                    	mov	ds, si
  1734 00000A4E 66C1EE1C                	shr	esi, 28
  1735 00000A52 668B04                  	mov	eax, [si]
  1736 00000A55 66FF0C                  	dec	dword [si]
  1737 00000A58 EB43                    	jmp	L114
  1738                                  L113:
  1739                                  ; else
  1740                                  ; if
  1741                                  ; RPN'ized expression: "modoAp 7 & 2 == "
  1742                                  ; Expanded expression: "(@-28) *(2) 7 & 2 == "
  1743                                  ; Fused expression:    "& *(@-28) 7 == ax 2 IF! "
  1744 00000A5A 8B46E4                  	mov	ax, [bp-28]
  1745 00000A5D 660FB7C0                	movzx	eax, ax
  1746 00000A61 6683E007                	and	eax, 7
  1747 00000A65 6683F802                	cmp	eax, 2
  1748 00000A69 7532                    	jne	L116
  1749                                  ; RPN'ized expression: "descFichero dfs + *u &u contAp_E -> *u --p "
  1750                                  ; Expanded expression: "descFichero (@-8) *(4) 36 * + 32 + --p(4) "
  1751                                  ; Fused expression:    "descFichero push-ax * *(@-8) 36 + *sp ax + ax 32 --p(4) *ax "
  1752                                  section .relod
  1753 000000A4 [6D0A0000]              	dd	L118
  1754                                  section .text
  1755 00000A6B 66B8                    	db	0x66, 0xB8
  1756                                  L118:
  1757 00000A6D [00000000]              	dd	_descFichero
  1758 00000A71 6650                    	push	eax
  1759 00000A73 668B46F8                	mov	eax, [bp-8]
  1760 00000A77 666BC024                	imul	eax, eax, 36
  1761 00000A7B 6689C1                  	mov	ecx, eax
  1762 00000A7E 6658                    	pop	eax
  1763 00000A80 6601C8                  	add	eax, ecx
  1764 00000A83 6683C020                	add	eax, 32
  1765 00000A87 6689C3                  	mov	ebx, eax
  1766 00000A8A 6689DE                  	mov	esi, ebx
  1767 00000A8D 66C1CE04                	ror	esi, 4
  1768 00000A91 8EDE                    	mov	ds, si
  1769 00000A93 66C1EE1C                	shr	esi, 28
  1770 00000A97 668B04                  	mov	eax, [si]
  1771 00000A9A 66FF0C                  	dec	dword [si]
  1772                                  L116:
  1773                                  L114:
  1774                                  ; RPN'ized expression: "descProceso indProcesoActual + *u &u tfa -> *u df + *u &u dfs -> *u 1 -u = "
  1775                                  ; Expanded expression: "descProceso indProcesoActual *(4) 292 * + 164 + (@-4) *(4) 12 * + 4 + -1 =(4) "
  1776                                  ; Fused expression:    "descProceso push-ax indProcesoActual * *ax 292 + *sp ax + ax 164 push-ax * *(@-4) 12 + *sp ax + ax 4 =(204) *ax -1 "
  1777                                  section .relod
  1778 000000A8 [9F0A0000]              	dd	L119
  1779                                  section .text
  1780 00000A9D 66B8                    	db	0x66, 0xB8
  1781                                  L119:
  1782 00000A9F [00000000]              	dd	_descProceso
  1783 00000AA3 6650                    	push	eax
  1784                                  section .relod
  1785 000000AC [A70A0000]              	dd	L120
  1786                                  section .text
  1787 00000AA5 66B8                    	db	0x66, 0xB8
  1788                                  L120:
  1789 00000AA7 [00000000]              	dd	_indProcesoActual
  1790 00000AAB 6689C3                  	mov	ebx, eax
  1791 00000AAE 6689DE                  	mov	esi, ebx
  1792 00000AB1 66C1CE04                	ror	esi, 4
  1793 00000AB5 8EDE                    	mov	ds, si
  1794 00000AB7 66C1EE1C                	shr	esi, 28
  1795 00000ABB 668B04                  	mov	eax, [si]
  1796 00000ABE 6669C024010000          	imul	eax, eax, 292
  1797 00000AC5 6689C1                  	mov	ecx, eax
  1798 00000AC8 6658                    	pop	eax
  1799 00000ACA 6601C8                  	add	eax, ecx
  1800 00000ACD 6605A4000000            	add	eax, 164
  1801 00000AD3 6650                    	push	eax
  1802 00000AD5 668B46FC                	mov	eax, [bp-4]
  1803 00000AD9 666BC00C                	imul	eax, eax, 12
  1804 00000ADD 6689C1                  	mov	ecx, eax
  1805 00000AE0 6658                    	pop	eax
  1806 00000AE2 6601C8                  	add	eax, ecx
  1807 00000AE5 6683C004                	add	eax, 4
  1808 00000AE9 6689C3                  	mov	ebx, eax
  1809 00000AEC 66B8FFFFFFFF            	mov	eax, -1
  1810 00000AF2 6689DE                  	mov	esi, ebx
  1811 00000AF5 66C1CE04                	ror	esi, 4
  1812 00000AF9 8EDE                    	mov	ds, si
  1813 00000AFB 66C1EE1C                	shr	esi, 28
  1814 00000AFF 668904                  	mov	[si], eax
  1815                                  ; RPN'ized expression: "( dfs descRecurso rindx + *u &u release -> *u ) "
  1816                                  ; Expanded expression: " (@-8) *(4)  descRecurso (@-20) *(4) 96 * + 60 + *(4) ()4 "
  1817                                  ; Fused expression:    "( *(4) (@-8) , descRecurso push-ax * *(@-20) 96 + *sp ax + ax 60 *(4) ax )4 "
  1818 00000B02 66FF76F8                	push	dword [bp-8]
  1819                                  section .relod
  1820 000000B0 [080B0000]              	dd	L121
  1821                                  section .text
  1822 00000B06 66B8                    	db	0x66, 0xB8
  1823                                  L121:
  1824 00000B08 [00000000]              	dd	_descRecurso
  1825 00000B0C 6650                    	push	eax
  1826 00000B0E 668B46EC                	mov	eax, [bp-20]
  1827 00000B12 666BC060                	imul	eax, eax, 96
  1828 00000B16 6689C1                  	mov	ecx, eax
  1829 00000B19 6658                    	pop	eax
  1830 00000B1B 6601C8                  	add	eax, ecx
  1831 00000B1E 6683C03C                	add	eax, 60
  1832 00000B22 6689C3                  	mov	ebx, eax
  1833 00000B25 6689DE                  	mov	esi, ebx
  1834 00000B28 66C1CE04                	ror	esi, 4
  1835 00000B2C 8EDE                    	mov	ds, si
  1836 00000B2E 66C1EE1C                	shr	esi, 28
  1837 00000B32 668B04                  	mov	eax, [si]
  1838 00000B35 9A                      	db	0x9A
  1839                                  section .relot
  1840 00000020 [360B0000]              	dd	L122
  1841                                  section .text
  1842                                  L122:
  1843 00000B36 [3A0B0000]              	dd	L123
  1844                                  L123:
  1845 00000B3A 89E6                    	mov	si, sp
  1846 00000B3C 36830410                	add	word [ss:si], L124 - L123
  1847 00000B40 66C1E00C                	shl	eax, 12
  1848 00000B44 C1C004                  	rol	ax, 4
  1849 00000B47 6650                    	push	eax
  1850 00000B49 CB                      	retf
  1851                                  L124:
  1852 00000B4A 83ECFC                  	sub	sp, -4
  1853                                  ; RPN'ized expression: "res 0 = "
  1854                                  ; Expanded expression: "(@-16) 0 =(4) "
  1855                                  ; Fused expression:    "=(204) *(@-16) 0 "
  1856 00000B4D 66B800000000            	mov	eax, 0
  1857 00000B53 668946F0                	mov	[bp-16], eax
  1858                                  ; }
  1859                                  L105:
  1860                                  ; }
  1861                                  L100:
  1862                                  ; RPN'ized expression: "tramaThread tw -> *u &u AX -> *u res = "
  1863                                  ; Expanded expression: "tramaThread *(4) 0 + 32 + (@-16) *(4) =(2) "
  1864                                  ; Fused expression:    "tramaThread + *ax 0 + ax 32 =(172) *ax *(@-16) "
  1865                                  section .relod
  1866 000000B4 [590B0000]              	dd	L125
  1867                                  section .text
  1868 00000B57 66B8                    	db	0x66, 0xB8
  1869                                  L125:
  1870 00000B59 [00000000]              	dd	_tramaThread
  1871 00000B5D 6689C3                  	mov	ebx, eax
  1872 00000B60 6689DE                  	mov	esi, ebx
  1873 00000B63 66C1CE04                	ror	esi, 4
  1874 00000B67 8EDE                    	mov	ds, si
  1875 00000B69 66C1EE1C                	shr	esi, 28
  1876 00000B6D 668B04                  	mov	eax, [si]
  1877 00000B70 6683C020                	add	eax, 32
  1878 00000B74 6689C3                  	mov	ebx, eax
  1879 00000B77 668B46F0                	mov	eax, [bp-16]
  1880 00000B7B 6689DE                  	mov	esi, ebx
  1881 00000B7E 66C1CE04                	ror	esi, 4
  1882 00000B82 8EDE                    	mov	ds, si
  1883 00000B84 66C1EE1C                	shr	esi, 28
  1884 00000B88 8904                    	mov	[si], ax
  1885 00000B8A 660FB7C0                	movzx	eax, ax
  1886                                  ; break
  1887 00000B8E E9200E                  	jmp	L40
  1888                                  ; case
  1889                                  ; RPN'ized expression: "2 "
  1890                                  ; Expanded expression: "2 "
  1891                                  ; Expression value: 2
  1892                                  L126:
  1893                                  ; case
  1894                                  ; RPN'ized expression: "3 "
  1895                                  ; Expanded expression: "3 "
  1896                                  ; Expression value: 3
  1897                                  L127:
  1898                                  ; case
  1899                                  ; RPN'ized expression: "4 "
  1900                                  ; Expanded expression: "4 "
  1901                                  ; Expression value: 4
  1902                                  L128:
  1903                                  ; case
  1904                                  ; RPN'ized expression: "5 "
  1905                                  ; Expanded expression: "5 "
  1906                                  ; Expression value: 5
  1907                                  L129:
  1908                                  ; RPN'ized expression: "df tramaThread tw -> *u &u BX -> *u = "
  1909                                  ; Expanded expression: "(@-4) tramaThread *(4) 0 + 20 + *(2) =(4) "
  1910                                  ; Fused expression:    "tramaThread + *ax 0 + ax 20 =(202) *(@-4) *ax "
  1911                                  section .relod
  1912 000000B8 [930B0000]              	dd	L130
  1913                                  section .text
  1914 00000B91 66B8                    	db	0x66, 0xB8
  1915                                  L130:
  1916 00000B93 [00000000]              	dd	_tramaThread
  1917 00000B97 6689C3                  	mov	ebx, eax
  1918 00000B9A 6689DE                  	mov	esi, ebx
  1919 00000B9D 66C1CE04                	ror	esi, 4
  1920 00000BA1 8EDE                    	mov	ds, si
  1921 00000BA3 66C1EE1C                	shr	esi, 28
  1922 00000BA7 668B04                  	mov	eax, [si]
  1923 00000BAA 6683C014                	add	eax, 20
  1924 00000BAE 6689C3                  	mov	ebx, eax
  1925 00000BB1 6689DE                  	mov	esi, ebx
  1926 00000BB4 66C1CE04                	ror	esi, 4
  1927 00000BB8 8EDE                    	mov	ds, si
  1928 00000BBA 66C1EE1C                	shr	esi, 28
  1929 00000BBE 8B04                    	mov	ax, [si]
  1930 00000BC0 660FB7C0                	movzx	eax, ax
  1931 00000BC4 668946FC                	mov	[bp-4], eax
  1932                                  ; RPN'ized expression: "res 1 -u = "
  1933                                  ; Expanded expression: "(@-16) -1 =(4) "
  1934                                  ; Fused expression:    "=(204) *(@-16) -1 "
  1935 00000BC8 66B8FFFFFFFF            	mov	eax, -1
  1936 00000BCE 668946F0                	mov	[bp-16], eax
  1937                                  ; if
  1938                                  ; RPN'ized expression: "0 df <= df 10 < && "
  1939                                  ; Expanded expression: "0 (@-4) *(4) <= [sh&&->133] (@-4) *(4) 10 < &&[133] "
  1940                                  ; Fused expression:    "<= 0 *(@-4) [sh&&->133] < *(@-4) 10 &&[133]  "
  1941 00000BD2 66B800000000            	mov	eax, 0
  1942 00000BD8 663B46FC                	cmp	eax, [bp-4]
  1943 00000BDC 0F9EC0                  	setle	al
  1944 00000BDF 660FB6C0                	movzx	eax, al
  1945                                  ; JumpIfZero
  1946 00000BE3 6685C0                  	test	eax, eax
  1947 00000BE6 740F                    	je	L133
  1948 00000BE8 668B46FC                	mov	eax, [bp-4]
  1949 00000BEC 6683F80A                	cmp	eax, 10
  1950 00000BF0 0F9CC0                  	setl	al
  1951 00000BF3 660FB6C0                	movzx	eax, al
  1952                                  L133:
  1953                                  ; JumpIfZero
  1954 00000BF7 6685C0                  	test	eax, eax
  1955 00000BFA 0F840105                	je	L131
  1956                                  ; {
  1957                                  ; RPN'ized expression: "nbytes tramaThread tw -> *u &u CX -> *u = "
  1958                                  ; Expanded expression: "(@-36) tramaThread *(4) 0 + 28 + *(2) =(2) "
  1959                                  ; Fused expression:    "tramaThread + *ax 0 + ax 28 =(170) *(@-36) *ax "
  1960                                  section .relod
  1961 000000BC [000C0000]              	dd	L134
  1962                                  section .text
  1963 00000BFE 66B8                    	db	0x66, 0xB8
  1964                                  L134:
  1965 00000C00 [00000000]              	dd	_tramaThread
  1966 00000C04 6689C3                  	mov	ebx, eax
  1967 00000C07 6689DE                  	mov	esi, ebx
  1968 00000C0A 66C1CE04                	ror	esi, 4
  1969 00000C0E 8EDE                    	mov	ds, si
  1970 00000C10 66C1EE1C                	shr	esi, 28
  1971 00000C14 668B04                  	mov	eax, [si]
  1972 00000C17 6683C01C                	add	eax, 28
  1973 00000C1B 6689C3                  	mov	ebx, eax
  1974 00000C1E 6689DE                  	mov	esi, ebx
  1975 00000C21 66C1CE04                	ror	esi, 4
  1976 00000C25 8EDE                    	mov	ds, si
  1977 00000C27 66C1EE1C                	shr	esi, 28
  1978 00000C2B 8B04                    	mov	ax, [si]
  1979 00000C2D 660FB7C0                	movzx	eax, ax
  1980 00000C31 8946DC                  	mov	[bp-36], ax
  1981 00000C34 660FB7C0                	movzx	eax, ax
  1982                                  ; if
  1983                                  ; RPN'ized expression: "nbytes 0 == "
  1984                                  ; Expanded expression: "(@-36) *(2) 0 == "
  1985                                  ; Fused expression:    "== *(@-36) 0 IF! "
  1986 00000C38 8B46DC                  	mov	ax, [bp-36]
  1987 00000C3B 660FB7C0                	movzx	eax, ax
  1988 00000C3F 6683F800                	cmp	eax, 0
  1989 00000C43 750D                    	jne	L135
  1990                                  ; RPN'ized expression: "res 0 = "
  1991                                  ; Expanded expression: "(@-16) 0 =(4) "
  1992                                  ; Fused expression:    "=(204) *(@-16) 0 "
  1993 00000C45 66B800000000            	mov	eax, 0
  1994 00000C4B 668946F0                	mov	[bp-16], eax
  1995 00000C4F E9AD04                  	jmp	L136
  1996                                  L135:
  1997                                  ; else
  1998                                  ; {
  1999                                  ; RPN'ized expression: "dfs descProceso indProcesoActual + *u &u tfa -> *u df + *u &u dfs -> *u = "
  2000                                  ; Expanded expression: "(@-8) descProceso indProcesoActual *(4) 292 * + 164 + (@-4) *(4) 12 * + 4 + *(4) =(4) "
  2001                                  ; Fused expression:    "descProceso push-ax indProcesoActual * *ax 292 + *sp ax + ax 164 push-ax * *(@-4) 12 + *sp ax + ax 4 =(204) *(@-8) *ax "
  2002                                  section .relod
  2003 000000C0 [540C0000]              	dd	L137
  2004                                  section .text
  2005 00000C52 66B8                    	db	0x66, 0xB8
  2006                                  L137:
  2007 00000C54 [00000000]              	dd	_descProceso
  2008 00000C58 6650                    	push	eax
  2009                                  section .relod
  2010 000000C4 [5C0C0000]              	dd	L138
  2011                                  section .text
  2012 00000C5A 66B8                    	db	0x66, 0xB8
  2013                                  L138:
  2014 00000C5C [00000000]              	dd	_indProcesoActual
  2015 00000C60 6689C3                  	mov	ebx, eax
  2016 00000C63 6689DE                  	mov	esi, ebx
  2017 00000C66 66C1CE04                	ror	esi, 4
  2018 00000C6A 8EDE                    	mov	ds, si
  2019 00000C6C 66C1EE1C                	shr	esi, 28
  2020 00000C70 668B04                  	mov	eax, [si]
  2021 00000C73 6669C024010000          	imul	eax, eax, 292
  2022 00000C7A 6689C1                  	mov	ecx, eax
  2023 00000C7D 6658                    	pop	eax
  2024 00000C7F 6601C8                  	add	eax, ecx
  2025 00000C82 6605A4000000            	add	eax, 164
  2026 00000C88 6650                    	push	eax
  2027 00000C8A 668B46FC                	mov	eax, [bp-4]
  2028 00000C8E 666BC00C                	imul	eax, eax, 12
  2029 00000C92 6689C1                  	mov	ecx, eax
  2030 00000C95 6658                    	pop	eax
  2031 00000C97 6601C8                  	add	eax, ecx
  2032 00000C9A 6683C004                	add	eax, 4
  2033 00000C9E 6689C3                  	mov	ebx, eax
  2034 00000CA1 6689DE                  	mov	esi, ebx
  2035 00000CA4 66C1CE04                	ror	esi, 4
  2036 00000CA8 8EDE                    	mov	ds, si
  2037 00000CAA 66C1EE1C                	shr	esi, 28
  2038 00000CAE 668B04                  	mov	eax, [si]
  2039 00000CB1 668946F8                	mov	[bp-8], eax
  2040                                  ; if
  2041                                  ; RPN'ized expression: "0 dfs <= dfs 20 < && "
  2042                                  ; Expanded expression: "0 (@-8) *(4) <= [sh&&->141] (@-8) *(4) 20 < &&[141] "
  2043                                  ; Fused expression:    "<= 0 *(@-8) [sh&&->141] < *(@-8) 20 &&[141]  "
  2044 00000CB5 66B800000000            	mov	eax, 0
  2045 00000CBB 663B46F8                	cmp	eax, [bp-8]
  2046 00000CBF 0F9EC0                  	setle	al
  2047 00000CC2 660FB6C0                	movzx	eax, al
  2048                                  ; JumpIfZero
  2049 00000CC6 6685C0                  	test	eax, eax
  2050 00000CC9 740F                    	je	L141
  2051 00000CCB 668B46F8                	mov	eax, [bp-8]
  2052 00000CCF 6683F814                	cmp	eax, 20
  2053 00000CD3 0F9CC0                  	setl	al
  2054 00000CD6 660FB6C0                	movzx	eax, al
  2055                                  L141:
  2056                                  ; JumpIfZero
  2057 00000CDA 6685C0                  	test	eax, eax
  2058 00000CDD 0F841E04                	je	L139
  2059                                  ; {
  2060                                  ; RPN'ized expression: "rindx descFichero dfs + *u &u rindx -> *u = "
  2061                                  ; Expanded expression: "(@-20) descFichero (@-8) *(4) 36 * + 16 + *(4) =(4) "
  2062                                  ; Fused expression:    "descFichero push-ax * *(@-8) 36 + *sp ax + ax 16 =(204) *(@-20) *ax "
  2063                                  section .relod
  2064 000000C8 [E30C0000]              	dd	L142
  2065                                  section .text
  2066 00000CE1 66B8                    	db	0x66, 0xB8
  2067                                  L142:
  2068 00000CE3 [00000000]              	dd	_descFichero
  2069 00000CE7 6650                    	push	eax
  2070 00000CE9 668B46F8                	mov	eax, [bp-8]
  2071 00000CED 666BC024                	imul	eax, eax, 36
  2072 00000CF1 6689C1                  	mov	ecx, eax
  2073 00000CF4 6658                    	pop	eax
  2074 00000CF6 6601C8                  	add	eax, ecx
  2075 00000CF9 6683C010                	add	eax, 16
  2076 00000CFD 6689C3                  	mov	ebx, eax
  2077 00000D00 6689DE                  	mov	esi, ebx
  2078 00000D03 66C1CE04                	ror	esi, 4
  2079 00000D07 8EDE                    	mov	ds, si
  2080 00000D09 66C1EE1C                	shr	esi, 28
  2081 00000D0D 668B04                  	mov	eax, [si]
  2082 00000D10 668946EC                	mov	[bp-20], eax
  2083                                  ; if
  2084                                  ; RPN'ized expression: "0 rindx <= rindx 14 < && "
  2085                                  ; Expanded expression: "0 (@-20) *(4) <= [sh&&->145] (@-20) *(4) 14 < &&[145] "
  2086                                  ; Fused expression:    "<= 0 *(@-20) [sh&&->145] < *(@-20) 14 &&[145]  "
  2087 00000D14 66B800000000            	mov	eax, 0
  2088 00000D1A 663B46EC                	cmp	eax, [bp-20]
  2089 00000D1E 0F9EC0                  	setle	al
  2090 00000D21 660FB6C0                	movzx	eax, al
  2091                                  ; JumpIfZero
  2092 00000D25 6685C0                  	test	eax, eax
  2093 00000D28 740F                    	je	L145
  2094 00000D2A 668B46EC                	mov	eax, [bp-20]
  2095 00000D2E 6683F80E                	cmp	eax, 14
  2096 00000D32 0F9CC0                  	setl	al
  2097 00000D35 660FB6C0                	movzx	eax, al
  2098                                  L145:
  2099                                  ; JumpIfZero
  2100 00000D39 6685C0                  	test	eax, eax
  2101 00000D3C 7465                    	je	L143
  2102                                  ; RPN'ized expression: "modoAp descProceso indProcesoActual + *u &u tfa -> *u df + *u &u modoAp -> *u = "
  2103                                  ; Expanded expression: "(@-28) descProceso indProcesoActual *(4) 292 * + 164 + (@-4) *(4) 12 * + 0 + *(2) =(2) "
  2104                                  ; Fused expression:    "descProceso push-ax indProcesoActual * *ax 292 + *sp ax + ax 164 push-ax * *(@-4) 12 + *sp ax + ax 0 =(170) *(@-28) *ax "
  2105                                  section .relod
  2106 000000CC [400D0000]              	dd	L146
  2107                                  section .text
  2108 00000D3E 66B8                    	db	0x66, 0xB8
  2109                                  L146:
  2110 00000D40 [00000000]              	dd	_descProceso
  2111 00000D44 6650                    	push	eax
  2112                                  section .relod
  2113 000000D0 [480D0000]              	dd	L147
  2114                                  section .text
  2115 00000D46 66B8                    	db	0x66, 0xB8
  2116                                  L147:
  2117 00000D48 [00000000]              	dd	_indProcesoActual
  2118 00000D4C 6689C3                  	mov	ebx, eax
  2119 00000D4F 6689DE                  	mov	esi, ebx
  2120 00000D52 66C1CE04                	ror	esi, 4
  2121 00000D56 8EDE                    	mov	ds, si
  2122 00000D58 66C1EE1C                	shr	esi, 28
  2123 00000D5C 668B04                  	mov	eax, [si]
  2124 00000D5F 6669C024010000          	imul	eax, eax, 292
  2125 00000D66 6689C1                  	mov	ecx, eax
  2126 00000D69 6658                    	pop	eax
  2127 00000D6B 6601C8                  	add	eax, ecx
  2128 00000D6E 6605A4000000            	add	eax, 164
  2129 00000D74 6650                    	push	eax
  2130 00000D76 668B46FC                	mov	eax, [bp-4]
  2131 00000D7A 666BC00C                	imul	eax, eax, 12
  2132 00000D7E 6689C1                  	mov	ecx, eax
  2133 00000D81 6658                    	pop	eax
  2134 00000D83 6601C8                  	add	eax, ecx
  2135 00000D86 6689C3                  	mov	ebx, eax
  2136 00000D89 6689DE                  	mov	esi, ebx
  2137 00000D8C 66C1CE04                	ror	esi, 4
  2138 00000D90 8EDE                    	mov	ds, si
  2139 00000D92 66C1EE1C                	shr	esi, 28
  2140 00000D96 8B04                    	mov	ax, [si]
  2141 00000D98 660FB7C0                	movzx	eax, ax
  2142 00000D9C 8946E4                  	mov	[bp-28], ax
  2143 00000D9F 660FB7C0                	movzx	eax, ax
  2144                                  L143:
  2145                                  ; RPN'ized expression: "dir ( tramaThread tw -> *u &u DX -> *u , tramaThread tw -> *u &u ES -> *u pointer ) = "
  2146                                  ; Expanded expression: "(@-32)  tramaThread *(4) 0 + 24 + *(2)  tramaThread *(4) 0 + 2 + *(2)  pointer ()8 =(4) "
  2147                                  ; Fused expression:    "( tramaThread + *ax 0 + ax 24 *(2) ax , tramaThread + *ax 0 + ax 2 *(2) ax , pointer )8 =(204) *(@-32) ax "
  2148                                  section .relod
  2149 000000D4 [A50D0000]              	dd	L148
  2150                                  section .text
  2151 00000DA3 66B8                    	db	0x66, 0xB8
  2152                                  L148:
  2153 00000DA5 [00000000]              	dd	_tramaThread
  2154 00000DA9 6689C3                  	mov	ebx, eax
  2155 00000DAC 6689DE                  	mov	esi, ebx
  2156 00000DAF 66C1CE04                	ror	esi, 4
  2157 00000DB3 8EDE                    	mov	ds, si
  2158 00000DB5 66C1EE1C                	shr	esi, 28
  2159 00000DB9 668B04                  	mov	eax, [si]
  2160 00000DBC 6683C018                	add	eax, 24
  2161 00000DC0 6689C3                  	mov	ebx, eax
  2162 00000DC3 6689DE                  	mov	esi, ebx
  2163 00000DC6 66C1CE04                	ror	esi, 4
  2164 00000DCA 8EDE                    	mov	ds, si
  2165 00000DCC 66C1EE1C                	shr	esi, 28
  2166 00000DD0 8B04                    	mov	ax, [si]
  2167 00000DD2 660FB7C0                	movzx	eax, ax
  2168 00000DD6 6650                    	push	eax
  2169                                  section .relod
  2170 000000D8 [DA0D0000]              	dd	L149
  2171                                  section .text
  2172 00000DD8 66B8                    	db	0x66, 0xB8
  2173                                  L149:
  2174 00000DDA [00000000]              	dd	_tramaThread
  2175 00000DDE 6689C3                  	mov	ebx, eax
  2176 00000DE1 6689DE                  	mov	esi, ebx
  2177 00000DE4 66C1CE04                	ror	esi, 4
  2178 00000DE8 8EDE                    	mov	ds, si
  2179 00000DEA 66C1EE1C                	shr	esi, 28
  2180 00000DEE 668B04                  	mov	eax, [si]
  2181 00000DF1 6683C002                	add	eax, 2
  2182 00000DF5 6689C3                  	mov	ebx, eax
  2183 00000DF8 6689DE                  	mov	esi, ebx
  2184 00000DFB 66C1CE04                	ror	esi, 4
  2185 00000DFF 8EDE                    	mov	ds, si
  2186 00000E01 66C1EE1C                	shr	esi, 28
  2187 00000E05 8B04                    	mov	ax, [si]
  2188 00000E07 660FB7C0                	movzx	eax, ax
  2189 00000E0B 6650                    	push	eax
  2190 00000E0D 9A                      	db	0x9A
  2191                                  section .relot
  2192 00000024 [0E0E0000]              	dd	L150
  2193                                  section .text
  2194                                  L150:
  2195 00000E0E [00000000]              	dd	_pointer
  2196 00000E12 83ECF8                  	sub	sp, -8
  2197 00000E15 668946E0                	mov	[bp-32], eax
  2198                                  ; switch
  2199                                  ; RPN'ized expression: "tramaThread tb -> *u &u AL -> *u "
  2200                                  ; Expanded expression: "tramaThread *(4) 0 + 32 + *(1) "
  2201                                  ; Fused expression:    "tramaThread + *ax 0 + ax 32 *(1) ax  "
  2202                                  section .relod
  2203 000000DC [1B0E0000]              	dd	L153
  2204                                  section .text
  2205 00000E19 66B8                    	db	0x66, 0xB8
  2206                                  L153:
  2207 00000E1B [00000000]              	dd	_tramaThread
  2208 00000E1F 6689C3                  	mov	ebx, eax
  2209 00000E22 6689DE                  	mov	esi, ebx
  2210 00000E25 66C1CE04                	ror	esi, 4
  2211 00000E29 8EDE                    	mov	ds, si
  2212 00000E2B 66C1EE1C                	shr	esi, 28
  2213 00000E2F 668B04                  	mov	eax, [si]
  2214 00000E32 6683C020                	add	eax, 32
  2215 00000E36 6689C3                  	mov	ebx, eax
  2216 00000E39 6689DE                  	mov	esi, ebx
  2217 00000E3C 66C1CE04                	ror	esi, 4
  2218 00000E40 8EDE                    	mov	ds, si
  2219 00000E42 66C1EE1C                	shr	esi, 28
  2220 00000E46 8A04                    	mov	al, [si]
  2221 00000E48 660FB6C0                	movzx	eax, al
  2222 00000E4C E91302                  	jmp	L152
  2223                                  ; {
  2224                                  ; case
  2225                                  ; RPN'ized expression: "2 "
  2226                                  ; Expanded expression: "2 "
  2227                                  ; Expression value: 2
  2228                                  L154:
  2229                                  ; case
  2230                                  ; RPN'ized expression: "3 "
  2231                                  ; Expanded expression: "3 "
  2232                                  ; Expression value: 3
  2233                                  L155:
  2234                                  ; if
  2235                                  ; RPN'ized expression: "modoAp 7 & 1 == "
  2236                                  ; Expanded expression: "(@-28) *(2) 7 & 1 == "
  2237                                  ; Fused expression:    "& *(@-28) 7 == ax 1 IF! "
  2238 00000E4F 8B46E4                  	mov	ax, [bp-28]
  2239 00000E52 660FB7C0                	movzx	eax, ax
  2240 00000E56 6683E007                	and	eax, 7
  2241 00000E5A 6683F801                	cmp	eax, 1
  2242 00000E5E 0F85F300                	jne	L156
  2243                                  ; {
  2244                                  ; if
  2245                                  ; RPN'ized expression: "tramaThread tb -> *u &u AL -> *u 2 == "
  2246                                  ; Expanded expression: "tramaThread *(4) 0 + 32 + *(1) 2 == "
  2247                                  ; Fused expression:    "tramaThread + *ax 0 + ax 32 == *ax 2 IF! "
  2248                                  section .relod
  2249 000000E0 [640E0000]              	dd	L160
  2250                                  section .text
  2251 00000E62 66B8                    	db	0x66, 0xB8
  2252                                  L160:
  2253 00000E64 [00000000]              	dd	_tramaThread
  2254 00000E68 6689C3                  	mov	ebx, eax
  2255 00000E6B 6689DE                  	mov	esi, ebx
  2256 00000E6E 66C1CE04                	ror	esi, 4
  2257 00000E72 8EDE                    	mov	ds, si
  2258 00000E74 66C1EE1C                	shr	esi, 28
  2259 00000E78 668B04                  	mov	eax, [si]
  2260 00000E7B 6683C020                	add	eax, 32
  2261 00000E7F 6689C3                  	mov	ebx, eax
  2262 00000E82 6689DE                  	mov	esi, ebx
  2263 00000E85 66C1CE04                	ror	esi, 4
  2264 00000E89 8EDE                    	mov	ds, si
  2265 00000E8B 66C1EE1C                	shr	esi, 28
  2266 00000E8F 8A04                    	mov	al, [si]
  2267 00000E91 660FB6C0                	movzx	eax, al
  2268 00000E95 6683F802                	cmp	eax, 2
  2269 00000E99 755E                    	jne	L158
  2270                                  ; RPN'ized expression: "res ( nbytes , dir , dfs descRecurso rindx + *u &u read -> *u ) = "
  2271                                  ; Expanded expression: "(@-16)  (@-36) *(2)  (@-32) *(4)  (@-8) *(4)  descRecurso (@-20) *(4) 96 * + 64 + *(4) ()12 =(4) "
  2272                                  ; Fused expression:    "( *(2) (@-36) , *(4) (@-32) , *(4) (@-8) , descRecurso push-ax * *(@-20) 96 + *sp ax + ax 64 *(4) ax )12 =(204) *(@-16) ax "
  2273 00000E9B 8B46DC                  	mov	ax, [bp-36]
  2274 00000E9E 660FB7C0                	movzx	eax, ax
  2275 00000EA2 6650                    	push	eax
  2276 00000EA4 66FF76E0                	push	dword [bp-32]
  2277 00000EA8 66FF76F8                	push	dword [bp-8]
  2278                                  section .relod
  2279 000000E4 [AE0E0000]              	dd	L161
  2280                                  section .text
  2281 00000EAC 66B8                    	db	0x66, 0xB8
  2282                                  L161:
  2283 00000EAE [00000000]              	dd	_descRecurso
  2284 00000EB2 6650                    	push	eax
  2285 00000EB4 668B46EC                	mov	eax, [bp-20]
  2286 00000EB8 666BC060                	imul	eax, eax, 96
  2287 00000EBC 6689C1                  	mov	ecx, eax
  2288 00000EBF 6658                    	pop	eax
  2289 00000EC1 6601C8                  	add	eax, ecx
  2290 00000EC4 6683C040                	add	eax, 64
  2291 00000EC8 6689C3                  	mov	ebx, eax
  2292 00000ECB 6689DE                  	mov	esi, ebx
  2293 00000ECE 66C1CE04                	ror	esi, 4
  2294 00000ED2 8EDE                    	mov	ds, si
  2295 00000ED4 66C1EE1C                	shr	esi, 28
  2296 00000ED8 668B04                  	mov	eax, [si]
  2297 00000EDB 9A                      	db	0x9A
  2298                                  section .relot
  2299 00000028 [DC0E0000]              	dd	L162
  2300                                  section .text
  2301                                  L162:
  2302 00000EDC [E00E0000]              	dd	L163
  2303                                  L163:
  2304 00000EE0 89E6                    	mov	si, sp
  2305 00000EE2 36830410                	add	word [ss:si], L164 - L163
  2306 00000EE6 66C1E00C                	shl	eax, 12
  2307 00000EEA C1C004                  	rol	ax, 4
  2308 00000EED 6650                    	push	eax
  2309 00000EEF CB                      	retf
  2310                                  L164:
  2311 00000EF0 83ECF4                  	sub	sp, -12
  2312 00000EF3 668946F0                	mov	[bp-16], eax
  2313 00000EF7 EB5C                    	jmp	L159
  2314                                  L158:
  2315                                  ; else
  2316                                  ; RPN'ized expression: "res ( nbytes , dir , dfs descRecurso rindx + *u &u aio_read -> *u ) = "
  2317                                  ; Expanded expression: "(@-16)  (@-36) *(2)  (@-32) *(4)  (@-8) *(4)  descRecurso (@-20) *(4) 96 * + 68 + *(4) ()12 =(4) "
  2318                                  ; Fused expression:    "( *(2) (@-36) , *(4) (@-32) , *(4) (@-8) , descRecurso push-ax * *(@-20) 96 + *sp ax + ax 68 *(4) ax )12 =(204) *(@-16) ax "
  2319 00000EF9 8B46DC                  	mov	ax, [bp-36]
  2320 00000EFC 660FB7C0                	movzx	eax, ax
  2321 00000F00 6650                    	push	eax
  2322 00000F02 66FF76E0                	push	dword [bp-32]
  2323 00000F06 66FF76F8                	push	dword [bp-8]
  2324                                  section .relod
  2325 000000E8 [0C0F0000]              	dd	L165
  2326                                  section .text
  2327 00000F0A 66B8                    	db	0x66, 0xB8
  2328                                  L165:
  2329 00000F0C [00000000]              	dd	_descRecurso
  2330 00000F10 6650                    	push	eax
  2331 00000F12 668B46EC                	mov	eax, [bp-20]
  2332 00000F16 666BC060                	imul	eax, eax, 96
  2333 00000F1A 6689C1                  	mov	ecx, eax
  2334 00000F1D 6658                    	pop	eax
  2335 00000F1F 6601C8                  	add	eax, ecx
  2336 00000F22 6683C044                	add	eax, 68
  2337 00000F26 6689C3                  	mov	ebx, eax
  2338 00000F29 6689DE                  	mov	esi, ebx
  2339 00000F2C 66C1CE04                	ror	esi, 4
  2340 00000F30 8EDE                    	mov	ds, si
  2341 00000F32 66C1EE1C                	shr	esi, 28
  2342 00000F36 668B04                  	mov	eax, [si]
  2343 00000F39 9A                      	db	0x9A
  2344                                  section .relot
  2345 0000002C [3A0F0000]              	dd	L166
  2346                                  section .text
  2347                                  L166:
  2348 00000F3A [3E0F0000]              	dd	L167
  2349                                  L167:
  2350 00000F3E 89E6                    	mov	si, sp
  2351 00000F40 36830410                	add	word [ss:si], L168 - L167
  2352 00000F44 66C1E00C                	shl	eax, 12
  2353 00000F48 C1C004                  	rol	ax, 4
  2354 00000F4B 6650                    	push	eax
  2355 00000F4D CB                      	retf
  2356                                  L168:
  2357 00000F4E 83ECF4                  	sub	sp, -12
  2358 00000F51 668946F0                	mov	[bp-16], eax
  2359                                  L159:
  2360                                  ; }
  2361                                  L156:
  2362                                  ; break
  2363 00000F55 E92A01                  	jmp	L151
  2364                                  ; case
  2365                                  ; RPN'ized expression: "4 "
  2366                                  ; Expanded expression: "4 "
  2367                                  ; Expression value: 4
  2368                                  L169:
  2369                                  ; case
  2370                                  ; RPN'ized expression: "5 "
  2371                                  ; Expanded expression: "5 "
  2372                                  ; Expression value: 5
  2373                                  L170:
  2374                                  ; if
  2375                                  ; RPN'ized expression: "modoAp 7 & 2 == "
  2376                                  ; Expanded expression: "(@-28) *(2) 7 & 2 == "
  2377                                  ; Fused expression:    "& *(@-28) 7 == ax 2 IF! "
  2378 00000F58 8B46E4                  	mov	ax, [bp-28]
  2379 00000F5B 660FB7C0                	movzx	eax, ax
  2380 00000F5F 6683E007                	and	eax, 7
  2381 00000F63 6683F802                	cmp	eax, 2
  2382 00000F67 0F85F300                	jne	L171
  2383                                  ; {
  2384                                  ; if
  2385                                  ; RPN'ized expression: "tramaThread tb -> *u &u AL -> *u 4 == "
  2386                                  ; Expanded expression: "tramaThread *(4) 0 + 32 + *(1) 4 == "
  2387                                  ; Fused expression:    "tramaThread + *ax 0 + ax 32 == *ax 4 IF! "
  2388                                  section .relod
  2389 000000EC [6D0F0000]              	dd	L175
  2390                                  section .text
  2391 00000F6B 66B8                    	db	0x66, 0xB8
  2392                                  L175:
  2393 00000F6D [00000000]              	dd	_tramaThread
  2394 00000F71 6689C3                  	mov	ebx, eax
  2395 00000F74 6689DE                  	mov	esi, ebx
  2396 00000F77 66C1CE04                	ror	esi, 4
  2397 00000F7B 8EDE                    	mov	ds, si
  2398 00000F7D 66C1EE1C                	shr	esi, 28
  2399 00000F81 668B04                  	mov	eax, [si]
  2400 00000F84 6683C020                	add	eax, 32
  2401 00000F88 6689C3                  	mov	ebx, eax
  2402 00000F8B 6689DE                  	mov	esi, ebx
  2403 00000F8E 66C1CE04                	ror	esi, 4
  2404 00000F92 8EDE                    	mov	ds, si
  2405 00000F94 66C1EE1C                	shr	esi, 28
  2406 00000F98 8A04                    	mov	al, [si]
  2407 00000F9A 660FB6C0                	movzx	eax, al
  2408 00000F9E 6683F804                	cmp	eax, 4
  2409 00000FA2 755E                    	jne	L173
  2410                                  ; RPN'ized expression: "res ( nbytes , dir , dfs descRecurso rindx + *u &u write -> *u ) = "
  2411                                  ; Expanded expression: "(@-16)  (@-36) *(2)  (@-32) *(4)  (@-8) *(4)  descRecurso (@-20) *(4) 96 * + 72 + *(4) ()12 =(4) "
  2412                                  ; Fused expression:    "( *(2) (@-36) , *(4) (@-32) , *(4) (@-8) , descRecurso push-ax * *(@-20) 96 + *sp ax + ax 72 *(4) ax )12 =(204) *(@-16) ax "
  2413 00000FA4 8B46DC                  	mov	ax, [bp-36]
  2414 00000FA7 660FB7C0                	movzx	eax, ax
  2415 00000FAB 6650                    	push	eax
  2416 00000FAD 66FF76E0                	push	dword [bp-32]
  2417 00000FB1 66FF76F8                	push	dword [bp-8]
  2418                                  section .relod
  2419 000000F0 [B70F0000]              	dd	L176
  2420                                  section .text
  2421 00000FB5 66B8                    	db	0x66, 0xB8
  2422                                  L176:
  2423 00000FB7 [00000000]              	dd	_descRecurso
  2424 00000FBB 6650                    	push	eax
  2425 00000FBD 668B46EC                	mov	eax, [bp-20]
  2426 00000FC1 666BC060                	imul	eax, eax, 96
  2427 00000FC5 6689C1                  	mov	ecx, eax
  2428 00000FC8 6658                    	pop	eax
  2429 00000FCA 6601C8                  	add	eax, ecx
  2430 00000FCD 6683C048                	add	eax, 72
  2431 00000FD1 6689C3                  	mov	ebx, eax
  2432 00000FD4 6689DE                  	mov	esi, ebx
  2433 00000FD7 66C1CE04                	ror	esi, 4
  2434 00000FDB 8EDE                    	mov	ds, si
  2435 00000FDD 66C1EE1C                	shr	esi, 28
  2436 00000FE1 668B04                  	mov	eax, [si]
  2437 00000FE4 9A                      	db	0x9A
  2438                                  section .relot
  2439 00000030 [E50F0000]              	dd	L177
  2440                                  section .text
  2441                                  L177:
  2442 00000FE5 [E90F0000]              	dd	L178
  2443                                  L178:
  2444 00000FE9 89E6                    	mov	si, sp
  2445 00000FEB 36830410                	add	word [ss:si], L179 - L178
  2446 00000FEF 66C1E00C                	shl	eax, 12
  2447 00000FF3 C1C004                  	rol	ax, 4
  2448 00000FF6 6650                    	push	eax
  2449 00000FF8 CB                      	retf
  2450                                  L179:
  2451 00000FF9 83ECF4                  	sub	sp, -12
  2452 00000FFC 668946F0                	mov	[bp-16], eax
  2453 00001000 EB5C                    	jmp	L174
  2454                                  L173:
  2455                                  ; else
  2456                                  ; RPN'ized expression: "res ( nbytes , dir , dfs descRecurso rindx + *u &u aio_write -> *u ) = "
  2457                                  ; Expanded expression: "(@-16)  (@-36) *(2)  (@-32) *(4)  (@-8) *(4)  descRecurso (@-20) *(4) 96 * + 76 + *(4) ()12 =(4) "
  2458                                  ; Fused expression:    "( *(2) (@-36) , *(4) (@-32) , *(4) (@-8) , descRecurso push-ax * *(@-20) 96 + *sp ax + ax 76 *(4) ax )12 =(204) *(@-16) ax "
  2459 00001002 8B46DC                  	mov	ax, [bp-36]
  2460 00001005 660FB7C0                	movzx	eax, ax
  2461 00001009 6650                    	push	eax
  2462 0000100B 66FF76E0                	push	dword [bp-32]
  2463 0000100F 66FF76F8                	push	dword [bp-8]
  2464                                  section .relod
  2465 000000F4 [15100000]              	dd	L180
  2466                                  section .text
  2467 00001013 66B8                    	db	0x66, 0xB8
  2468                                  L180:
  2469 00001015 [00000000]              	dd	_descRecurso
  2470 00001019 6650                    	push	eax
  2471 0000101B 668B46EC                	mov	eax, [bp-20]
  2472 0000101F 666BC060                	imul	eax, eax, 96
  2473 00001023 6689C1                  	mov	ecx, eax
  2474 00001026 6658                    	pop	eax
  2475 00001028 6601C8                  	add	eax, ecx
  2476 0000102B 6683C04C                	add	eax, 76
  2477 0000102F 6689C3                  	mov	ebx, eax
  2478 00001032 6689DE                  	mov	esi, ebx
  2479 00001035 66C1CE04                	ror	esi, 4
  2480 00001039 8EDE                    	mov	ds, si
  2481 0000103B 66C1EE1C                	shr	esi, 28
  2482 0000103F 668B04                  	mov	eax, [si]
  2483 00001042 9A                      	db	0x9A
  2484                                  section .relot
  2485 00000034 [43100000]              	dd	L181
  2486                                  section .text
  2487                                  L181:
  2488 00001043 [47100000]              	dd	L182
  2489                                  L182:
  2490 00001047 89E6                    	mov	si, sp
  2491 00001049 36830410                	add	word [ss:si], L183 - L182
  2492 0000104D 66C1E00C                	shl	eax, 12
  2493 00001051 C1C004                  	rol	ax, 4
  2494 00001054 6650                    	push	eax
  2495 00001056 CB                      	retf
  2496                                  L183:
  2497 00001057 83ECF4                  	sub	sp, -12
  2498 0000105A 668946F0                	mov	[bp-16], eax
  2499                                  L174:
  2500                                  ; }
  2501                                  L171:
  2502                                  ; break
  2503 0000105E EB22                    	jmp	L151
  2504                                  ; }
  2505 00001060 EB20                    	jmp	L151
  2506                                  L152:
  2507 00001062 6683F802                	cmp	eax, 2
  2508 00001066 0F84E5FD                	je	L154
  2509 0000106A 6683F803                	cmp	eax, 3
  2510 0000106E 0F84DDFD                	je	L155
  2511 00001072 6683F804                	cmp	eax, 4
  2512 00001076 0F84DEFE                	je	L169
  2513 0000107A 6683F805                	cmp	eax, 5
  2514 0000107E 0F84D6FE                	je	L170
  2515                                  L151:
  2516                                  ; if
  2517                                  ; RPN'ized expression: "res 0 > "
  2518                                  ; Expanded expression: "(@-16) *(4) 0 > "
  2519                                  ; Fused expression:    "> *(@-16) 0 IF! "
  2520 00001082 668B46F0                	mov	eax, [bp-16]
  2521 00001086 6683F800                	cmp	eax, 0
  2522 0000108A 7E73                    	jle	L184
  2523                                  ; RPN'ized expression: "descProceso indProcesoActual + *u &u tfa -> *u df + *u &u pos -> *u res += "
  2524                                  ; Expanded expression: "descProceso indProcesoActual *(4) 292 * + 164 + (@-4) *(4) 12 * + 8 + (@-16) *(4) +=(4) "
  2525                                  ; Fused expression:    "descProceso push-ax indProcesoActual * *ax 292 + *sp ax + ax 164 push-ax * *(@-4) 12 + *sp ax + ax 8 +=(204) *ax *(@-16) "
  2526                                  section .relod
  2527 000000F8 [8E100000]              	dd	L186
  2528                                  section .text
  2529 0000108C 66B8                    	db	0x66, 0xB8
  2530                                  L186:
  2531 0000108E [00000000]              	dd	_descProceso
  2532 00001092 6650                    	push	eax
  2533                                  section .relod
  2534 000000FC [96100000]              	dd	L187
  2535                                  section .text
  2536 00001094 66B8                    	db	0x66, 0xB8
  2537                                  L187:
  2538 00001096 [00000000]              	dd	_indProcesoActual
  2539 0000109A 6689C3                  	mov	ebx, eax
  2540 0000109D 6689DE                  	mov	esi, ebx
  2541 000010A0 66C1CE04                	ror	esi, 4
  2542 000010A4 8EDE                    	mov	ds, si
  2543 000010A6 66C1EE1C                	shr	esi, 28
  2544 000010AA 668B04                  	mov	eax, [si]
  2545 000010AD 6669C024010000          	imul	eax, eax, 292
  2546 000010B4 6689C1                  	mov	ecx, eax
  2547 000010B7 6658                    	pop	eax
  2548 000010B9 6601C8                  	add	eax, ecx
  2549 000010BC 6605A4000000            	add	eax, 164
  2550 000010C2 6650                    	push	eax
  2551 000010C4 668B46FC                	mov	eax, [bp-4]
  2552 000010C8 666BC00C                	imul	eax, eax, 12
  2553 000010CC 6689C1                  	mov	ecx, eax
  2554 000010CF 6658                    	pop	eax
  2555 000010D1 6601C8                  	add	eax, ecx
  2556 000010D4 6683C008                	add	eax, 8
  2557 000010D8 6689C3                  	mov	ebx, eax
  2558 000010DB 6689DE                  	mov	esi, ebx
  2559 000010DE 66C1CE04                	ror	esi, 4
  2560 000010E2 8EDE                    	mov	ds, si
  2561 000010E4 66C1EE1C                	shr	esi, 28
  2562 000010E8 668B04                  	mov	eax, [si]
  2563 000010EB 660346F0                	add	eax, [bp-16]
  2564 000010EF 6689DE                  	mov	esi, ebx
  2565 000010F2 66C1CE04                	ror	esi, 4
  2566 000010F6 8EDE                    	mov	ds, si
  2567 000010F8 66C1EE1C                	shr	esi, 28
  2568 000010FC 668904                  	mov	[si], eax
  2569                                  L184:
  2570                                  ; }
  2571                                  L139:
  2572                                  ; }
  2573                                  L136:
  2574                                  ; }
  2575                                  L131:
  2576                                  ; RPN'ized expression: "tramaThread tw -> *u &u AX -> *u res = "
  2577                                  ; Expanded expression: "tramaThread *(4) 0 + 32 + (@-16) *(4) =(2) "
  2578                                  ; Fused expression:    "tramaThread + *ax 0 + ax 32 =(172) *ax *(@-16) "
  2579                                  section .relod
  2580 00000100 [01110000]              	dd	L188
  2581                                  section .text
  2582 000010FF 66B8                    	db	0x66, 0xB8
  2583                                  L188:
  2584 00001101 [00000000]              	dd	_tramaThread
  2585 00001105 6689C3                  	mov	ebx, eax
  2586 00001108 6689DE                  	mov	esi, ebx
  2587 0000110B 66C1CE04                	ror	esi, 4
  2588 0000110F 8EDE                    	mov	ds, si
  2589 00001111 66C1EE1C                	shr	esi, 28
  2590 00001115 668B04                  	mov	eax, [si]
  2591 00001118 6683C020                	add	eax, 32
  2592 0000111C 6689C3                  	mov	ebx, eax
  2593 0000111F 668B46F0                	mov	eax, [bp-16]
  2594 00001123 6689DE                  	mov	esi, ebx
  2595 00001126 66C1CE04                	ror	esi, 4
  2596 0000112A 8EDE                    	mov	ds, si
  2597 0000112C 66C1EE1C                	shr	esi, 28
  2598 00001130 8904                    	mov	[si], ax
  2599 00001132 660FB7C0                	movzx	eax, ax
  2600                                  ; break
  2601 00001136 E97808                  	jmp	L40
  2602                                  ; case
  2603                                  ; RPN'ized expression: "6 "
  2604                                  ; Expanded expression: "6 "
  2605                                  ; Expression value: 6
  2606                                  L189:
  2607                                  ; RPN'ized expression: "df tramaThread tw -> *u &u BX -> *u = "
  2608                                  ; Expanded expression: "(@-4) tramaThread *(4) 0 + 20 + *(2) =(4) "
  2609                                  ; Fused expression:    "tramaThread + *ax 0 + ax 20 =(202) *(@-4) *ax "
  2610                                  section .relod
  2611 00000104 [3B110000]              	dd	L190
  2612                                  section .text
  2613 00001139 66B8                    	db	0x66, 0xB8
  2614                                  L190:
  2615 0000113B [00000000]              	dd	_tramaThread
  2616 0000113F 6689C3                  	mov	ebx, eax
  2617 00001142 6689DE                  	mov	esi, ebx
  2618 00001145 66C1CE04                	ror	esi, 4
  2619 00001149 8EDE                    	mov	ds, si
  2620 0000114B 66C1EE1C                	shr	esi, 28
  2621 0000114F 668B04                  	mov	eax, [si]
  2622 00001152 6683C014                	add	eax, 20
  2623 00001156 6689C3                  	mov	ebx, eax
  2624 00001159 6689DE                  	mov	esi, ebx
  2625 0000115C 66C1CE04                	ror	esi, 4
  2626 00001160 8EDE                    	mov	ds, si
  2627 00001162 66C1EE1C                	shr	esi, 28
  2628 00001166 8B04                    	mov	ax, [si]
  2629 00001168 660FB7C0                	movzx	eax, ax
  2630 0000116C 668946FC                	mov	[bp-4], eax
  2631                                  ; loc         <something> : int
  2632                                  ; RPN'ized expression: "posNueva 1 -u (something191) = "
  2633                                  ; Expanded expression: "(@-40) -1 =(4) "
  2634                                  ; Fused expression:    "=(204) *(@-40) -1 "
  2635 00001170 66B8FFFFFFFF            	mov	eax, -1
  2636 00001176 668946D8                	mov	[bp-40], eax
  2637                                  ; if
  2638                                  ; RPN'ized expression: "0 df <= df 10 < && "
  2639                                  ; Expanded expression: "0 (@-4) *(4) <= [sh&&->194] (@-4) *(4) 10 < &&[194] "
  2640                                  ; Fused expression:    "<= 0 *(@-4) [sh&&->194] < *(@-4) 10 &&[194]  "
  2641 0000117A 66B800000000            	mov	eax, 0
  2642 00001180 663B46FC                	cmp	eax, [bp-4]
  2643 00001184 0F9EC0                  	setle	al
  2644 00001187 660FB6C0                	movzx	eax, al
  2645                                  ; JumpIfZero
  2646 0000118B 6685C0                  	test	eax, eax
  2647 0000118E 740F                    	je	L194
  2648 00001190 668B46FC                	mov	eax, [bp-4]
  2649 00001194 6683F80A                	cmp	eax, 10
  2650 00001198 0F9CC0                  	setl	al
  2651 0000119B 660FB6C0                	movzx	eax, al
  2652                                  L194:
  2653                                  ; JumpIfZero
  2654 0000119F 6685C0                  	test	eax, eax
  2655 000011A2 0F848B02                	je	L192
  2656                                  ; {
  2657                                  ; RPN'ized expression: "dfs descProceso indProcesoActual + *u &u tfa -> *u df + *u &u dfs -> *u = "
  2658                                  ; Expanded expression: "(@-8) descProceso indProcesoActual *(4) 292 * + 164 + (@-4) *(4) 12 * + 4 + *(4) =(4) "
  2659                                  ; Fused expression:    "descProceso push-ax indProcesoActual * *ax 292 + *sp ax + ax 164 push-ax * *(@-4) 12 + *sp ax + ax 4 =(204) *(@-8) *ax "
  2660                                  section .relod
  2661 00000108 [A8110000]              	dd	L195
  2662                                  section .text
  2663 000011A6 66B8                    	db	0x66, 0xB8
  2664                                  L195:
  2665 000011A8 [00000000]              	dd	_descProceso
  2666 000011AC 6650                    	push	eax
  2667                                  section .relod
  2668 0000010C [B0110000]              	dd	L196
  2669                                  section .text
  2670 000011AE 66B8                    	db	0x66, 0xB8
  2671                                  L196:
  2672 000011B0 [00000000]              	dd	_indProcesoActual
  2673 000011B4 6689C3                  	mov	ebx, eax
  2674 000011B7 6689DE                  	mov	esi, ebx
  2675 000011BA 66C1CE04                	ror	esi, 4
  2676 000011BE 8EDE                    	mov	ds, si
  2677 000011C0 66C1EE1C                	shr	esi, 28
  2678 000011C4 668B04                  	mov	eax, [si]
  2679 000011C7 6669C024010000          	imul	eax, eax, 292
  2680 000011CE 6689C1                  	mov	ecx, eax
  2681 000011D1 6658                    	pop	eax
  2682 000011D3 6601C8                  	add	eax, ecx
  2683 000011D6 6605A4000000            	add	eax, 164
  2684 000011DC 6650                    	push	eax
  2685 000011DE 668B46FC                	mov	eax, [bp-4]
  2686 000011E2 666BC00C                	imul	eax, eax, 12
  2687 000011E6 6689C1                  	mov	ecx, eax
  2688 000011E9 6658                    	pop	eax
  2689 000011EB 6601C8                  	add	eax, ecx
  2690 000011EE 6683C004                	add	eax, 4
  2691 000011F2 6689C3                  	mov	ebx, eax
  2692 000011F5 6689DE                  	mov	esi, ebx
  2693 000011F8 66C1CE04                	ror	esi, 4
  2694 000011FC 8EDE                    	mov	ds, si
  2695 000011FE 66C1EE1C                	shr	esi, 28
  2696 00001202 668B04                  	mov	eax, [si]
  2697 00001205 668946F8                	mov	[bp-8], eax
  2698                                  ; if
  2699                                  ; RPN'ized expression: "0 dfs <= dfs 20 < && "
  2700                                  ; Expanded expression: "0 (@-8) *(4) <= [sh&&->199] (@-8) *(4) 20 < &&[199] "
  2701                                  ; Fused expression:    "<= 0 *(@-8) [sh&&->199] < *(@-8) 20 &&[199]  "
  2702 00001209 66B800000000            	mov	eax, 0
  2703 0000120F 663B46F8                	cmp	eax, [bp-8]
  2704 00001213 0F9EC0                  	setle	al
  2705 00001216 660FB6C0                	movzx	eax, al
  2706                                  ; JumpIfZero
  2707 0000121A 6685C0                  	test	eax, eax
  2708 0000121D 740F                    	je	L199
  2709 0000121F 668B46F8                	mov	eax, [bp-8]
  2710 00001223 6683F814                	cmp	eax, 20
  2711 00001227 0F9CC0                  	setl	al
  2712 0000122A 660FB6C0                	movzx	eax, al
  2713                                  L199:
  2714                                  ; JumpIfZero
  2715 0000122E 6685C0                  	test	eax, eax
  2716 00001231 0F84FC01                	je	L197
  2717                                  ; {
  2718                                  ; RPN'ized expression: "rindx descFichero dfs + *u &u rindx -> *u = "
  2719                                  ; Expanded expression: "(@-20) descFichero (@-8) *(4) 36 * + 16 + *(4) =(4) "
  2720                                  ; Fused expression:    "descFichero push-ax * *(@-8) 36 + *sp ax + ax 16 =(204) *(@-20) *ax "
  2721                                  section .relod
  2722 00000110 [37120000]              	dd	L200
  2723                                  section .text
  2724 00001235 66B8                    	db	0x66, 0xB8
  2725                                  L200:
  2726 00001237 [00000000]              	dd	_descFichero
  2727 0000123B 6650                    	push	eax
  2728 0000123D 668B46F8                	mov	eax, [bp-8]
  2729 00001241 666BC024                	imul	eax, eax, 36
  2730 00001245 6689C1                  	mov	ecx, eax
  2731 00001248 6658                    	pop	eax
  2732 0000124A 6601C8                  	add	eax, ecx
  2733 0000124D 6683C010                	add	eax, 16
  2734 00001251 6689C3                  	mov	ebx, eax
  2735 00001254 6689DE                  	mov	esi, ebx
  2736 00001257 66C1CE04                	ror	esi, 4
  2737 0000125B 8EDE                    	mov	ds, si
  2738 0000125D 66C1EE1C                	shr	esi, 28
  2739 00001261 668B04                  	mov	eax, [si]
  2740 00001264 668946EC                	mov	[bp-20], eax
  2741                                  ; if
  2742                                  ; RPN'ized expression: "0 rindx <= rindx 14 < && "
  2743                                  ; Expanded expression: "0 (@-20) *(4) <= [sh&&->203] (@-20) *(4) 14 < &&[203] "
  2744                                  ; Fused expression:    "<= 0 *(@-20) [sh&&->203] < *(@-20) 14 &&[203]  "
  2745 00001268 66B800000000            	mov	eax, 0
  2746 0000126E 663B46EC                	cmp	eax, [bp-20]
  2747 00001272 0F9EC0                  	setle	al
  2748 00001275 660FB6C0                	movzx	eax, al
  2749                                  ; JumpIfZero
  2750 00001279 6685C0                  	test	eax, eax
  2751 0000127C 740F                    	je	L203
  2752 0000127E 668B46EC                	mov	eax, [bp-20]
  2753 00001282 6683F80E                	cmp	eax, 14
  2754 00001286 0F9CC0                  	setl	al
  2755 00001289 660FB6C0                	movzx	eax, al
  2756                                  L203:
  2757                                  ; JumpIfZero
  2758 0000128D 6685C0                  	test	eax, eax
  2759 00001290 0F849D01                	je	L201
  2760                                  ; {
  2761                                  ; loc                     <something> : int
  2762                                  ; RPN'ized expression: "pos ( tramaThread tw -> *u &u DX -> *u , tramaThread tw -> *u &u ES -> *u pointer ) (something204) = "
  2763                                  ; Expanded expression: "(@-44)  tramaThread *(4) 0 + 24 + *(2)  tramaThread *(4) 0 + 2 + *(2)  pointer ()8 =(4) "
  2764                                  ; Fused expression:    "( tramaThread + *ax 0 + ax 24 *(2) ax , tramaThread + *ax 0 + ax 2 *(2) ax , pointer )8 =(204) *(@-44) ax "
  2765                                  section .relod
  2766 00000114 [96120000]              	dd	L205
  2767                                  section .text
  2768 00001294 66B8                    	db	0x66, 0xB8
  2769                                  L205:
  2770 00001296 [00000000]              	dd	_tramaThread
  2771 0000129A 6689C3                  	mov	ebx, eax
  2772 0000129D 6689DE                  	mov	esi, ebx
  2773 000012A0 66C1CE04                	ror	esi, 4
  2774 000012A4 8EDE                    	mov	ds, si
  2775 000012A6 66C1EE1C                	shr	esi, 28
  2776 000012AA 668B04                  	mov	eax, [si]
  2777 000012AD 6683C018                	add	eax, 24
  2778 000012B1 6689C3                  	mov	ebx, eax
  2779 000012B4 6689DE                  	mov	esi, ebx
  2780 000012B7 66C1CE04                	ror	esi, 4
  2781 000012BB 8EDE                    	mov	ds, si
  2782 000012BD 66C1EE1C                	shr	esi, 28
  2783 000012C1 8B04                    	mov	ax, [si]
  2784 000012C3 660FB7C0                	movzx	eax, ax
  2785 000012C7 6650                    	push	eax
  2786                                  section .relod
  2787 00000118 [CB120000]              	dd	L206
  2788                                  section .text
  2789 000012C9 66B8                    	db	0x66, 0xB8
  2790                                  L206:
  2791 000012CB [00000000]              	dd	_tramaThread
  2792 000012CF 6689C3                  	mov	ebx, eax
  2793 000012D2 6689DE                  	mov	esi, ebx
  2794 000012D5 66C1CE04                	ror	esi, 4
  2795 000012D9 8EDE                    	mov	ds, si
  2796 000012DB 66C1EE1C                	shr	esi, 28
  2797 000012DF 668B04                  	mov	eax, [si]
  2798 000012E2 6683C002                	add	eax, 2
  2799 000012E6 6689C3                  	mov	ebx, eax
  2800 000012E9 6689DE                  	mov	esi, ebx
  2801 000012EC 66C1CE04                	ror	esi, 4
  2802 000012F0 8EDE                    	mov	ds, si
  2803 000012F2 66C1EE1C                	shr	esi, 28
  2804 000012F6 8B04                    	mov	ax, [si]
  2805 000012F8 660FB7C0                	movzx	eax, ax
  2806 000012FC 6650                    	push	eax
  2807 000012FE 9A                      	db	0x9A
  2808                                  section .relot
  2809 00000038 [FF120000]              	dd	L207
  2810                                  section .text
  2811                                  L207:
  2812 000012FF [00000000]              	dd	_pointer
  2813 00001303 83ECF8                  	sub	sp, -8
  2814 00001306 668946D4                	mov	[bp-44], eax
  2815                                  ; RPN'ized expression: "whence tramaThread tw -> *u &u CX -> *u = "
  2816                                  ; Expanded expression: "(@-48) tramaThread *(4) 0 + 28 + *(2) =(4) "
  2817                                  ; Fused expression:    "tramaThread + *ax 0 + ax 28 =(202) *(@-48) *ax "
  2818                                  section .relod
  2819 0000011C [0C130000]              	dd	L208
  2820                                  section .text
  2821 0000130A 66B8                    	db	0x66, 0xB8
  2822                                  L208:
  2823 0000130C [00000000]              	dd	_tramaThread
  2824 00001310 6689C3                  	mov	ebx, eax
  2825 00001313 6689DE                  	mov	esi, ebx
  2826 00001316 66C1CE04                	ror	esi, 4
  2827 0000131A 8EDE                    	mov	ds, si
  2828 0000131C 66C1EE1C                	shr	esi, 28
  2829 00001320 668B04                  	mov	eax, [si]
  2830 00001323 6683C01C                	add	eax, 28
  2831 00001327 6689C3                  	mov	ebx, eax
  2832 0000132A 6689DE                  	mov	esi, ebx
  2833 0000132D 66C1CE04                	ror	esi, 4
  2834 00001331 8EDE                    	mov	ds, si
  2835 00001333 66C1EE1C                	shr	esi, 28
  2836 00001337 8B04                    	mov	ax, [si]
  2837 00001339 660FB7C0                	movzx	eax, ax
  2838 0000133D 668946D0                	mov	[bp-48], eax
  2839                                  ; if
  2840                                  ; RPN'ized expression: "0 whence <= whence 2 <= && "
  2841                                  ; Expanded expression: "0 (@-48) *(4) <= [sh&&->211] (@-48) *(4) 2 <= &&[211] "
  2842                                  ; Fused expression:    "<= 0 *(@-48) [sh&&->211] <= *(@-48) 2 &&[211]  "
  2843 00001341 66B800000000            	mov	eax, 0
  2844 00001347 663B46D0                	cmp	eax, [bp-48]
  2845 0000134B 0F9EC0                  	setle	al
  2846 0000134E 660FB6C0                	movzx	eax, al
  2847                                  ; JumpIfZero
  2848 00001352 6685C0                  	test	eax, eax
  2849 00001355 740F                    	je	L211
  2850 00001357 668B46D0                	mov	eax, [bp-48]
  2851 0000135B 6683F802                	cmp	eax, 2
  2852 0000135F 0F9EC0                  	setle	al
  2853 00001362 660FB6C0                	movzx	eax, al
  2854                                  L211:
  2855                                  ; JumpIfZero
  2856 00001366 6685C0                  	test	eax, eax
  2857 00001369 0F84C400                	je	L209
  2858                                  ; {
  2859                                  ; RPN'ized expression: "posNueva ( whence , pos , dfs descRecurso rindx + *u &u lseek -> *u ) = "
  2860                                  ; Expanded expression: "(@-40)  (@-48) *(4)  (@-44) *(4)  (@-8) *(4)  descRecurso (@-20) *(4) 96 * + 80 + *(4) ()12 =(4) "
  2861                                  ; Fused expression:    "( *(4) (@-48) , *(4) (@-44) , *(4) (@-8) , descRecurso push-ax * *(@-20) 96 + *sp ax + ax 80 *(4) ax )12 =(204) *(@-40) ax "
  2862 0000136D 66FF76D0                	push	dword [bp-48]
  2863 00001371 66FF76D4                	push	dword [bp-44]
  2864 00001375 66FF76F8                	push	dword [bp-8]
  2865                                  section .relod
  2866 00000120 [7B130000]              	dd	L212
  2867                                  section .text
  2868 00001379 66B8                    	db	0x66, 0xB8
  2869                                  L212:
  2870 0000137B [00000000]              	dd	_descRecurso
  2871 0000137F 6650                    	push	eax
  2872 00001381 668B46EC                	mov	eax, [bp-20]
  2873 00001385 666BC060                	imul	eax, eax, 96
  2874 00001389 6689C1                  	mov	ecx, eax
  2875 0000138C 6658                    	pop	eax
  2876 0000138E 6601C8                  	add	eax, ecx
  2877 00001391 6683C050                	add	eax, 80
  2878 00001395 6689C3                  	mov	ebx, eax
  2879 00001398 6689DE                  	mov	esi, ebx
  2880 0000139B 66C1CE04                	ror	esi, 4
  2881 0000139F 8EDE                    	mov	ds, si
  2882 000013A1 66C1EE1C                	shr	esi, 28
  2883 000013A5 668B04                  	mov	eax, [si]
  2884 000013A8 9A                      	db	0x9A
  2885                                  section .relot
  2886 0000003C [A9130000]              	dd	L213
  2887                                  section .text
  2888                                  L213:
  2889 000013A9 [AD130000]              	dd	L214
  2890                                  L214:
  2891 000013AD 89E6                    	mov	si, sp
  2892 000013AF 36830410                	add	word [ss:si], L215 - L214
  2893 000013B3 66C1E00C                	shl	eax, 12
  2894 000013B7 C1C004                  	rol	ax, 4
  2895 000013BA 6650                    	push	eax
  2896 000013BC CB                      	retf
  2897                                  L215:
  2898 000013BD 83ECF4                  	sub	sp, -12
  2899 000013C0 668946D8                	mov	[bp-40], eax
  2900                                  ; if
  2901                                  ; loc                         <something> : int
  2902                                  ; RPN'ized expression: "posNueva 0 (something218) >= "
  2903                                  ; Expanded expression: "(@-40) *(4) 0 >= "
  2904                                  ; Fused expression:    ">= *(@-40) 0 IF! "
  2905 000013C4 668B46D8                	mov	eax, [bp-40]
  2906 000013C8 6683F800                	cmp	eax, 0
  2907 000013CC 7C63                    	jl	L216
  2908                                  ; RPN'ized expression: "descProceso indProcesoActual + *u &u tfa -> *u df + *u &u pos -> *u posNueva = "
  2909                                  ; Expanded expression: "descProceso indProcesoActual *(4) 292 * + 164 + (@-4) *(4) 12 * + 8 + (@-40) *(4) =(4) "
  2910                                  ; Fused expression:    "descProceso push-ax indProcesoActual * *ax 292 + *sp ax + ax 164 push-ax * *(@-4) 12 + *sp ax + ax 8 =(204) *ax *(@-40) "
  2911                                  section .relod
  2912 00000124 [D0130000]              	dd	L219
  2913                                  section .text
  2914 000013CE 66B8                    	db	0x66, 0xB8
  2915                                  L219:
  2916 000013D0 [00000000]              	dd	_descProceso
  2917 000013D4 6650                    	push	eax
  2918                                  section .relod
  2919 00000128 [D8130000]              	dd	L220
  2920                                  section .text
  2921 000013D6 66B8                    	db	0x66, 0xB8
  2922                                  L220:
  2923 000013D8 [00000000]              	dd	_indProcesoActual
  2924 000013DC 6689C3                  	mov	ebx, eax
  2925 000013DF 6689DE                  	mov	esi, ebx
  2926 000013E2 66C1CE04                	ror	esi, 4
  2927 000013E6 8EDE                    	mov	ds, si
  2928 000013E8 66C1EE1C                	shr	esi, 28
  2929 000013EC 668B04                  	mov	eax, [si]
  2930 000013EF 6669C024010000          	imul	eax, eax, 292
  2931 000013F6 6689C1                  	mov	ecx, eax
  2932 000013F9 6658                    	pop	eax
  2933 000013FB 6601C8                  	add	eax, ecx
  2934 000013FE 6605A4000000            	add	eax, 164
  2935 00001404 6650                    	push	eax
  2936 00001406 668B46FC                	mov	eax, [bp-4]
  2937 0000140A 666BC00C                	imul	eax, eax, 12
  2938 0000140E 6689C1                  	mov	ecx, eax
  2939 00001411 6658                    	pop	eax
  2940 00001413 6601C8                  	add	eax, ecx
  2941 00001416 6683C008                	add	eax, 8
  2942 0000141A 6689C3                  	mov	ebx, eax
  2943 0000141D 668B46D8                	mov	eax, [bp-40]
  2944 00001421 6689DE                  	mov	esi, ebx
  2945 00001424 66C1CE04                	ror	esi, 4
  2946 00001428 8EDE                    	mov	ds, si
  2947 0000142A 66C1EE1C                	shr	esi, 28
  2948 0000142E 668904                  	mov	[si], eax
  2949                                  L216:
  2950                                  ; }
  2951                                  L209:
  2952                                  ; }
  2953                                  L201:
  2954                                  ; }
  2955                                  L197:
  2956                                  ; }
  2957                                  L192:
  2958                                  ; loc         <something> : unsigned short
  2959                                  ; RPN'ized expression: "tramaThread tw -> *u &u AX -> *u posNueva (something221) = "
  2960                                  ; Expanded expression: "tramaThread *(4) 0 + 32 + (@-40) *(4) unsigned short =(2) "
  2961                                  ; Fused expression:    "tramaThread + *ax 0 + ax 32 push-ax *(4) (@-40) unsigned short =(172) **sp ax "
  2962                                  section .relod
  2963 0000012C [33140000]              	dd	L222
  2964                                  section .text
  2965 00001431 66B8                    	db	0x66, 0xB8
  2966                                  L222:
  2967 00001433 [00000000]              	dd	_tramaThread
  2968 00001437 6689C3                  	mov	ebx, eax
  2969 0000143A 6689DE                  	mov	esi, ebx
  2970 0000143D 66C1CE04                	ror	esi, 4
  2971 00001441 8EDE                    	mov	ds, si
  2972 00001443 66C1EE1C                	shr	esi, 28
  2973 00001447 668B04                  	mov	eax, [si]
  2974 0000144A 6683C020                	add	eax, 32
  2975 0000144E 6650                    	push	eax
  2976 00001450 668B46D8                	mov	eax, [bp-40]
  2977 00001454 660FB7C0                	movzx	eax, ax
  2978 00001458 665B                    	pop	ebx
  2979 0000145A 6689DE                  	mov	esi, ebx
  2980 0000145D 66C1CE04                	ror	esi, 4
  2981 00001461 8EDE                    	mov	ds, si
  2982 00001463 66C1EE1C                	shr	esi, 28
  2983 00001467 8904                    	mov	[si], ax
  2984 00001469 660FB7C0                	movzx	eax, ax
  2985                                  ; loc         <something> : unsigned short
  2986                                  ; RPN'ized expression: "tramaThread tw -> *u &u BX -> *u posNueva 16 >> (something223) = "
  2987                                  ; Expanded expression: "tramaThread *(4) 0 + 20 + (@-40) *(4) 16 >> unsigned short =(2) "
  2988                                  ; Fused expression:    "tramaThread + *ax 0 + ax 20 push-ax >> *(@-40) 16 unsigned short =(172) **sp ax "
  2989                                  section .relod
  2990 00000130 [6F140000]              	dd	L224
  2991                                  section .text
  2992 0000146D 66B8                    	db	0x66, 0xB8
  2993                                  L224:
  2994 0000146F [00000000]              	dd	_tramaThread
  2995 00001473 6689C3                  	mov	ebx, eax
  2996 00001476 6689DE                  	mov	esi, ebx
  2997 00001479 66C1CE04                	ror	esi, 4
  2998 0000147D 8EDE                    	mov	ds, si
  2999 0000147F 66C1EE1C                	shr	esi, 28
  3000 00001483 668B04                  	mov	eax, [si]
  3001 00001486 6683C014                	add	eax, 20
  3002 0000148A 6650                    	push	eax
  3003 0000148C 668B46D8                	mov	eax, [bp-40]
  3004 00001490 66C1F810                	sar	eax, 16
  3005 00001494 660FB7C0                	movzx	eax, ax
  3006 00001498 665B                    	pop	ebx
  3007 0000149A 6689DE                  	mov	esi, ebx
  3008 0000149D 66C1CE04                	ror	esi, 4
  3009 000014A1 8EDE                    	mov	ds, si
  3010 000014A3 66C1EE1C                	shr	esi, 28
  3011 000014A7 8904                    	mov	[si], ax
  3012 000014A9 660FB7C0                	movzx	eax, ax
  3013                                  ; break
  3014 000014AD E90105                  	jmp	L40
  3015                                  ; case
  3016                                  ; RPN'ized expression: "7 "
  3017                                  ; Expanded expression: "7 "
  3018                                  ; Expression value: 7
  3019                                  L225:
  3020                                  ; RPN'ized expression: "df tramaThread tw -> *u &u BX -> *u = "
  3021                                  ; Expanded expression: "(@-4) tramaThread *(4) 0 + 20 + *(2) =(4) "
  3022                                  ; Fused expression:    "tramaThread + *ax 0 + ax 20 =(202) *(@-4) *ax "
  3023                                  section .relod
  3024 00000134 [B2140000]              	dd	L226
  3025                                  section .text
  3026 000014B0 66B8                    	db	0x66, 0xB8
  3027                                  L226:
  3028 000014B2 [00000000]              	dd	_tramaThread
  3029 000014B6 6689C3                  	mov	ebx, eax
  3030 000014B9 6689DE                  	mov	esi, ebx
  3031 000014BC 66C1CE04                	ror	esi, 4
  3032 000014C0 8EDE                    	mov	ds, si
  3033 000014C2 66C1EE1C                	shr	esi, 28
  3034 000014C6 668B04                  	mov	eax, [si]
  3035 000014C9 6683C014                	add	eax, 20
  3036 000014CD 6689C3                  	mov	ebx, eax
  3037 000014D0 6689DE                  	mov	esi, ebx
  3038 000014D3 66C1CE04                	ror	esi, 4
  3039 000014D7 8EDE                    	mov	ds, si
  3040 000014D9 66C1EE1C                	shr	esi, 28
  3041 000014DD 8B04                    	mov	ax, [si]
  3042 000014DF 660FB7C0                	movzx	eax, ax
  3043 000014E3 668946FC                	mov	[bp-4], eax
  3044                                  ; RPN'ized expression: "cmd tramaThread tw -> *u &u CX -> *u = "
  3045                                  ; Expanded expression: "(@-52) tramaThread *(4) 0 + 28 + *(2) =(2) "
  3046                                  ; Fused expression:    "tramaThread + *ax 0 + ax 28 =(170) *(@-52) *ax "
  3047                                  section .relod
  3048 00000138 [E9140000]              	dd	L227
  3049                                  section .text
  3050 000014E7 66B8                    	db	0x66, 0xB8
  3051                                  L227:
  3052 000014E9 [00000000]              	dd	_tramaThread
  3053 000014ED 6689C3                  	mov	ebx, eax
  3054 000014F0 6689DE                  	mov	esi, ebx
  3055 000014F3 66C1CE04                	ror	esi, 4
  3056 000014F7 8EDE                    	mov	ds, si
  3057 000014F9 66C1EE1C                	shr	esi, 28
  3058 000014FD 668B04                  	mov	eax, [si]
  3059 00001500 6683C01C                	add	eax, 28
  3060 00001504 6689C3                  	mov	ebx, eax
  3061 00001507 6689DE                  	mov	esi, ebx
  3062 0000150A 66C1CE04                	ror	esi, 4
  3063 0000150E 8EDE                    	mov	ds, si
  3064 00001510 66C1EE1C                	shr	esi, 28
  3065 00001514 8B04                    	mov	ax, [si]
  3066 00001516 660FB7C0                	movzx	eax, ax
  3067 0000151A 8946CC                  	mov	[bp-52], ax
  3068 0000151D 660FB7C0                	movzx	eax, ax
  3069                                  ; RPN'ized expression: "arg tramaThread tw -> *u &u DX -> *u = "
  3070                                  ; Expanded expression: "(@-56) tramaThread *(4) 0 + 24 + *(2) =(2) "
  3071                                  ; Fused expression:    "tramaThread + *ax 0 + ax 24 =(170) *(@-56) *ax "
  3072                                  section .relod
  3073 0000013C [23150000]              	dd	L228
  3074                                  section .text
  3075 00001521 66B8                    	db	0x66, 0xB8
  3076                                  L228:
  3077 00001523 [00000000]              	dd	_tramaThread
  3078 00001527 6689C3                  	mov	ebx, eax
  3079 0000152A 6689DE                  	mov	esi, ebx
  3080 0000152D 66C1CE04                	ror	esi, 4
  3081 00001531 8EDE                    	mov	ds, si
  3082 00001533 66C1EE1C                	shr	esi, 28
  3083 00001537 668B04                  	mov	eax, [si]
  3084 0000153A 6683C018                	add	eax, 24
  3085 0000153E 6689C3                  	mov	ebx, eax
  3086 00001541 6689DE                  	mov	esi, ebx
  3087 00001544 66C1CE04                	ror	esi, 4
  3088 00001548 8EDE                    	mov	ds, si
  3089 0000154A 66C1EE1C                	shr	esi, 28
  3090 0000154E 8B04                    	mov	ax, [si]
  3091 00001550 660FB7C0                	movzx	eax, ax
  3092 00001554 8946C8                  	mov	[bp-56], ax
  3093 00001557 660FB7C0                	movzx	eax, ax
  3094                                  ; RPN'ized expression: "res 1 -u = "
  3095                                  ; Expanded expression: "(@-16) -1 =(4) "
  3096                                  ; Fused expression:    "=(204) *(@-16) -1 "
  3097 0000155B 66B8FFFFFFFF            	mov	eax, -1
  3098 00001561 668946F0                	mov	[bp-16], eax
  3099                                  ; if
  3100                                  ; RPN'ized expression: "0 df <= df 10 < || "
  3101                                  ; Expanded expression: "0 (@-4) *(4) <= [sh||->231] (@-4) *(4) 10 < ||[231] "
  3102                                  ; Fused expression:    "<= 0 *(@-4) [sh||->231] < *(@-4) 10 ||[231]  "
  3103 00001565 66B800000000            	mov	eax, 0
  3104 0000156B 663B46FC                	cmp	eax, [bp-4]
  3105 0000156F 0F9EC0                  	setle	al
  3106 00001572 660FB6C0                	movzx	eax, al
  3107                                  ; JumpIfNotZero
  3108 00001576 6685C0                  	test	eax, eax
  3109 00001579 750F                    	jne	L231
  3110 0000157B 668B46FC                	mov	eax, [bp-4]
  3111 0000157F 6683F80A                	cmp	eax, 10
  3112 00001583 0F9CC0                  	setl	al
  3113 00001586 660FB6C0                	movzx	eax, al
  3114                                  L231:
  3115                                  ; JumpIfZero
  3116 0000158A 6685C0                  	test	eax, eax
  3117 0000158D 0F843301                	je	L229
  3118                                  ; {
  3119                                  ; RPN'ized expression: "modoAp descProceso indProcesoActual + *u &u tfa -> *u df + *u &u modoAp -> *u = "
  3120                                  ; Expanded expression: "(@-28) descProceso indProcesoActual *(4) 292 * + 164 + (@-4) *(4) 12 * + 0 + *(2) =(2) "
  3121                                  ; Fused expression:    "descProceso push-ax indProcesoActual * *ax 292 + *sp ax + ax 164 push-ax * *(@-4) 12 + *sp ax + ax 0 =(170) *(@-28) *ax "
  3122                                  section .relod
  3123 00000140 [93150000]              	dd	L232
  3124                                  section .text
  3125 00001591 66B8                    	db	0x66, 0xB8
  3126                                  L232:
  3127 00001593 [00000000]              	dd	_descProceso
  3128 00001597 6650                    	push	eax
  3129                                  section .relod
  3130 00000144 [9B150000]              	dd	L233
  3131                                  section .text
  3132 00001599 66B8                    	db	0x66, 0xB8
  3133                                  L233:
  3134 0000159B [00000000]              	dd	_indProcesoActual
  3135 0000159F 6689C3                  	mov	ebx, eax
  3136 000015A2 6689DE                  	mov	esi, ebx
  3137 000015A5 66C1CE04                	ror	esi, 4
  3138 000015A9 8EDE                    	mov	ds, si
  3139 000015AB 66C1EE1C                	shr	esi, 28
  3140 000015AF 668B04                  	mov	eax, [si]
  3141 000015B2 6669C024010000          	imul	eax, eax, 292
  3142 000015B9 6689C1                  	mov	ecx, eax
  3143 000015BC 6658                    	pop	eax
  3144 000015BE 6601C8                  	add	eax, ecx
  3145 000015C1 6605A4000000            	add	eax, 164
  3146 000015C7 6650                    	push	eax
  3147 000015C9 668B46FC                	mov	eax, [bp-4]
  3148 000015CD 666BC00C                	imul	eax, eax, 12
  3149 000015D1 6689C1                  	mov	ecx, eax
  3150 000015D4 6658                    	pop	eax
  3151 000015D6 6601C8                  	add	eax, ecx
  3152 000015D9 6689C3                  	mov	ebx, eax
  3153 000015DC 6689DE                  	mov	esi, ebx
  3154 000015DF 66C1CE04                	ror	esi, 4
  3155 000015E3 8EDE                    	mov	ds, si
  3156 000015E5 66C1EE1C                	shr	esi, 28
  3157 000015E9 8B04                    	mov	ax, [si]
  3158 000015EB 660FB7C0                	movzx	eax, ax
  3159 000015EF 8946E4                  	mov	[bp-28], ax
  3160 000015F2 660FB7C0                	movzx	eax, ax
  3161                                  ; RPN'ized expression: "res 0 = "
  3162                                  ; Expanded expression: "(@-16) 0 =(4) "
  3163                                  ; Fused expression:    "=(204) *(@-16) 0 "
  3164 000015F6 66B800000000            	mov	eax, 0
  3165 000015FC 668946F0                	mov	[bp-16], eax
  3166                                  ; if
  3167                                  ; RPN'ized expression: "cmd 1 == "
  3168                                  ; Expanded expression: "(@-52) *(2) 1 == "
  3169                                  ; Fused expression:    "== *(@-52) 1 IF! "
  3170 00001600 8B46CC                  	mov	ax, [bp-52]
  3171 00001603 660FB7C0                	movzx	eax, ax
  3172 00001607 6683F801                	cmp	eax, 1
  3173 0000160B 750E                    	jne	L234
  3174                                  ; RPN'ized expression: "res modoAp = "
  3175                                  ; Expanded expression: "(@-16) (@-28) *(2) =(4) "
  3176                                  ; Fused expression:    "=(202) *(@-16) *(@-28) "
  3177 0000160D 8B46E4                  	mov	ax, [bp-28]
  3178 00001610 660FB7C0                	movzx	eax, ax
  3179 00001614 668946F0                	mov	[bp-16], eax
  3180 00001618 E9A900                  	jmp	L235
  3181                                  L234:
  3182                                  ; else
  3183                                  ; if
  3184                                  ; RPN'ized expression: "cmd 2 == "
  3185                                  ; Expanded expression: "(@-52) *(2) 2 == "
  3186                                  ; Fused expression:    "== *(@-52) 2 IF! "
  3187 0000161B 8B46CC                  	mov	ax, [bp-52]
  3188 0000161E 660FB7C0                	movzx	eax, ax
  3189 00001622 6683F802                	cmp	eax, 2
  3190 00001626 0F859A00                	jne	L236
  3191                                  ; {
  3192                                  ; RPN'ized expression: "modoAp modoAp 2048 4096 | ~ & = "
  3193                                  ; Expanded expression: "(@-28) (@-28) *(2) -6145 & =(2) "
  3194                                  ; Fused expression:    "& *(@-28) -6145 =(172) *(@-28) ax "
  3195 0000162A 8B46E4                  	mov	ax, [bp-28]
  3196 0000162D 660FB7C0                	movzx	eax, ax
  3197 00001631 6625FFE7FFFF            	and	eax, -6145
  3198 00001637 8946E4                  	mov	[bp-28], ax
  3199 0000163A 660FB7C0                	movzx	eax, ax
  3200                                  ; RPN'ized expression: "modoAp modoAp arg 2048 4096 | & | = "
  3201                                  ; Expanded expression: "(@-28) (@-28) *(2) (@-56) *(2) 6144 & | =(2) "
  3202                                  ; Fused expression:    "& *(@-56) 6144 | *(@-28) ax =(172) *(@-28) ax "
  3203 0000163E 8B46C8                  	mov	ax, [bp-56]
  3204 00001641 660FB7C0                	movzx	eax, ax
  3205 00001645 662500180000            	and	eax, 6144
  3206 0000164B 6689C1                  	mov	ecx, eax
  3207 0000164E 8B46E4                  	mov	ax, [bp-28]
  3208 00001651 660FB7C0                	movzx	eax, ax
  3209 00001655 6609C8                  	or	eax, ecx
  3210 00001658 8946E4                  	mov	[bp-28], ax
  3211 0000165B 660FB7C0                	movzx	eax, ax
  3212                                  ; RPN'ized expression: "descProceso indProcesoActual + *u &u tfa -> *u df + *u &u modoAp -> *u modoAp = "
  3213                                  ; Expanded expression: "descProceso indProcesoActual *(4) 292 * + 164 + (@-4) *(4) 12 * + 0 + (@-28) *(2) =(2) "
  3214                                  ; Fused expression:    "descProceso push-ax indProcesoActual * *ax 292 + *sp ax + ax 164 push-ax * *(@-4) 12 + *sp ax + ax 0 =(170) *ax *(@-28) "
  3215                                  section .relod
  3216 00000148 [61160000]              	dd	L238
  3217                                  section .text
  3218 0000165F 66B8                    	db	0x66, 0xB8
  3219                                  L238:
  3220 00001661 [00000000]              	dd	_descProceso
  3221 00001665 6650                    	push	eax
  3222                                  section .relod
  3223 0000014C [69160000]              	dd	L239
  3224                                  section .text
  3225 00001667 66B8                    	db	0x66, 0xB8
  3226                                  L239:
  3227 00001669 [00000000]              	dd	_indProcesoActual
  3228 0000166D 6689C3                  	mov	ebx, eax
  3229 00001670 6689DE                  	mov	esi, ebx
  3230 00001673 66C1CE04                	ror	esi, 4
  3231 00001677 8EDE                    	mov	ds, si
  3232 00001679 66C1EE1C                	shr	esi, 28
  3233 0000167D 668B04                  	mov	eax, [si]
  3234 00001680 6669C024010000          	imul	eax, eax, 292
  3235 00001687 6689C1                  	mov	ecx, eax
  3236 0000168A 6658                    	pop	eax
  3237 0000168C 6601C8                  	add	eax, ecx
  3238 0000168F 6605A4000000            	add	eax, 164
  3239 00001695 6650                    	push	eax
  3240 00001697 668B46FC                	mov	eax, [bp-4]
  3241 0000169B 666BC00C                	imul	eax, eax, 12
  3242 0000169F 6689C1                  	mov	ecx, eax
  3243 000016A2 6658                    	pop	eax
  3244 000016A4 6601C8                  	add	eax, ecx
  3245 000016A7 6689C3                  	mov	ebx, eax
  3246 000016AA 8B46E4                  	mov	ax, [bp-28]
  3247 000016AD 660FB7C0                	movzx	eax, ax
  3248 000016B1 6689DE                  	mov	esi, ebx
  3249 000016B4 66C1CE04                	ror	esi, 4
  3250 000016B8 8EDE                    	mov	ds, si
  3251 000016BA 66C1EE1C                	shr	esi, 28
  3252 000016BE 8904                    	mov	[si], ax
  3253 000016C0 660FB7C0                	movzx	eax, ax
  3254                                  ; }
  3255                                  L236:
  3256                                  L235:
  3257                                  ; }
  3258                                  L229:
  3259                                  ; RPN'ized expression: "tramaThread tw -> *u &u AX -> *u res = "
  3260                                  ; Expanded expression: "tramaThread *(4) 0 + 32 + (@-16) *(4) =(2) "
  3261                                  ; Fused expression:    "tramaThread + *ax 0 + ax 32 =(172) *ax *(@-16) "
  3262                                  section .relod
  3263 00000150 [C6160000]              	dd	L240
  3264                                  section .text
  3265 000016C4 66B8                    	db	0x66, 0xB8
  3266                                  L240:
  3267 000016C6 [00000000]              	dd	_tramaThread
  3268 000016CA 6689C3                  	mov	ebx, eax
  3269 000016CD 6689DE                  	mov	esi, ebx
  3270 000016D0 66C1CE04                	ror	esi, 4
  3271 000016D4 8EDE                    	mov	ds, si
  3272 000016D6 66C1EE1C                	shr	esi, 28
  3273 000016DA 668B04                  	mov	eax, [si]
  3274 000016DD 6683C020                	add	eax, 32
  3275 000016E1 6689C3                  	mov	ebx, eax
  3276 000016E4 668B46F0                	mov	eax, [bp-16]
  3277 000016E8 6689DE                  	mov	esi, ebx
  3278 000016EB 66C1CE04                	ror	esi, 4
  3279 000016EF 8EDE                    	mov	ds, si
  3280 000016F1 66C1EE1C                	shr	esi, 28
  3281 000016F5 8904                    	mov	[si], ax
  3282 000016F7 660FB7C0                	movzx	eax, ax
  3283                                  ; break
  3284 000016FB E9B302                  	jmp	L40
  3285                                  ; case
  3286                                  ; RPN'ized expression: "8 "
  3287                                  ; Expanded expression: "8 "
  3288                                  ; Expression value: 8
  3289                                  L241:
  3290                                  ; RPN'ized expression: "df tramaThread tw -> *u &u BX -> *u = "
  3291                                  ; Expanded expression: "(@-4) tramaThread *(4) 0 + 20 + *(2) =(4) "
  3292                                  ; Fused expression:    "tramaThread + *ax 0 + ax 20 =(202) *(@-4) *ax "
  3293                                  section .relod
  3294 00000154 [00170000]              	dd	L242
  3295                                  section .text
  3296 000016FE 66B8                    	db	0x66, 0xB8
  3297                                  L242:
  3298 00001700 [00000000]              	dd	_tramaThread
  3299 00001704 6689C3                  	mov	ebx, eax
  3300 00001707 6689DE                  	mov	esi, ebx
  3301 0000170A 66C1CE04                	ror	esi, 4
  3302 0000170E 8EDE                    	mov	ds, si
  3303 00001710 66C1EE1C                	shr	esi, 28
  3304 00001714 668B04                  	mov	eax, [si]
  3305 00001717 6683C014                	add	eax, 20
  3306 0000171B 6689C3                  	mov	ebx, eax
  3307 0000171E 6689DE                  	mov	esi, ebx
  3308 00001721 66C1CE04                	ror	esi, 4
  3309 00001725 8EDE                    	mov	ds, si
  3310 00001727 66C1EE1C                	shr	esi, 28
  3311 0000172B 8B04                    	mov	ax, [si]
  3312 0000172D 660FB7C0                	movzx	eax, ax
  3313 00001731 668946FC                	mov	[bp-4], eax
  3314                                  ; RPN'ized expression: "cmd tramaThread tw -> *u &u CX -> *u = "
  3315                                  ; Expanded expression: "(@-52) tramaThread *(4) 0 + 28 + *(2) =(2) "
  3316                                  ; Fused expression:    "tramaThread + *ax 0 + ax 28 =(170) *(@-52) *ax "
  3317                                  section .relod
  3318 00000158 [37170000]              	dd	L243
  3319                                  section .text
  3320 00001735 66B8                    	db	0x66, 0xB8
  3321                                  L243:
  3322 00001737 [00000000]              	dd	_tramaThread
  3323 0000173B 6689C3                  	mov	ebx, eax
  3324 0000173E 6689DE                  	mov	esi, ebx
  3325 00001741 66C1CE04                	ror	esi, 4
  3326 00001745 8EDE                    	mov	ds, si
  3327 00001747 66C1EE1C                	shr	esi, 28
  3328 0000174B 668B04                  	mov	eax, [si]
  3329 0000174E 6683C01C                	add	eax, 28
  3330 00001752 6689C3                  	mov	ebx, eax
  3331 00001755 6689DE                  	mov	esi, ebx
  3332 00001758 66C1CE04                	ror	esi, 4
  3333 0000175C 8EDE                    	mov	ds, si
  3334 0000175E 66C1EE1C                	shr	esi, 28
  3335 00001762 8B04                    	mov	ax, [si]
  3336 00001764 660FB7C0                	movzx	eax, ax
  3337 00001768 8946CC                  	mov	[bp-52], ax
  3338 0000176B 660FB7C0                	movzx	eax, ax
  3339                                  ; RPN'ized expression: "arg tramaThread tw -> *u &u DX -> *u = "
  3340                                  ; Expanded expression: "(@-56) tramaThread *(4) 0 + 24 + *(2) =(2) "
  3341                                  ; Fused expression:    "tramaThread + *ax 0 + ax 24 =(170) *(@-56) *ax "
  3342                                  section .relod
  3343 0000015C [71170000]              	dd	L244
  3344                                  section .text
  3345 0000176F 66B8                    	db	0x66, 0xB8
  3346                                  L244:
  3347 00001771 [00000000]              	dd	_tramaThread
  3348 00001775 6689C3                  	mov	ebx, eax
  3349 00001778 6689DE                  	mov	esi, ebx
  3350 0000177B 66C1CE04                	ror	esi, 4
  3351 0000177F 8EDE                    	mov	ds, si
  3352 00001781 66C1EE1C                	shr	esi, 28
  3353 00001785 668B04                  	mov	eax, [si]
  3354 00001788 6683C018                	add	eax, 24
  3355 0000178C 6689C3                  	mov	ebx, eax
  3356 0000178F 6689DE                  	mov	esi, ebx
  3357 00001792 66C1CE04                	ror	esi, 4
  3358 00001796 8EDE                    	mov	ds, si
  3359 00001798 66C1EE1C                	shr	esi, 28
  3360 0000179C 8B04                    	mov	ax, [si]
  3361 0000179E 660FB7C0                	movzx	eax, ax
  3362 000017A2 8946C8                  	mov	[bp-56], ax
  3363 000017A5 660FB7C0                	movzx	eax, ax
  3364                                  ; RPN'ized expression: "res 1 -u = "
  3365                                  ; Expanded expression: "(@-16) -1 =(4) "
  3366                                  ; Fused expression:    "=(204) *(@-16) -1 "
  3367 000017A9 66B8FFFFFFFF            	mov	eax, -1
  3368 000017AF 668946F0                	mov	[bp-16], eax
  3369                                  ; if
  3370                                  ; RPN'ized expression: "0 df <= df 10 < || "
  3371                                  ; Expanded expression: "0 (@-4) *(4) <= [sh||->247] (@-4) *(4) 10 < ||[247] "
  3372                                  ; Fused expression:    "<= 0 *(@-4) [sh||->247] < *(@-4) 10 ||[247]  "
  3373 000017B3 66B800000000            	mov	eax, 0
  3374 000017B9 663B46FC                	cmp	eax, [bp-4]
  3375 000017BD 0F9EC0                  	setle	al
  3376 000017C0 660FB6C0                	movzx	eax, al
  3377                                  ; JumpIfNotZero
  3378 000017C4 6685C0                  	test	eax, eax
  3379 000017C7 750F                    	jne	L247
  3380 000017C9 668B46FC                	mov	eax, [bp-4]
  3381 000017CD 6683F80A                	cmp	eax, 10
  3382 000017D1 0F9CC0                  	setl	al
  3383 000017D4 660FB6C0                	movzx	eax, al
  3384                                  L247:
  3385                                  ; JumpIfZero
  3386 000017D8 6685C0                  	test	eax, eax
  3387 000017DB 0F844D01                	je	L245
  3388                                  ; {
  3389                                  ; RPN'ized expression: "dfs descProceso indProcesoActual + *u &u tfa -> *u df + *u &u dfs -> *u = "
  3390                                  ; Expanded expression: "(@-8) descProceso indProcesoActual *(4) 292 * + 164 + (@-4) *(4) 12 * + 4 + *(4) =(4) "
  3391                                  ; Fused expression:    "descProceso push-ax indProcesoActual * *ax 292 + *sp ax + ax 164 push-ax * *(@-4) 12 + *sp ax + ax 4 =(204) *(@-8) *ax "
  3392                                  section .relod
  3393 00000160 [E1170000]              	dd	L248
  3394                                  section .text
  3395 000017DF 66B8                    	db	0x66, 0xB8
  3396                                  L248:
  3397 000017E1 [00000000]              	dd	_descProceso
  3398 000017E5 6650                    	push	eax
  3399                                  section .relod
  3400 00000164 [E9170000]              	dd	L249
  3401                                  section .text
  3402 000017E7 66B8                    	db	0x66, 0xB8
  3403                                  L249:
  3404 000017E9 [00000000]              	dd	_indProcesoActual
  3405 000017ED 6689C3                  	mov	ebx, eax
  3406 000017F0 6689DE                  	mov	esi, ebx
  3407 000017F3 66C1CE04                	ror	esi, 4
  3408 000017F7 8EDE                    	mov	ds, si
  3409 000017F9 66C1EE1C                	shr	esi, 28
  3410 000017FD 668B04                  	mov	eax, [si]
  3411 00001800 6669C024010000          	imul	eax, eax, 292
  3412 00001807 6689C1                  	mov	ecx, eax
  3413 0000180A 6658                    	pop	eax
  3414 0000180C 6601C8                  	add	eax, ecx
  3415 0000180F 6605A4000000            	add	eax, 164
  3416 00001815 6650                    	push	eax
  3417 00001817 668B46FC                	mov	eax, [bp-4]
  3418 0000181B 666BC00C                	imul	eax, eax, 12
  3419 0000181F 6689C1                  	mov	ecx, eax
  3420 00001822 6658                    	pop	eax
  3421 00001824 6601C8                  	add	eax, ecx
  3422 00001827 6683C004                	add	eax, 4
  3423 0000182B 6689C3                  	mov	ebx, eax
  3424 0000182E 6689DE                  	mov	esi, ebx
  3425 00001831 66C1CE04                	ror	esi, 4
  3426 00001835 8EDE                    	mov	ds, si
  3427 00001837 66C1EE1C                	shr	esi, 28
  3428 0000183B 668B04                  	mov	eax, [si]
  3429 0000183E 668946F8                	mov	[bp-8], eax
  3430                                  ; if
  3431                                  ; RPN'ized expression: "0 dfs <= dfs 20 < && "
  3432                                  ; Expanded expression: "0 (@-8) *(4) <= [sh&&->252] (@-8) *(4) 20 < &&[252] "
  3433                                  ; Fused expression:    "<= 0 *(@-8) [sh&&->252] < *(@-8) 20 &&[252]  "
  3434 00001842 66B800000000            	mov	eax, 0
  3435 00001848 663B46F8                	cmp	eax, [bp-8]
  3436 0000184C 0F9EC0                  	setle	al
  3437 0000184F 660FB6C0                	movzx	eax, al
  3438                                  ; JumpIfZero
  3439 00001853 6685C0                  	test	eax, eax
  3440 00001856 740F                    	je	L252
  3441 00001858 668B46F8                	mov	eax, [bp-8]
  3442 0000185C 6683F814                	cmp	eax, 20
  3443 00001860 0F9CC0                  	setl	al
  3444 00001863 660FB6C0                	movzx	eax, al
  3445                                  L252:
  3446                                  ; JumpIfZero
  3447 00001867 6685C0                  	test	eax, eax
  3448 0000186A 0F84BE00                	je	L250
  3449                                  ; {
  3450                                  ; RPN'ized expression: "rindx descFichero dfs + *u &u rindx -> *u = "
  3451                                  ; Expanded expression: "(@-20) descFichero (@-8) *(4) 36 * + 16 + *(4) =(4) "
  3452                                  ; Fused expression:    "descFichero push-ax * *(@-8) 36 + *sp ax + ax 16 =(204) *(@-20) *ax "
  3453                                  section .relod
  3454 00000168 [70180000]              	dd	L253
  3455                                  section .text
  3456 0000186E 66B8                    	db	0x66, 0xB8
  3457                                  L253:
  3458 00001870 [00000000]              	dd	_descFichero
  3459 00001874 6650                    	push	eax
  3460 00001876 668B46F8                	mov	eax, [bp-8]
  3461 0000187A 666BC024                	imul	eax, eax, 36
  3462 0000187E 6689C1                  	mov	ecx, eax
  3463 00001881 6658                    	pop	eax
  3464 00001883 6601C8                  	add	eax, ecx
  3465 00001886 6683C010                	add	eax, 16
  3466 0000188A 6689C3                  	mov	ebx, eax
  3467 0000188D 6689DE                  	mov	esi, ebx
  3468 00001890 66C1CE04                	ror	esi, 4
  3469 00001894 8EDE                    	mov	ds, si
  3470 00001896 66C1EE1C                	shr	esi, 28
  3471 0000189A 668B04                  	mov	eax, [si]
  3472 0000189D 668946EC                	mov	[bp-20], eax
  3473                                  ; if
  3474                                  ; RPN'ized expression: "0 rindx <= rindx 14 < && "
  3475                                  ; Expanded expression: "0 (@-20) *(4) <= [sh&&->256] (@-20) *(4) 14 < &&[256] "
  3476                                  ; Fused expression:    "<= 0 *(@-20) [sh&&->256] < *(@-20) 14 &&[256]  "
  3477 000018A1 66B800000000            	mov	eax, 0
  3478 000018A7 663B46EC                	cmp	eax, [bp-20]
  3479 000018AB 0F9EC0                  	setle	al
  3480 000018AE 660FB6C0                	movzx	eax, al
  3481                                  ; JumpIfZero
  3482 000018B2 6685C0                  	test	eax, eax
  3483 000018B5 740F                    	je	L256
  3484 000018B7 668B46EC                	mov	eax, [bp-20]
  3485 000018BB 6683F80E                	cmp	eax, 14
  3486 000018BF 0F9CC0                  	setl	al
  3487 000018C2 660FB6C0                	movzx	eax, al
  3488                                  L256:
  3489                                  ; JumpIfZero
  3490 000018C6 6685C0                  	test	eax, eax
  3491 000018C9 7461                    	je	L254
  3492                                  ; {
  3493                                  ; RPN'ized expression: "res ( arg , cmd , dfs descRecurso rindx + *u &u ioctl -> *u ) = "
  3494                                  ; Expanded expression: "(@-16)  (@-56) *(2)  (@-52) *(2)  (@-8) *(4)  descRecurso (@-20) *(4) 96 * + 88 + *(4) ()12 =(4) "
  3495                                  ; Fused expression:    "( *(2) (@-56) , *(2) (@-52) , *(4) (@-8) , descRecurso push-ax * *(@-20) 96 + *sp ax + ax 88 *(4) ax )12 =(204) *(@-16) ax "
  3496 000018CB 8B46C8                  	mov	ax, [bp-56]
  3497 000018CE 660FB7C0                	movzx	eax, ax
  3498 000018D2 6650                    	push	eax
  3499 000018D4 8B46CC                  	mov	ax, [bp-52]
  3500 000018D7 660FB7C0                	movzx	eax, ax
  3501 000018DB 6650                    	push	eax
  3502 000018DD 66FF76F8                	push	dword [bp-8]
  3503                                  section .relod
  3504 0000016C [E3180000]              	dd	L257
  3505                                  section .text
  3506 000018E1 66B8                    	db	0x66, 0xB8
  3507                                  L257:
  3508 000018E3 [00000000]              	dd	_descRecurso
  3509 000018E7 6650                    	push	eax
  3510 000018E9 668B46EC                	mov	eax, [bp-20]
  3511 000018ED 666BC060                	imul	eax, eax, 96
  3512 000018F1 6689C1                  	mov	ecx, eax
  3513 000018F4 6658                    	pop	eax
  3514 000018F6 6601C8                  	add	eax, ecx
  3515 000018F9 6683C058                	add	eax, 88
  3516 000018FD 6689C3                  	mov	ebx, eax
  3517 00001900 6689DE                  	mov	esi, ebx
  3518 00001903 66C1CE04                	ror	esi, 4
  3519 00001907 8EDE                    	mov	ds, si
  3520 00001909 66C1EE1C                	shr	esi, 28
  3521 0000190D 668B04                  	mov	eax, [si]
  3522 00001910 9A                      	db	0x9A
  3523                                  section .relot
  3524 00000040 [11190000]              	dd	L258
  3525                                  section .text
  3526                                  L258:
  3527 00001911 [15190000]              	dd	L259
  3528                                  L259:
  3529 00001915 89E6                    	mov	si, sp
  3530 00001917 36830410                	add	word [ss:si], L260 - L259
  3531 0000191B 66C1E00C                	shl	eax, 12
  3532 0000191F C1C004                  	rol	ax, 4
  3533 00001922 6650                    	push	eax
  3534 00001924 CB                      	retf
  3535                                  L260:
  3536 00001925 83ECF4                  	sub	sp, -12
  3537 00001928 668946F0                	mov	[bp-16], eax
  3538                                  ; }
  3539                                  L254:
  3540                                  ; }
  3541                                  L250:
  3542                                  ; }
  3543                                  L245:
  3544                                  ; RPN'ized expression: "tramaThread tw -> *u &u AX -> *u res = "
  3545                                  ; Expanded expression: "tramaThread *(4) 0 + 32 + (@-16) *(4) =(2) "
  3546                                  ; Fused expression:    "tramaThread + *ax 0 + ax 32 =(172) *ax *(@-16) "
  3547                                  section .relod
  3548 00000170 [2E190000]              	dd	L261
  3549                                  section .text
  3550 0000192C 66B8                    	db	0x66, 0xB8
  3551                                  L261:
  3552 0000192E [00000000]              	dd	_tramaThread
  3553 00001932 6689C3                  	mov	ebx, eax
  3554 00001935 6689DE                  	mov	esi, ebx
  3555 00001938 66C1CE04                	ror	esi, 4
  3556 0000193C 8EDE                    	mov	ds, si
  3557 0000193E 66C1EE1C                	shr	esi, 28
  3558 00001942 668B04                  	mov	eax, [si]
  3559 00001945 6683C020                	add	eax, 32
  3560 00001949 6689C3                  	mov	ebx, eax
  3561 0000194C 668B46F0                	mov	eax, [bp-16]
  3562 00001950 6689DE                  	mov	esi, ebx
  3563 00001953 66C1CE04                	ror	esi, 4
  3564 00001957 8EDE                    	mov	ds, si
  3565 00001959 66C1EE1C                	shr	esi, 28
  3566 0000195D 8904                    	mov	[si], ax
  3567 0000195F 660FB7C0                	movzx	eax, ax
  3568                                  ; break
  3569 00001963 EB4C                    	jmp	L40
  3570                                  ; default
  3571                                  L262:
  3572                                  ; }
  3573 00001965 EB4A                    	jmp	L40
  3574                                  L41:
  3575 00001967 6683F800                	cmp	eax, 0
  3576 0000196B 0F843DE9                	je	L43
  3577 0000196F 6683F801                	cmp	eax, 1
  3578 00001973 0F84BCEE                	je	L98
  3579 00001977 6683F802                	cmp	eax, 2
  3580 0000197B 0F8412F2                	je	L126
  3581 0000197F 6683F803                	cmp	eax, 3
  3582 00001983 0F840AF2                	je	L127
  3583 00001987 6683F804                	cmp	eax, 4
  3584 0000198B 0F8402F2                	je	L128
  3585 0000198F 6683F805                	cmp	eax, 5
  3586 00001993 0F84FAF1                	je	L129
  3587 00001997 6683F806                	cmp	eax, 6
  3588 0000199B 0F849AF7                	je	L189
  3589 0000199F 6683F807                	cmp	eax, 7
  3590 000019A3 0F8409FB                	je	L225
  3591 000019A7 6683F808                	cmp	eax, 8
  3592 000019AB 0F844FFD                	je	L241
  3593 000019AF EBB4                    	jmp	L262
  3594                                  L40:
  3595                                  L38:
  3596 000019B1 66                      	db	0x66
  3597 000019B2 C9                      	leave
  3598 000019B3 CB                      	retf
  3599                                  L263:
  3600                                  
  3601                                  section .fxnsz
  3602 0000000C 47170000                	dd	L263 - _so1_manejador_02
  3603                                  
  3604                                  
  3605                                  	extern	_c2cPFR
  3606                                  	extern	_descFichero
  3607                                  	extern	_strcmp
  3608                                  	extern	_descProceso
  3609                                  	extern	_indProcesoActual
  3610                                  	extern	_strncmp
  3611                                  	extern	_tramaThread
  3612                                  	extern	_pointer
  3613                                  	extern	_descRecurso
  3614                                  
  3615                                  ; Syntax/declaration table/stack:
  3616                                  ; Bytes used: 9795/40960
  3617                                  
  3618                                  
  3619                                  ; Macro table:
  3620                                  ; Macro __SMALLER_C__ = `0x0100`
  3621                                  ; Macro __SMALLER_C_32__ = ``
  3622                                  ; Macro __HUGE__ = ``
  3623                                  ; Macro __SMALLER_C_SCHAR__ = ``
  3624                                  ; Bytes used: 74/5120
  3625                                  
  3626                                  
  3627                                  ; Identifier table:
  3628                                  ; Ident __floatsisf
  3629                                  ; Ident __floatunsisf
  3630                                  ; Ident __fixsfsi
  3631                                  ; Ident __fixunssfsi
  3632                                  ; Ident __addsf3
  3633                                  ; Ident __subsf3
  3634                                  ; Ident __negsf2
  3635                                  ; Ident __mulsf3
  3636                                  ; Ident __divsf3
  3637                                  ; Ident __lesf2
  3638                                  ; Ident __gesf2
  3639                                  ; Ident intptr_t
  3640                                  ; Ident uintptr_t
  3641                                  ; Ident intmax_t
  3642                                  ; Ident uintmax_t
  3643                                  ; Ident int8_t
  3644                                  ; Ident int_least8_t
  3645                                  ; Ident int_fast8_t
  3646                                  ; Ident uint8_t
  3647                                  ; Ident uint_least8_t
  3648                                  ; Ident uint_fast8_t
  3649                                  ; Ident int16_t
  3650                                  ; Ident int_least16_t
  3651                                  ; Ident int_fast16_t
  3652                                  ; Ident uint16_t
  3653                                  ; Ident uint_least16_t
  3654                                  ; Ident uint_fast16_t
  3655                                  ; Ident int32_t
  3656                                  ; Ident int_least32_t
  3657                                  ; Ident int_fast32_t
  3658                                  ; Ident uint32_t
  3659                                  ; Ident uint_least32_t
  3660                                  ; Ident uint_fast32_t
  3661                                  ; Ident <something>
  3662                                  ; Ident quot
  3663                                  ; Ident rem
  3664                                  ; Ident imaxdiv_t
  3665                                  ; Ident FALSE
  3666                                  ; Ident TRUE
  3667                                  ; Ident bool_t
  3668                                  ; Ident pointer_t
  3669                                  ; Ident funcion_t
  3670                                  ; Ident manejador_t
  3671                                  ; Ident rti_t
  3672                                  ; Ident isr_t
  3673                                  ; Ident handler_t
  3674                                  ; Ident retardarThread_t
  3675                                  ; Ident ptrTVI_t
  3676                                  ; Ident modoSO1_Bin
  3677                                  ; Ident modoSO1_Exe
  3678                                  ; Ident modoSO1_Bs
  3679                                  ; Ident modoSO1_t
  3680                                  ; Ident lo
  3681                                  ; Ident hi
  3682                                  ; Ident lh_t
  3683                                  ; Ident offset
  3684                                  ; Ident segment
  3685                                  ; Ident address_t
  3686                                  ; Ident ptr
  3687                                  ; Ident adr
  3688                                  ; Ident uPtrAdr_t
  3689                                  ; Ident pid_t
  3690                                  ; Ident tid_t
  3691                                  ; Ident uid_t
  3692                                  ; Ident gid_t
  3693                                  ; Ident pindx_t
  3694                                  ; Ident tindx_t
  3695                                  ; Ident df_t
  3696                                  ; Ident dfs_t
  3697                                  ; Ident rindx_t
  3698                                  ; Ident modoAp_t
  3699                                  ; Ident DS
  3700                                  ; Ident ES
  3701                                  ; Ident EDI
  3702                                  ; Ident ESI
  3703                                  ; Ident EBP
  3704                                  ; Ident ESP
  3705                                  ; Ident EBX
  3706                                  ; Ident EDX
  3707                                  ; Ident ECX
  3708                                  ; Ident EAX
  3709                                  ; Ident IP
  3710                                  ; Ident CS
  3711                                  ; Ident Flags
  3712                                  ; Ident tramaDWords_t
  3713                                  ; Ident DI
  3714                                  ; Ident rDI
  3715                                  ; Ident SI
  3716                                  ; Ident rSI
  3717                                  ; Ident BP
  3718                                  ; Ident rBP
  3719                                  ; Ident SP
  3720                                  ; Ident rSP
  3721                                  ; Ident BX
  3722                                  ; Ident rBX
  3723                                  ; Ident DX
  3724                                  ; Ident rDX
  3725                                  ; Ident CX
  3726                                  ; Ident rCX
  3727                                  ; Ident AX
  3728                                  ; Ident rAX
  3729                                  ; Ident tramaWords_t
  3730                                  ; Ident BL
  3731                                  ; Ident BH
  3732                                  ; Ident rB
  3733                                  ; Ident DL
  3734                                  ; Ident DH
  3735                                  ; Ident rD
  3736                                  ; Ident CL
  3737                                  ; Ident CH
  3738                                  ; Ident rC
  3739                                  ; Ident AL
  3740                                  ; Ident AH
  3741                                  ; Ident rA
  3742                                  ; Ident tramaBytes_t
  3743                                  ; Ident td
  3744                                  ; Ident tw
  3745                                  ; Ident tb
  3746                                  ; Ident trama_t
  3747                                  ; Ident tam
  3748                                  ; Ident sig
  3749                                  ; Ident ant
  3750                                  ; Ident aux
  3751                                  ; Ident relleno
  3752                                  ; Ident bloque_t
  3753                                  ; Ident ptrBloque_t
  3754                                  ; Ident cab
  3755                                  ; Ident dobleEnlace_t
  3756                                  ; Ident numElem
  3757                                  ; Ident primero
  3758                                  ; Ident cabecera
  3759                                  ; Ident e
  3760                                  ; Ident c2c_t
  3761                                  ; Ident posicionC2c
  3762                                  ; Ident i
  3763                                  ; Ident c2c
  3764                                  ; Ident eliminarC2c
  3765                                  ; Ident apilarC2c
  3766                                  ; Ident encolarC2c
  3767                                  ; Ident desencolarC2c
  3768                                  ; Ident inicializarC2c
  3769                                  ; Ident compartida
  3770                                  ; Ident ptrC2c_t
  3771                                  ; Ident posicionPC2c
  3772                                  ; Ident eliminarPC2c
  3773                                  ; Ident ptrC2c
  3774                                  ; Ident apilarPC2c
  3775                                  ; Ident encolarPC2c
  3776                                  ; Ident desencolarPC2c
  3777                                  ; Ident inicializarPC2c
  3778                                  ; Ident callBack_t
  3779                                  ; Ident arg
  3780                                  ; Ident num
  3781                                  ; Ident in
  3782                                  ; Ident out
  3783                                  ; Ident max
  3784                                  ; Ident callBack
  3785                                  ; Ident descCcb_t
  3786                                  ; Ident ccb_t
  3787                                  ; Ident inicCcb
  3788                                  ; Ident ccb
  3789                                  ; Ident encolarCcb
  3790                                  ; Ident cb
  3791                                  ; Ident desencolarCcb
  3792                                  ; Ident eliminarCcb
  3793                                  ; Ident eliminarSegCcb
  3794                                  ; Ident segmento
  3795                                  ; Ident vaciarCcb
  3796                                  ; Ident atenderCcb
  3797                                  ; Ident libre
  3798                                  ; Ident preparado
  3799                                  ; Ident ejecutandose
  3800                                  ; Ident bloqueado
  3801                                  ; Ident estado_t
  3802                                  ; Ident modoAp
  3803                                  ; Ident dfs
  3804                                  ; Ident pos
  3805                                  ; Ident dfa_t
  3806                                  ; Ident pid
  3807                                  ; Ident noStatus
  3808                                  ; Ident status
  3809                                  ; Ident ppindx
  3810                                  ; Ident hpindx
  3811                                  ; Ident c2cHijos
  3812                                  ; Ident c2cThreads
  3813                                  ; Ident CSProc
  3814                                  ; Ident tamCodigo
  3815                                  ; Ident desplBSS
  3816                                  ; Ident desplPila
  3817                                  ; Ident tamFichero
  3818                                  ; Ident programa
  3819                                  ; Ident comando
  3820                                  ; Ident nfa
  3821                                  ; Ident tfa
  3822                                  ; Ident uid
  3823                                  ; Ident gid
  3824                                  ; Ident descProceso_t
  3825                                  ; Ident tid
  3826                                  ; Ident estado
  3827                                  ; Ident esperandoPor
  3828                                  ; Ident trama
  3829                                  ; Ident ptindx
  3830                                  ; Ident htindx
  3831                                  ; Ident pindx
  3832                                  ; Ident SSThread
  3833                                  ; Ident SP0
  3834                                  ; Ident descThread_t
  3835                                  ; Ident flibre
  3836                                  ; Ident fRegular
  3837                                  ; Ident fedBloques
  3838                                  ; Ident fedCaracteres
  3839                                  ; Ident tuberia
  3840                                  ; Ident tipoFichero_t
  3841                                  ; Ident tipo
  3842                                  ; Ident nombre
  3843                                  ; Ident rindx
  3844                                  ; Ident menor
  3845                                  ; Ident shareMode
  3846                                  ; Ident contAp_L
  3847                                  ; Ident contAp_E
  3848                                  ; Ident descFichero_t
  3849                                  ; Ident rLibre
  3850                                  ; Ident rDCaracteres
  3851                                  ; Ident rDBloques
  3852                                  ; Ident rTuberia
  3853                                  ; Ident rGP
  3854                                  ; Ident rGM
  3855                                  ; Ident rSF
  3856                                  ; Ident rOtro
  3857                                  ; Ident tipoRecurso_t
  3858                                  ; Ident open_t
  3859                                  ; Ident modo
  3860                                  ; Ident release_t
  3861                                  ; Ident read_t
  3862                                  ; Ident dir
  3863                                  ; Ident nbytes
  3864                                  ; Ident aio_read_t
  3865                                  ; Ident write_t
  3866                                  ; Ident aio_write_t
  3867                                  ; Ident lseek_t
  3868                                  ; Ident whence
  3869                                  ; Ident fcntl_t
  3870                                  ; Ident cmd
  3871                                  ; Ident ioctl_t
  3872                                  ; Ident request
  3873                                  ; Ident eliminar_t
  3874                                  ; Ident tindx
  3875                                  ; Ident c2cFichRec
  3876                                  ; Ident numVI
  3877                                  ; Ident nVInt
  3878                                  ; Ident irq
  3879                                  ; Ident isr
  3880                                  ; Ident open
  3881                                  ; Ident release
  3882                                  ; Ident read
  3883                                  ; Ident aio_read
  3884                                  ; Ident write
  3885                                  ; Ident aio_write
  3886                                  ; Ident lseek
  3887                                  ; Ident fcntl
  3888                                  ; Ident ioctl
  3889                                  ; Ident eliminar
  3890                                  ; Ident descRecurso_t
  3891                                  ; Ident SP0_So1
  3892                                  ; Ident IMR
  3893                                  ; Ident modoSO1
  3894                                  ; Ident ptrDebugWord
  3895                                  ; Ident info_t
  3896                                  ; Ident signatura
  3897                                  ; Ident bytesUltSector
  3898                                  ; Ident sectores
  3899                                  ; Ident numDirReub
  3900                                  ; Ident numParCabecera
  3901                                  ; Ident minAlloc
  3902                                  ; Ident maxAlloc
  3903                                  ; Ident SS0
  3904                                  ; Ident checkSum
  3905                                  ; Ident IP0
  3906                                  ; Ident CS0
  3907                                  ; Ident offTablaReub
  3908                                  ; Ident numOverlay
  3909                                  ; Ident cabecera_t
  3910                                  ; Ident Libres
  3911                                  ; Ident Ocupados
  3912                                  ; Ident e2DescProceso
  3913                                  ; Ident e2DescThread
  3914                                  ; Ident e2DescFichero
  3915                                  ; Ident e2DescRecurso
  3916                                  ; Ident e2Hijos
  3917                                  ; Ident e2Threads
  3918                                  ; Ident e2Preparados
  3919                                  ; Ident e2Urgentes
  3920                                  ; Ident e2POrdenados
  3921                                  ; Ident e2TDormidos
  3922                                  ; Ident e2FichRec
  3923                                  ; Ident e2PFR_t
  3924                                  ; Ident DPLibres
  3925                                  ; Ident DPOcupados
  3926                                  ; Ident DTLibres
  3927                                  ; Ident DTOcupados
  3928                                  ; Ident TPreparados
  3929                                  ; Ident TUrgentes
  3930                                  ; Ident POrdenados
  3931                                  ; Ident TDormidos
  3932                                  ; Ident DFLibres
  3933                                  ; Ident DFOcupados
  3934                                  ; Ident DRLibres
  3935                                  ; Ident DROcupados
  3936                                  ; Ident numColasPFR
  3937                                  ; Ident cPFR_t
  3938                                  ; Ident sigThread_t
  3939                                  ; Ident activarThread_t
  3940                                  ; Ident buscarNuevoThreadActual_t
  3941                                  ; Ident bloquearThreadActual_t
  3942                                  ; Ident ptrIndProcesoActual
  3943                                  ; Ident ptrIndThreadActual
  3944                                  ; Ident ptrTramaThread
  3945                                  ; Ident ptrActivarAlEpilogo
  3946                                  ; Ident ptrDescProceso
  3947                                  ; Ident tamDescProceso
  3948                                  ; Ident ptrDescThread
  3949                                  ; Ident tamDescThread
  3950                                  ; Ident ptrDescFichero
  3951                                  ; Ident ptrDescRecurso
  3952                                  ; Ident ptrC2cPFR
  3953                                  ; Ident ptrE2PFR
  3954                                  ; Ident ptrNivelActivacionSO1H
  3955                                  ; Ident ptrEnHalt
  3956                                  ; Ident ptrHayTic
  3957                                  ; Ident ptrCcbAlEpilogo
  3958                                  ; Ident ptrSS_Thread
  3959                                  ; Ident ptrSP_Thread
  3960                                  ; Ident ptrSS_Kernel
  3961                                  ; Ident ptrSP0_Kernel
  3962                                  ; Ident SP0_SO1H
  3963                                  ; Ident ptrContRodajas
  3964                                  ; Ident ptrContTicsRodaja
  3965                                  ; Ident ptrVIOrg
  3966                                  ; Ident sigThread
  3967                                  ; Ident activarThread
  3968                                  ; Ident buscarNuevoThreadActual
  3969                                  ; Ident bloquearThreadActual
  3970                                  ; Ident ptrListaLibres
  3971                                  ; Ident ptrTamBloqueMax
  3972                                  ; Ident descSO1H_t
  3973                                  ; Ident descProcesoExt_t
  3974                                  ; Ident descThreadExt_t
  3975                                  ; Ident descProceso
  3976                                  ; Ident descThread
  3977                                  ; Ident descFichero
  3978                                  ; Ident descRecurso
  3979                                  ; Ident c2cPFR
  3980                                  ; Ident e2PFR
  3981                                  ; Ident descCcbAlEpilogo
  3982                                  ; Ident ccbAlEpilogo
  3983                                  ; Ident tramaThread
  3984                                  ; Ident tramaTarea
  3985                                  ; Ident indThreadActual
  3986                                  ; Ident indProcesoActual
  3987                                  ; Ident indThreadDeSuperficie
  3988                                  ; Ident contRodajas
  3989                                  ; Ident contTicsRodaja
  3990                                  ; Ident contadorTimer00
  3991                                  ; Ident contOcioso
  3992                                  ; Ident nuevoPid
  3993                                  ; Ident nuevoTid
  3994                                  ; Ident indice
  3995                                  ; Ident registrarEnPOrdenados
  3996                                  ; Ident crearThread
  3997                                  ; Ident funcion
  3998                                  ; Ident crearProceso
  3999                                  ; Ident tamFich
  4000                                  ; Ident inicProcesos
  4001                                  ; Ident resetPids
  4002                                  ; Ident resetTids
  4003                                  ; Ident terminarThreadIndx
  4004                                  ; Ident eliminarThreadIndx
  4005                                  ; Ident terminarProcIndx
  4006                                  ; Ident eliminarProcIndx
  4007                                  ; Ident matarThreadIndx
  4008                                  ; Ident matarProcIndx
  4009                                  ; Ident link_procs
  4010                                  ; Ident indiceTFAS
  4011                                  ; Ident indiceTFA
  4012                                  ; Ident nuevaEntradaTFA
  4013                                  ; Ident so1_manejador_02
  4014                                  ; Bytes used: 3963/16384
  4015                                  
  4016                                  ; Next label number: 264
  4017                                  ; Compilation succeeded.
