     1                                  bits 16
     2                                  
     3                                  ; glb intptr_t : int
     4                                  ; glb uintptr_t : unsigned
     5                                  ; glb intmax_t : int
     6                                  ; glb uintmax_t : unsigned
     7                                  ; glb int8_t : signed char
     8                                  ; glb int_least8_t : signed char
     9                                  ; glb int_fast8_t : signed char
    10                                  ; glb uint8_t : unsigned char
    11                                  ; glb uint_least8_t : unsigned char
    12                                  ; glb uint_fast8_t : unsigned char
    13                                  ; glb int16_t : short
    14                                  ; glb int_least16_t : short
    15                                  ; glb int_fast16_t : short
    16                                  ; glb uint16_t : unsigned short
    17                                  ; glb uint_least16_t : unsigned short
    18                                  ; glb uint_fast16_t : unsigned short
    19                                  ; glb int32_t : int
    20                                  ; glb int_least32_t : int
    21                                  ; glb int_fast32_t : int
    22                                  ; glb uint32_t : unsigned
    23                                  ; glb uint_least32_t : unsigned
    24                                  ; glb uint_fast32_t : unsigned
    25                                  ; glb imaxdiv_t : struct <something>
    26                                  ; glb bool_t : int
    27                                  ; glb pointer_t : * unsigned char
    28                                  ; glb funcion_t : * (
    29                                  ; prm     <something> : * void
    30                                  ;     ) * void
    31                                  ; glb manejador_t : * (void) void
    32                                  ; glb rti_t : * (void) void
    33                                  ; glb isr_t : * (void) void
    34                                  ; glb handler_t : * (void) void
    35                                  ; glb retardarThread_t : * (void) int
    36                                  ; glb ptrTVI_t : * * (void) void
    37                                  ; glb modoSO1_t : int
    38                                  ; glb lh_t : struct <something>
    39                                  ; glb address_t : struct <something>
    40                                  ; glb uPtrAdr_t : union <something>
    41                                  ; glb pid_t : int
    42                                  ; glb tid_t : int
    43                                  ; glb uid_t : int
    44                                  ; glb gid_t : int
    45                                  ; glb pindx_t : int
    46                                  ; glb tindx_t : int
    47                                  ; glb df_t : int
    48                                  ; glb dfs_t : int
    49                                  ; glb rindx_t : int
    50                                  ; glb tipoOrdenador : (void) unsigned char
    51                                  ; glb rebootLegacy : (void) void
    52                                  ; glb tipoTeclado : (void) unsigned char
    53                                  ; glb leerTeclaBIOS : (void) unsigned short
    54                                  ; glb leerTeclaExtBIOS : (void) unsigned short
    55                                  ; glb teclaListaBIOS : (void) unsigned short
    56                                  ; glb leerTeclaListaBDA : (void) unsigned short
    57                                  ; glb teclaListaBDA : (void) unsigned short
    58                                  ; glb printCarBIOS : (
    59                                  ; prm     car : char
    60                                  ;     ) int
    61                                  ; glb printCarPagBIOS : (
    62                                  ; prm     car : char
    63                                  ; prm     pag : unsigned char
    64                                  ;     ) int
    65                                  ; glb printCarAtrPagBIOS : (
    66                                  ; prm     car : char
    67                                  ; prm     atr : unsigned char
    68                                  ; prm     pag : unsigned char
    69                                  ;     ) int
    70                                  ; glb printLnBIOS : (void) int
    71                                  ; glb printStrBIOS : (
    72                                  ; prm     str : * char
    73                                  ;     ) int
    74                                  ; glb printStrHastaBIOS : (
    75                                  ; prm     str : * char
    76                                  ; prm     n : unsigned short
    77                                  ; prm     lleno : int
    78                                  ;     ) int
    79                                  ; glb printDecBIOS : (
    80                                  ; prm     num : unsigned short
    81                                  ; prm     l : unsigned short
    82                                  ;     ) int
    83                                  ; glb printLDecBIOS : (
    84                                  ; prm     num : unsigned
    85                                  ; prm     l : unsigned short
    86                                  ;     ) int
    87                                  ; glb printIntBIOS : (
    88                                  ; prm     num : short
    89                                  ; prm     l : unsigned short
    90                                  ;     ) int
    91                                  ; glb printLIntBIOS : (
    92                                  ; prm     num : int
    93                                  ; prm     l : unsigned short
    94                                  ;     ) int
    95                                  ; glb printHexBIOS : (
    96                                  ; prm     num : unsigned short
    97                                  ; prm     l : unsigned short
    98                                  ;     ) int
    99                                  ; glb printLHexBIOS : (
   100                                  ; prm     num : unsigned
   101                                  ; prm     l : unsigned short
   102                                  ;     ) int
   103                                  ; glb printBinBIOS : (
   104                                  ; prm     num : unsigned short
   105                                  ; prm     l : unsigned short
   106                                  ;     ) int
   107                                  ; glb printLBinBIOS : (
   108                                  ; prm     num : unsigned
   109                                  ; prm     l : unsigned short
   110                                  ;     ) int
   111                                  ; glb printPtrBIOS : (
   112                                  ; prm     ptr : * unsigned char
   113                                  ;     ) int
   114                                  ; glb printByteBIOS : (
   115                                  ; prm     b : unsigned char
   116                                  ;     ) int
   117                                  ; glb printWordBIOS : (
   118                                  ; prm     w : unsigned short
   119                                  ;     ) int
   120                                  ; glb printCadBIOS : (
   121                                  ; prm     cad : * char
   122                                  ;     ) int
   123                                  ; glb esperarTicsBIOS : (
   124                                  ; prm     tics : unsigned short
   125                                  ;     ) void
   126                                  ; glb modoDeVideo : (void) unsigned char
   127                                  ; glb establecerModoDeVideo : (
   128                                  ; prm     modo : unsigned char
   129                                  ;     ) void
   130                                  ; glb paginaActiva : (void) unsigned char
   131                                  ; glb establecerPaginaActiva : (
   132                                  ; prm     num : unsigned char
   133                                  ;     ) void
   134                                  ; glb numPagsVideo : (void) unsigned char
   135                                  ; glb scrollPagBDA : (
   136                                  ; prm     numLineas : unsigned char
   137                                  ; prm     pag : unsigned char
   138                                  ;     ) void
   139                                  ; glb scrollPagBIOS : (
   140                                  ; prm     numLineas : unsigned char
   141                                  ; prm     pag : unsigned char
   142                                  ;     ) void
   143                                  ; glb scrollBIOS : (
   144                                  ; prm     numLineas : unsigned char
   145                                  ;     ) void
   146                                  ; glb goToXYPag : (
   147                                  ; prm     fila : unsigned char
   148                                  ; prm     columna : unsigned char
   149                                  ; prm     pag : unsigned char
   150                                  ;     ) void
   151                                  ; glb goToXYBIOS : (
   152                                  ; prm     fila : unsigned char
   153                                  ; prm     columna : unsigned char
   154                                  ;     ) void
   155                                  ; glb setCursorBIOS : (
   156                                  ; prm     linea1 : unsigned char
   157                                  ; prm     linea2 : unsigned char
   158                                  ;     ) void
   159                                  ; glb ocultaCursorBIOS : (void) void
   160                                  ; glb readXYPagBIOS : (
   161                                  ; prm     fila : * unsigned char
   162                                  ; prm     columna : * unsigned char
   163                                  ; prm     linea1 : * unsigned char
   164                                  ; prm     linea2 : * unsigned char
   165                                  ; prm     pag : unsigned char
   166                                  ;     ) void
   167                                  ; glb readXYBIOS : (
   168                                  ; prm     fila : * unsigned char
   169                                  ; prm     columna : * unsigned char
   170                                  ; prm     linea1 : * unsigned char
   171                                  ; prm     linea2 : * unsigned char
   172                                  ;     ) void
   173                                  ; glb memBIOS : (void) unsigned short
   174                                  ; glb enviarBIOS : (
   175                                  ; prm     car : char
   176                                  ;     ) void
   177                                  ; glb recibirBIOS : (void) char
   178                                  ; glb hayApmBIOS : (
   179                                  ; prm     version : * unsigned short
   180                                  ;     ) int
   181                                  ; glb connectApmBIOS : (void) int
   182                                  ; glb disconnectApmBIOS : (void) int
   183                                  ; glb cpuIdleBIOS : (void) void
   184                                  ; glb cpuBusyBIOS : (void) void
   185                                  ; glb HWLIST_t : unsigned short
   186                                  ; glb KBDFLAGS_t : unsigned short
   187                                  ; glb KBDSTATUS_t : unsigned short
   188                                  ; glb VIDEOCONTROL_t : unsigned char
   189                                  ; glb DRECSTATUS_t : unsigned char
   190                                  ; glb DMOTORSTATUS_t : unsigned char
   191                                  ; glb FDOPSTATUS_t : unsigned char
   192                                  ; glb VIDEOSWITCHES_t : unsigned char
   193                                  ; glb VGAOPTIONS_t : unsigned char
   194                                  ; glb VIDEOSAVETBL_t : struct <something>
   195                                  ; RPN'ized expression: "4 "
   196                                  ; Expanded expression: "4 "
   197                                  ; Expression value: 4
   198                                  ; RPN'ized expression: "25 "
   199                                  ; Expanded expression: "25 "
   200                                  ; Expression value: 25
   201                                  ; RPN'ized expression: "20 "
   202                                  ; Expanded expression: "20 "
   203                                  ; Expression value: 20
   204                                  ; RPN'ized expression: "9 "
   205                                  ; Expanded expression: "9 "
   206                                  ; Expression value: 9
   207                                  ; glb VIDEOPARAM_t : struct <something>
   208                                  ; RPN'ized expression: "256 "
   209                                  ; Expanded expression: "256 "
   210                                  ; Expression value: 256
   211                                  ; RPN'ized expression: "4 "
   212                                  ; Expanded expression: "4 "
   213                                  ; Expression value: 4
   214                                  ; RPN'ized expression: "3 "
   215                                  ; Expanded expression: "3 "
   216                                  ; Expression value: 3
   217                                  ; RPN'ized expression: "16 "
   218                                  ; Expanded expression: "16 "
   219                                  ; Expression value: 16
   220                                  ; RPN'ized expression: "7 "
   221                                  ; Expanded expression: "7 "
   222                                  ; Expression value: 7
   223                                  ; RPN'ized expression: "8 "
   224                                  ; Expanded expression: "8 "
   225                                  ; Expression value: 8
   226                                  ; RPN'ized expression: "2 "
   227                                  ; Expanded expression: "2 "
   228                                  ; Expression value: 2
   229                                  ; RPN'ized expression: "2 "
   230                                  ; Expanded expression: "2 "
   231                                  ; Expression value: 2
   232                                  ; RPN'ized expression: "5 "
   233                                  ; Expanded expression: "5 "
   234                                  ; Expression value: 5
   235                                  ; RPN'ized expression: "2 "
   236                                  ; Expanded expression: "2 "
   237                                  ; Expression value: 2
   238                                  ; RPN'ized expression: "3 "
   239                                  ; Expanded expression: "3 "
   240                                  ; Expression value: 3
   241                                  ; RPN'ized expression: "4 "
   242                                  ; Expanded expression: "4 "
   243                                  ; Expression value: 4
   244                                  ; RPN'ized expression: "11 "
   245                                  ; Expanded expression: "11 "
   246                                  ; Expression value: 11
   247                                  ; RPN'ized expression: "7 "
   248                                  ; Expanded expression: "7 "
   249                                  ; Expression value: 7
   250                                  ; RPN'ized expression: "68 "
   251                                  ; Expanded expression: "68 "
   252                                  ; Expression value: 68
   253                                  ; RPN'ized expression: "16 "
   254                                  ; Expanded expression: "16 "
   255                                  ; Expression value: 16
   256                                  ; glb BIOSAREA_t : struct <something>
   257                                  ; glb ptrBiosArea : * struct <something>
   258                                  ; glb ptrFechaBios : * unsigned char
   259                                  ; glb salvarPantallaInicial : (void) void
   260                                  ; glb restaurarPantallaInicial : (void) void
   261                                  ; glb puntoDeParada : (void) void
   262                                  ; glb assert : (
   263                                  ; prm     condicion : int
   264                                  ; prm     str : * char
   265                                  ;     ) void
   266                                  ; glb valorFlags : (void) unsigned short
   267                                  ; glb mostrarFlags : (void) void
   268                                  ; glb debug_parar : int
   269                                  ; glb inportb : (
   270                                  ; prm     port : unsigned short
   271                                  ;     ) unsigned char
   272                                  ; glb inport : (
   273                                  ; prm     port : unsigned short
   274                                  ;     ) unsigned short
   275                                  ; glb outport : (
   276                                  ; prm     port : unsigned short
   277                                  ; prm     val : unsigned short
   278                                  ;     ) void
   279                                  ; glb outportb : (
   280                                  ; prm     port : unsigned short
   281                                  ; prm     val : unsigned char
   282                                  ;     ) void
   283                                  ; glb inportb_r : (
   284                                  ; prm     port : unsigned char
   285                                  ;     ) unsigned char
   286                                  ; glb outportb_r : (
   287                                  ; prm     port : unsigned char
   288                                  ; prm     val : unsigned char
   289                                  ;     ) void
   290                                  ; glb contadorTimer0 : (void) unsigned short
   291                                  ; glb ptrTVI : * * (void) void
   292                                  ; glb valorIMR : (void) unsigned short
   293                                  ; glb establecerIMR : (
   294                                  ; prm     nuevoIMR : unsigned short
   295                                  ;     ) void
   296                                  ; glb mask_pic1 : (
   297                                  ; prm     irq : unsigned char
   298                                  ;     ) void
   299                                  ; glb mask_pic2 : (
   300                                  ; prm     irq : unsigned char
   301                                  ;     ) void
   302                                  ; glb unmask_pic1 : (
   303                                  ; prm     irq : unsigned char
   304                                  ;     ) void
   305                                  ; glb unmask_pic2 : (
   306                                  ; prm     irq : unsigned char
   307                                  ;     ) void
   308                                  ; glb get_pic1_isr : (void) unsigned char
   309                                  ; glb get_pic2_isr : (void) unsigned char
   310                                  ; glb set_pics : (
   311                                  ; prm     irq0 : unsigned char
   312                                  ; prm     irq8 : unsigned char
   313                                  ;     ) void
   314                                  ; glb pic_setup : (void) void
   315                                  ; glb enable_hwirq : (
   316                                  ; prm     hwirq : int
   317                                  ; prm     rti : * (void) void
   318                                  ;     ) void
   319                                  ; glb _start__text : char
   320                                  ; glb _stop__text : char
   321                                  ; glb _start__rodata : char
   322                                  ; glb _stop__rodata : char
   323                                  ; glb _start__data : char
   324                                  ; glb _stop__data : char
   325                                  ; glb _start__bss : char
   326                                  ; glb _stop__bss : char
   327                                  ; glb _start_allcode__ : char
   328                                  ; glb _stop_allcode__ : char
   329                                  ; glb _start_alldata__ : char
   330                                  ; glb _stop_alldata__ : char
   331                                  ; glb mostrarSeccion : (
   332                                  ; prm     start : unsigned
   333                                  ; prm     stop : unsigned
   334                                  ; prm     descripcion : * char
   335                                  ;     ) void
   336                                  ; glb mostrarSecciones : (void) void
   337                                  ; glb modoAp_t : unsigned short
   338                                  ; glb tramaDWords_t : struct <something>
   339                                  ; glb tramaWords_t : struct <something>
   340                                  ; RPN'ized expression: "2 "
   341                                  ; Expanded expression: "2 "
   342                                  ; Expression value: 2
   343                                  ; RPN'ized expression: "2 "
   344                                  ; Expanded expression: "2 "
   345                                  ; Expression value: 2
   346                                  ; RPN'ized expression: "2 "
   347                                  ; Expanded expression: "2 "
   348                                  ; Expression value: 2
   349                                  ; RPN'ized expression: "2 "
   350                                  ; Expanded expression: "2 "
   351                                  ; Expression value: 2
   352                                  ; glb tramaBytes_t : struct <something>
   353                                  ; glb trama_t : union <something>
   354                                  ; RPN'ized expression: "8 "
   355                                  ; Expanded expression: "8 "
   356                                  ; Expression value: 8
   357                                  ; glb bloque_t : struct <something>
   358                                  ; glb ptrBloque_t : * struct <something>
   359                                  ; glb dobleEnlace_t : struct <something>
   360                                  ; glb c2c_t : struct <something>
   361                                  ; glb posicionC2c : (
   362                                  ; prm     i : int
   363                                  ; prm     c2c : struct <something>
   364                                  ;     ) int
   365                                  ; glb eliminarC2c : (
   366                                  ; prm     i : int
   367                                  ; prm     c2c : struct <something>
   368                                  ;     ) void
   369                                  ; glb apilarC2c : (
   370                                  ; prm     i : int
   371                                  ; prm     c2c : struct <something>
   372                                  ;     ) void
   373                                  ; glb encolarC2c : (
   374                                  ; prm     i : int
   375                                  ; prm     c2c : struct <something>
   376                                  ;     ) void
   377                                  ; glb desencolarC2c : (
   378                                  ; prm     c2c : struct <something>
   379                                  ;     ) int
   380                                  ; glb inicializarC2c : (
   381                                  ; prm     c2c : * struct <something>
   382                                  ; prm     e : * struct <something>
   383                                  ; prm     cabecera : int
   384                                  ; prm     compartida : int
   385                                  ;     ) void
   386                                  ; glb ptrC2c_t : * struct <something>
   387                                  ; glb posicionPC2c : (
   388                                  ; prm     i : int
   389                                  ; prm     c2c : * struct <something>
   390                                  ;     ) int
   391                                  ; glb eliminarPC2c : (
   392                                  ; prm     i : int
   393                                  ; prm     ptrC2c : * struct <something>
   394                                  ;     ) void
   395                                  ; glb apilarPC2c : (
   396                                  ; prm     i : int
   397                                  ; prm     ptrC2c : * struct <something>
   398                                  ;     ) void
   399                                  ; glb encolarPC2c : (
   400                                  ; prm     i : int
   401                                  ; prm     ptrC2c : * struct <something>
   402                                  ;     ) void
   403                                  ; glb desencolarPC2c : (
   404                                  ; prm     ptrC2c : * struct <something>
   405                                  ;     ) int
   406                                  ; glb inicializarPC2c : (
   407                                  ; prm     ptrC2c : * struct <something>
   408                                  ; prm     e : * struct <something>
   409                                  ; prm     cabecera : int
   410                                  ; prm     compartida : int
   411                                  ;     ) void
   412                                  ; glb callBack_t : * (
   413                                  ; prm     arg : * void
   414                                  ;     ) int
   415                                  ; RPN'ized expression: "10 "
   416                                  ; Expanded expression: "10 "
   417                                  ; Expression value: 10
   418                                  ; glb descCcb_t : struct <something>
   419                                  ; glb ccb_t : * struct <something>
   420                                  ; glb inicCcb : (
   421                                  ; prm     ccb : * struct <something>
   422                                  ; prm     max : unsigned short
   423                                  ;     ) int
   424                                  ; glb encolarCcb : (
   425                                  ; prm     cb : * (
   426                                  ; prm         arg : * void
   427                                  ;         ) int
   428                                  ; prm     ccb : * struct <something>
   429                                  ;     ) int
   430                                  ; glb desencolarCcb : (
   431                                  ; prm     ccb : * struct <something>
   432                                  ;     ) * (
   433                                  ; prm     arg : * void
   434                                  ;     ) int
   435                                  ; glb eliminarCcb : (
   436                                  ; prm     cb : * (
   437                                  ; prm         arg : * void
   438                                  ;         ) int
   439                                  ; prm     ccb : * struct <something>
   440                                  ;     ) int
   441                                  ; glb eliminarSegCcb : (
   442                                  ; prm     segmento : unsigned short
   443                                  ; prm     ccb : * struct <something>
   444                                  ;     ) int
   445                                  ; glb vaciarCcb : (
   446                                  ; prm     ccb : * struct <something>
   447                                  ;     ) int
   448                                  ; glb atenderCcb : (
   449                                  ; prm     ccb : * struct <something>
   450                                  ;     ) int
   451                                  ; glb estado_t : int
   452                                  ; glb dfa_t : struct <something>
   453                                  ; RPN'ized expression: "12 "
   454                                  ; Expanded expression: "12 "
   455                                  ; Expression value: 12
   456                                  ; RPN'ized expression: "80 "
   457                                  ; Expanded expression: "80 "
   458                                  ; Expression value: 80
   459                                  ; RPN'ized expression: "10 "
   460                                  ; Expanded expression: "10 "
   461                                  ; Expression value: 10
   462                                  ; glb descProceso_t : struct <something>
   463                                  ; glb descThread_t : struct <something>
   464                                  ; glb tipoFichero_t : int
   465                                  ; RPN'ized expression: "9 "
   466                                  ; Expanded expression: "9 "
   467                                  ; Expression value: 9
   468                                  ; glb descFichero_t : struct <something>
   469                                  ; glb tipoRecurso_t : int
   470                                  ; glb open_t : * (
   471                                  ; prm     dfs : int
   472                                  ; prm     modo : unsigned short
   473                                  ;     ) int
   474                                  ; glb release_t : * (
   475                                  ; prm     dfs : int
   476                                  ;     ) int
   477                                  ; glb read_t : * (
   478                                  ; prm     dfs : int
   479                                  ; prm     dir : * unsigned char
   480                                  ; prm     nbytes : unsigned short
   481                                  ;     ) int
   482                                  ; glb aio_read_t : * (
   483                                  ; prm     dfs : int
   484                                  ; prm     dir : * unsigned char
   485                                  ; prm     nbytes : unsigned short
   486                                  ;     ) int
   487                                  ; glb write_t : * (
   488                                  ; prm     dfs : int
   489                                  ; prm     dir : * unsigned char
   490                                  ; prm     nbytes : unsigned short
   491                                  ;     ) int
   492                                  ; glb aio_write_t : * (
   493                                  ; prm     dfs : int
   494                                  ; prm     dir : * unsigned char
   495                                  ; prm     nbytes : unsigned short
   496                                  ;     ) int
   497                                  ; glb lseek_t : * (
   498                                  ; prm     dfs : int
   499                                  ; prm     pos : int
   500                                  ; prm     whence : unsigned short
   501                                  ;     ) int
   502                                  ; glb fcntl_t : * (
   503                                  ; prm     dfs : int
   504                                  ; prm     cmd : unsigned short
   505                                  ; prm     arg : unsigned short
   506                                  ;     ) int
   507                                  ; glb ioctl_t : * (
   508                                  ; prm     dfs : int
   509                                  ; prm     request : unsigned short
   510                                  ; prm     arg : unsigned short
   511                                  ;     ) int
   512                                  ; glb eliminar_t : * (
   513                                  ; prm     pindx : int
   514                                  ;     ) int
   515                                  ; RPN'ized expression: "12 "
   516                                  ; Expanded expression: "12 "
   517                                  ; Expression value: 12
   518                                  ; RPN'ized expression: "2 "
   519                                  ; Expanded expression: "2 "
   520                                  ; Expression value: 2
   521                                  ; RPN'ized expression: "2 "
   522                                  ; Expanded expression: "2 "
   523                                  ; Expression value: 2
   524                                  ; RPN'ized expression: "2 "
   525                                  ; Expanded expression: "2 "
   526                                  ; Expression value: 2
   527                                  ; glb descRecurso_t : struct <something>
   528                                  ; glb info_t : struct <something>
   529                                  ; glb cabecera_t : struct <something>
   530                                  ; RPN'ized expression: "16 1 + "
   531                                  ; Expanded expression: "17 "
   532                                  ; Expression value: 17
   533                                  ; RPN'ized expression: "16 2 + "
   534                                  ; Expanded expression: "18 "
   535                                  ; Expression value: 18
   536                                  ; RPN'ized expression: "2010 1 + "
   537                                  ; Expanded expression: "2011 "
   538                                  ; Expression value: 2011
   539                                  ; RPN'ized expression: "2010 2 + "
   540                                  ; Expanded expression: "2012 "
   541                                  ; Expression value: 2012
   542                                  ; RPN'ized expression: "20 1 + "
   543                                  ; Expanded expression: "21 "
   544                                  ; Expression value: 21
   545                                  ; RPN'ized expression: "20 2 + "
   546                                  ; Expanded expression: "22 "
   547                                  ; Expression value: 22
   548                                  ; RPN'ized expression: "14 1 + "
   549                                  ; Expanded expression: "15 "
   550                                  ; Expression value: 15
   551                                  ; RPN'ized expression: "14 2 + "
   552                                  ; Expanded expression: "16 "
   553                                  ; Expression value: 16
   554                                  ; RPN'ized expression: "16 16 + "
   555                                  ; Expanded expression: "32 "
   556                                  ; Expression value: 32
   557                                  ; RPN'ized expression: "2010 16 + "
   558                                  ; Expanded expression: "2026 "
   559                                  ; Expression value: 2026
   560                                  ; RPN'ized expression: "2010 1 + "
   561                                  ; Expanded expression: "2011 "
   562                                  ; Expression value: 2011
   563                                  ; RPN'ized expression: "2010 1 + "
   564                                  ; Expanded expression: "2011 "
   565                                  ; Expression value: 2011
   566                                  ; RPN'ized expression: "16 1 + "
   567                                  ; Expanded expression: "17 "
   568                                  ; Expression value: 17
   569                                  ; RPN'ized expression: "2010 1 + "
   570                                  ; Expanded expression: "2011 "
   571                                  ; Expression value: 2011
   572                                  ; RPN'ized expression: "20 14 + "
   573                                  ; Expanded expression: "34 "
   574                                  ; Expression value: 34
   575                                  ; glb e2PFR_t : struct <something>
   576                                  ; glb cPFR_t : int
   577                                  ; glb sigThread_t : * () int
   578                                  ; glb activarThread_t : * (
   579                                  ; prm     tindx : int
   580                                  ;     ) void
   581                                  ; glb buscarNuevoThreadActual_t : * (void) void
   582                                  ; glb bloquearThreadActual_t : * (
   583                                  ; prm     rindx : int
   584                                  ;     ) void
   585                                  ; glb descSO1H_t : struct <something>
   586                                  %define SP0_SO1H 0x8000
   587                                  %define SP0_Kernel  0xA000
   588                                  ; glb startBin : (void) void
   589                                  ; glb modoSO1 : (void) int
   590                                  ; glb unidadBIOS : (void) unsigned char
   591                                  ; glb CS_SO1H : unsigned short
   592                                  ; glb RO_SO1H : unsigned short
   593                                  ; glb DS_SO1H : unsigned short
   594                                  ; glb BSS_SO1H : unsigned short
   595                                  ; glb SS_SO1H : unsigned short
   596                                  ; glb SS_Kernel : unsigned short
   597                                  ; glb IMRInicial : unsigned short
   598                                  ; glb obtenerMapa : (void) void
   599                                  ; glb puntoDeParadaSO1 : (void) void
   600                                  ; glb leerScancodeListo : (void) unsigned char
   601                                  ; glb leerScancode : (void) unsigned char
   602                                  ; glb mirarLoQueHay : (
   603                                  ; prm     loQueHay : * unsigned short
   604                                  ;     ) void
   605                                  ; glb mostrarLoQueHay : (
   606                                  ; prm     loQueHay : unsigned short
   607                                  ;     ) void
   608                                  ; glb tirarS0 : (
   609                                  ; prm     loQueHay : unsigned short
   610                                  ;     ) void
   611                                  ; glb pos_t : struct <something>
   612                                  ; RPN'ized expression: "50 "
   613                                  ; Expanded expression: "50 "
   614                                  ; Expression value: 50
   615                                  ; RPN'ized expression: "80 "
   616                                  ; Expanded expression: "80 "
   617                                  ; Expression value: 80
   618                                  ; glb pantalla_t : union <something>
   619                                  ; glb tamPantalla : (
   620                                  ; prm     numFilas : unsigned char
   621                                  ;     ) unsigned short
   622                                  ; glb pantallazo : (
   623                                  ; prm     pantalla : * union <something>
   624                                  ; prm     numFilas : unsigned short
   625                                  ; prm     car : char
   626                                  ; prm     atr : char
   627                                  ; prm     esqSupDeF : unsigned char
   628                                  ; prm     esqSupDeC : unsigned char
   629                                  ; prm     esqInfIzF : unsigned char
   630                                  ; prm     esqInfIzC : unsigned char
   631                                  ;     ) void
   632                                  ; glb borrarPantalla : (
   633                                  ; prm     pantalla : * union <something>
   634                                  ; prm     numFilas : unsigned short
   635                                  ;     ) void
   636                                  ; glb borrarCPantalla : (
   637                                  ; prm     pantalla : * union <something>
   638                                  ; prm     numFilas : unsigned short
   639                                  ;     ) void
   640                                  ; glb copiarPantalla : (
   641                                  ; prm     p1 : * union <something>
   642                                  ; prm     p2 : * union <something>
   643                                  ; prm     numFilas : unsigned short
   644                                  ;     ) void
   645                                  ; glb copiarCPantalla : (
   646                                  ; prm     p1 : * union <something>
   647                                  ; prm     p2 : * union <something>
   648                                  ; prm     numFilas : unsigned short
   649                                  ;     ) void
   650                                  ; glb scrollPantalla : (
   651                                  ; prm     pantalla : * union <something>
   652                                  ; prm     numFilas : unsigned short
   653                                  ;     ) void
   654                                  ; glb scrollCPantalla : (
   655                                  ; prm     pantalla : * union <something>
   656                                  ; prm     numFilas : unsigned short
   657                                  ;     ) void
   658                                  ; glb cursorF : unsigned char
   659                                  ; glb cursorC : unsigned char
   660                                  ; glb lineaOriginal1 : unsigned char
   661                                  ; glb lineaOriginal2 : unsigned char
   662                                  ; glb inicMemVideo : (void) void
   663                                  ; glb finMemVideo : (void) int
   664                                  ; glb goToXYVideo : (
   665                                  ; prm     F : unsigned char
   666                                  ; prm     C : unsigned char
   667                                  ;     ) void
   668                                  ; glb printCarVideo : (
   669                                  ; prm     car : char
   670                                  ;     ) int
   671                                  ; RPN'ized expression: "4 "
   672                                  ; Expanded expression: "4 "
   673                                  ; Expression value: 4
   674                                  ; RPN'ized expression: "7 "
   675                                  ; Expanded expression: "7 "
   676                                  ; Expression value: 7
   677                                  ; RPN'ized expression: "10 "
   678                                  ; Expanded expression: "10 "
   679                                  ; Expression value: 10
   680                                  ; RPN'ized expression: "48 "
   681                                  ; Expanded expression: "48 "
   682                                  ; Expression value: 48
   683                                  ; glb tipoAdaptador_t : int
   684                                  ; RPN'ized expression: "8 "
   685                                  ; Expanded expression: "8 "
   686                                  ; Expression value: 8
   687                                  ; RPN'ized expression: "14 "
   688                                  ; Expanded expression: "14 "
   689                                  ; Expression value: 14
   690                                  ; glb fontSize_t : int
   691                                  ; glb numFilas : unsigned char
   692                                  ; glb numColumnas : unsigned char
   693                                  ; glb ptrPant : * union <something>
   694                                  ; glb tipoAdaptador : int
   695                                  ; glb redimensionable : int
   696                                  ; glb fontSize : unsigned char
   697                                  ; glb visibilidad : unsigned char
   698                                  ; glb inicBiosCrt : (void) void
   699                                  ; glb finBiosCrt : (void) void
   700                                  ; glb getFontSize : (void) int
   701                                  ; glb getFilas : (void) unsigned char
   702                                  ; glb comprobarAdaptador : (
   703                                  ; prm     tipoAdaptador : int
   704                                  ;     ) int
   705                                  ; glb tipoDeAdaptador : (void) int
   706                                  ; glb setCursorVisibilidad : (
   707                                  ; prm     valorDeVisibilidad : int
   708                                  ;     ) unsigned char
   709                                  ; glb setFontSize : (
   710                                  ; prm     size : int
   711                                  ;     ) void
   712                                  ; glb set25x80 : (void) void
   713                                  ; glb redimensionar : (
   714                                  ; prm     nFilas : unsigned char
   715                                  ; prm     nCols : unsigned char
   716                                  ;     ) void
   717                                  ; glb printCarVideo : (
   718                                  ; prm     car : char
   719                                  ;     ) int
   720                                  ; glb printLnVideo : (void) int
   721                                  ; glb printStrVideo : (
   722                                  ; prm     str : * char
   723                                  ;     ) int
   724                                  ; glb printStrHastaVideo : (
   725                                  ; prm     str : * char
   726                                  ; prm     n : unsigned short
   727                                  ; prm     lleno : int
   728                                  ;     ) int
   729                                  ; glb printDecVideo : (
   730                                  ; prm     num : unsigned short
   731                                  ; prm     l : unsigned short
   732                                  ;     ) int
   733                                  ; glb printLDecVideo : (
   734                                  ; prm     num : unsigned
   735                                  ; prm     l : unsigned short
   736                                  ;     ) int
   737                                  ; glb printIntVideo : (
   738                                  ; prm     num : int
   739                                  ; prm     l : unsigned short
   740                                  ;     ) int
   741                                  ; glb printLIntVideo : (
   742                                  ; prm     num : int
   743                                  ; prm     l : unsigned short
   744                                  ;     ) int
   745                                  ; glb printHexVideo : (
   746                                  ; prm     num : unsigned short
   747                                  ; prm     l : unsigned short
   748                                  ;     ) int
   749                                  ; glb printLHexVideo : (
   750                                  ; prm     num : unsigned
   751                                  ; prm     l : unsigned short
   752                                  ;     ) int
   753                                  ; glb printBinVideo : (
   754                                  ; prm     num : unsigned short
   755                                  ; prm     l : unsigned short
   756                                  ;     ) int
   757                                  ; glb printLBinVideo : (
   758                                  ; prm     num : unsigned
   759                                  ; prm     l : unsigned short
   760                                  ;     ) int
   761                                  ; glb printPtrVideo : (
   762                                  ; prm     ptr : * unsigned char
   763                                  ;     ) int
   764                                  ; glb printByteVideo : (
   765                                  ; prm     b : unsigned char
   766                                  ;     ) int
   767                                  ; glb printWordVideo : (
   768                                  ; prm     w : unsigned short
   769                                  ;     ) int
   770                                  ; glb printCadVideo : (
   771                                  ; prm     cad : * char
   772                                  ;     ) int
   773                                  ; glb createProcess : (
   774                                  ; prm     nombre : * char
   775                                  ; prm     comando : * char
   776                                  ;     ) int
   777                                  ; glb exec : (
   778                                  ; prm     nombre : * char
   779                                  ; prm     comando : * char
   780                                  ;     ) int
   781                                  ; glb waitpid : (
   782                                  ; prm     pid : int
   783                                  ; prm     statloc : * int
   784                                  ;     ) int
   785                                  ; glb kill : (
   786                                  ; prm     pid : int
   787                                  ;     ) int
   788                                  ; glb exit : (
   789                                  ; prm     status : int
   790                                  ;     ) void
   791                                  ; glb setuid : (
   792                                  ; prm     uid : int
   793                                  ;     ) int
   794                                  ; glb setgid : (
   795                                  ; prm     gid : int
   796                                  ;     ) int
   797                                  ; glb kill : (
   798                                  ; prm     pid : int
   799                                  ;     ) int
   800                                  ; glb open : (
   801                                  ; prm     nombre : * char
   802                                  ; prm     modoAp : unsigned short
   803                                  ;     ) int
   804                                  ; glb close : (
   805                                  ; prm     df : int
   806                                  ;     ) int
   807                                  ; glb write : (
   808                                  ; prm     df : int
   809                                  ; prm     dir : * unsigned char
   810                                  ; prm     nbytes : unsigned short
   811                                  ;     ) int
   812                                  ; glb tamBloqueMax : unsigned short
   813                                  ; glb listaLibres : * struct <something>
   814                                  ; glb k_buscarBloque : (
   815                                  ; prm     tam : unsigned short
   816                                  ;     ) unsigned short
   817                                  ; glb k_devolverBloque : (
   818                                  ; prm     segmento : unsigned short
   819                                  ; prm     tam : unsigned short
   820                                  ;     ) int
   821                                  ; glb rec_gm : int
   822                                  ; glb inicGM : (void) void
   823                                  ; glb mostrarListaLibres : (void) void
   824                                  ; glb link_gm_k : (void) void
   825                                  ; RPN'ized expression: "256 "
   826                                  ; Expanded expression: "256 "
   827                                  ; Expression value: 256
   828                                  ; glb VIOrg : [256u] * (void) void
   829                                  ; RPN'ized expression: "256 "
   830                                  ; Expanded expression: "256 "
   831                                  ; Expression value: 256
   832                                  ; glb recVInt : [256u] int
   833                                  ; glb redirigirInt : (
   834                                  ; prm     nVInt : unsigned char
   835                                  ; prm     isr : * (void) void
   836                                  ;     ) void
   837                                  ; glb redirigirIntHardware : (
   838                                  ; prm     irq : unsigned char
   839                                  ; prm     isr : * (void) void
   840                                  ;     ) void
   841                                  ; glb restablecerInt : (
   842                                  ; prm     nVInt : int
   843                                  ;     ) void
   844                                  ; glb inicTVI : (void) void
   845                                  ; glb link_ints : (void) void
   846                                  ; RPN'ized expression: "12 "
   847                                  ; Expanded expression: "12 "
   848                                  ; Expression value: 12
   849                                  ; RPN'ized expression: "80 "
   850                                  ; Expanded expression: "80 "
   851                                  ; Expression value: 80
   852                                  ; RPN'ized expression: "10 "
   853                                  ; Expanded expression: "10 "
   854                                  ; Expression value: 10
   855                                  ; glb descProcesoExt_t : struct <something>
   856                                  ; glb descThreadExt_t : struct <something>
   857                                  ; RPN'ized expression: "16 "
   858                                  ; Expanded expression: "16 "
   859                                  ; Expression value: 16
   860                                  ; glb descProceso : [16u] struct <something>
   861                                  ; RPN'ized expression: "2010 "
   862                                  ; Expanded expression: "2010 "
   863                                  ; Expression value: 2010
   864                                  ; glb descThread : [2010u] struct <something>
   865                                  ; RPN'ized expression: "20 "
   866                                  ; Expanded expression: "20 "
   867                                  ; Expression value: 20
   868                                  ; glb descFichero : [20u] struct <something>
   869                                  ; RPN'ized expression: "14 "
   870                                  ; Expanded expression: "14 "
   871                                  ; Expression value: 14
   872                                  ; glb descRecurso : [14u] struct <something>
   873                                  ; RPN'ized expression: "numColasPFR "
   874                                  ; Expanded expression: "12 "
   875                                  ; Expression value: 12
   876                                  ; glb c2cPFR : [12u] struct <something>
   877                                  ; glb e2PFR : struct <something>
   878                                  ; glb descCcbAlEpilogo : struct <something>
   879                                  ; glb ccbAlEpilogo : * struct <something>
   880                                  ; glb tramaThread : * union <something>
   881                                  ; glb tramaTarea : * union <something>
   882                                  ; glb indThreadActual : int
   883                                  ; glb indProcesoActual : int
   884                                  ; glb indThreadDeSuperficie : int
   885                                  ; glb contRodajas : unsigned
   886                                  ; glb contTicsRodaja : int
   887                                  ; glb contadorTimer00 : unsigned short
   888                                  ; glb contOcioso : int
   889                                  ; glb nuevoPid : (void) int
   890                                  ; glb nuevoTid : (void) int
   891                                  ; glb indice : (
   892                                  ; prm     tid : int
   893                                  ;     ) int
   894                                  ; glb sigThread : (void) int
   895                                  ; glb activarThread : (
   896                                  ; prm     tindx : int
   897                                  ;     ) int
   898                                  ; glb registrarEnPOrdenados : (
   899                                  ; prm     pindx : int
   900                                  ;     ) void
   901                                  ; glb crearThread : (
   902                                  ; prm     funcion : * (
   903                                  ; prm         <something> : * void
   904                                  ;         ) * void
   905                                  ; prm     SP0 : unsigned short
   906                                  ; prm     arg : * void
   907                                  ; prm     pindx : int
   908                                  ;     ) int
   909                                  ; glb crearProceso : (
   910                                  ; prm     segmento : unsigned short
   911                                  ; prm     tam : unsigned short
   912                                  ; prm     tamFich : unsigned
   913                                  ; prm     programa : * char
   914                                  ; prm     comando : * char
   915                                  ; prm     pindx : int
   916                                  ;     ) int
   917                                  ; glb inicProcesos : (void) void
   918                                  ; glb resetPids : (void) void
   919                                  ; glb resetTids : (void) void
   920                                  ; glb terminarThreadIndx : (
   921                                  ; prm     tindx : int
   922                                  ;     ) int
   923                                  ; glb eliminarThreadIndx : (
   924                                  ; prm     tindx : int
   925                                  ;     ) int
   926                                  ; glb terminarProcIndx : (
   927                                  ; prm     pindx : int
   928                                  ;     ) int
   929                                  ; glb eliminarProcIndx : (
   930                                  ; prm     pindx : int
   931                                  ;     ) int
   932                                  ; glb matarThreadIndx : (
   933                                  ; prm     tindx : int
   934                                  ;     ) int
   935                                  ; glb matarProcIndx : (
   936                                  ; prm     pindx : int
   937                                  ;     ) int
   938                                  ; glb link_procs : (void) void
   939                                  ; glb isr_SO1H : (void) void
   940                                  ; glb link_llamadas : (void) void
   941                                  ; glb inicRecursos : (void) void
   942                                  ; glb crearRec : (
   943                                  ; prm     dR : * struct <something>
   944                                  ;     ) int
   945                                  ; glb crearFich : (
   946                                  ; prm     nombre : * char
   947                                  ; prm     rindx : int
   948                                  ; prm     menor : unsigned short
   949                                  ; prm     tipo : int
   950                                  ;     ) int
   951                                  ; glb destruirFich : (
   952                                  ; prm     dfs : int
   953                                  ;     ) int
   954                                  ; glb destruirRec : (
   955                                  ; prm     nombre : * char
   956                                  ;     ) int
   957                                  ; glb link_recurs : (void) void
   958                                  ; glb thread_attribs_t : struct <something>
   959                                  ; glb thread_create : (
   960                                  ; prm     tid : * int
   961                                  ; prm     attribs : * struct <something>
   962                                  ; prm     funcionInicial : * * void
   963                                  ; prm     arg : * void
   964                                  ;     ) int
   965                                  ; glb thread_join : (
   966                                  ; prm     tid : int
   967                                  ; prm     res : * * void
   968                                  ;     ) int
   969                                  ; glb thread_exit : (
   970                                  ; prm     res : * void
   971                                  ;     ) void
   972                                  ; glb thread_yield : (void) int
   973                                  ; glb thread_self : (void) int
   974                                  ; glb demo_0 : (void) void
   975                                  ; glb main : (void) void
   976                                  section .text
   977                                  	global	_main
   978                                  _main:
   979 00000000 6655                    	push	ebp
   980 00000002 660FB7EC                	movzx	ebp, sp
   981 00000006 83EC08                  	 sub	sp,          8
   982                                  ; loc     loQueHay : (@-4): unsigned short
   983 00000009 FA                      cli
   984                                  ; if
   985                                  ; RPN'ized expression: "( modoSO1 ) modoSO1_Exe == "
   986                                  ; Expanded expression: " modoSO1 ()0 1 == "
   987                                  ; Fused expression:    "( modoSO1 )0 == ax 1 IF! "
   988 0000000A 9A                      	db	0x9A
   989                                  section .relot
   990 00000000 [0B000000]              	dd	L5
   991                                  section .text
   992                                  L5:
   993 0000000B [00000000]              	dd	_modoSO1
   994 0000000F 6683F801                	cmp	eax, 1
   995 00000013 7507                    	jne	L3
   996                                  ; RPN'ized expression: "( salvarPantallaInicial ) "
   997                                  ; Expanded expression: " salvarPantallaInicial ()0 "
   998                                  ; Fused expression:    "( salvarPantallaInicial )0 "
   999 00000015 9A                      	db	0x9A
  1000                                  section .relot
  1001 00000004 [16000000]              	dd	L6
  1002                                  section .text
  1003                                  L6:
  1004 00000016 [00000000]              	dd	_salvarPantallaInicial
  1005 0000001A EB16                    	jmp	L4
  1006                                  L3:
  1007                                  ; else
  1008                                  ; if
  1009                                  ; RPN'ized expression: "( modoSO1 ) modoSO1_Bin == "
  1010                                  ; Expanded expression: " modoSO1 ()0 0 == "
  1011                                  ; Fused expression:    "( modoSO1 )0 == ax 0 IF! "
  1012 0000001C 9A                      	db	0x9A
  1013                                  section .relot
  1014 00000008 [1D000000]              	dd	L9
  1015                                  section .text
  1016                                  L9:
  1017 0000001D [00000000]              	dd	_modoSO1
  1018 00000021 6683F800                	cmp	eax, 0
  1019 00000025 750B                    	jne	L7
  1020                                  ; RPN'ized expression: "( 0 scrollBIOS ) "
  1021                                  ; Expanded expression: " 0  scrollBIOS ()4 "
  1022                                  ; Fused expression:    "( 0 , scrollBIOS )4 "
  1023 00000027 666A00                  	push	dword 0
  1024 0000002A 9A                      	db	0x9A
  1025                                  section .relot
  1026 0000000C [2B000000]              	dd	L10
  1027                                  section .text
  1028                                  L10:
  1029 0000002B [00000000]              	dd	_scrollBIOS
  1030 0000002F 83ECFC                  	sub	sp, -4
  1031                                  L7:
  1032                                  L4:
  1033                                  ; RPN'ized expression: "( inicMemVideo ) "
  1034                                  ; Expanded expression: " inicMemVideo ()0 "
  1035                                  ; Fused expression:    "( inicMemVideo )0 "
  1036 00000032 9A                      	db	0x9A
  1037                                  section .relot
  1038 00000010 [33000000]              	dd	L11
  1039                                  section .text
  1040                                  L11:
  1041 00000033 [00000000]              	dd	_inicMemVideo
  1042                                  ; RPN'ized expression: "( ocultaCursorBIOS ) "
  1043                                  ; Expanded expression: " ocultaCursorBIOS ()0 "
  1044                                  ; Fused expression:    "( ocultaCursorBIOS )0 "
  1045 00000037 9A                      	db	0x9A
  1046                                  section .relot
  1047 00000014 [38000000]              	dd	L12
  1048                                  section .text
  1049                                  L12:
  1050 00000038 [00000000]              	dd	_ocultaCursorBIOS
  1051                                  ; loc     <something> : * unsigned short
  1052                                  ; RPN'ized expression: "( loQueHay &u (something13) mirarLoQueHay ) "
  1053                                  ; Expanded expression: " (@-4)  mirarLoQueHay ()4 "
  1054                                  ; Fused expression:    "( (@-4) , mirarLoQueHay )4 "
  1055 0000003C 6631C0                  	xor	eax, eax
  1056 0000003F 8CD0                    	mov	ax, ss
  1057 00000041 66C1E004                	shl	eax, 4
  1058 00000045 66678D4405FC            	lea	eax, [ebp+eax-4]
  1059 0000004B 6650                    	push	eax
  1060 0000004D 9A                      	db	0x9A
  1061                                  section .relot
  1062 00000018 [4E000000]              	dd	L14
  1063                                  section .text
  1064                                  L14:
  1065 0000004E [00000000]              	dd	_mirarLoQueHay
  1066 00000052 83ECFC                  	sub	sp, -4
  1067                                  ; RPN'ized expression: "( loQueHay mostrarLoQueHay ) "
  1068                                  ; Expanded expression: " (@-4) *(2)  mostrarLoQueHay ()4 "
  1069                                  ; Fused expression:    "( *(2) (@-4) , mostrarLoQueHay )4 "
  1070 00000055 8B46FC                  	mov	ax, [bp-4]
  1071 00000058 660FB7C0                	movzx	eax, ax
  1072 0000005C 6650                    	push	eax
  1073 0000005E 9A                      	db	0x9A
  1074                                  section .relot
  1075 0000001C [5F000000]              	dd	L15
  1076                                  section .text
  1077                                  L15:
  1078 0000005F [00000000]              	dd	_mostrarLoQueHay
  1079 00000063 83ECFC                  	sub	sp, -4
  1080                                  ; switch
  1081                                  ; RPN'ized expression: "( modoSO1 ) "
  1082                                  ; Expanded expression: " modoSO1 ()0 "
  1083                                  ; Fused expression:    "( modoSO1 )0  "
  1084 00000066 9A                      	db	0x9A
  1085                                  section .relot
  1086 00000020 [67000000]              	dd	L18
  1087                                  section .text
  1088                                  L18:
  1089 00000067 [00000000]              	dd	_modoSO1
  1090 0000006B EB40                    	jmp	L17
  1091                                  ; {
  1092                                  ; case
  1093                                  ; RPN'ized expression: "modoSO1_Bin "
  1094                                  ; Expanded expression: "0 "
  1095                                  ; Expression value: 0
  1096                                  L19:
  1097                                  ; case
  1098                                  ; RPN'ized expression: "modoSO1_Exe "
  1099                                  ; Expanded expression: "1 "
  1100                                  ; Expression value: 1
  1101                                  L20:
  1102                                  ; RPN'ized expression: "( mostrarFlags ) "
  1103                                  ; Expanded expression: " mostrarFlags ()0 "
  1104                                  ; Fused expression:    "( mostrarFlags )0 "
  1105 0000006D 9A                      	db	0x9A
  1106                                  section .relot
  1107 00000024 [6E000000]              	dd	L21
  1108                                  section .text
  1109                                  L21:
  1110 0000006E [00000000]              	dd	_mostrarFlags
  1111                                  
  1112                                  section .rodata
  1113                                  L22:
  1114 00000000 3D3E20534F31482076-     	db	"=> SO1H v 0.1.2 "
  1114 00000009 20302E312E3220     
  1115 00000010 00                      	times	1 db 0
  1116                                  
  1117                                  section .text
  1118                                  ; RPN'ized expression: "( L22 printStrVideo ) "
  1119                                  ; Expanded expression: " L22  printStrVideo ()4 "
  1120                                  ; Fused expression:    "( L22 , printStrVideo )4 "
  1121                                  section .relod
  1122 00000000 [74000000]              	dd	L23
  1123                                  section .text
  1124 00000072 6668                    	db	0x66, 0x68
  1125                                  L23:
  1126 00000074 [00000000]              	dd	L22
  1127 00000078 9A                      	db	0x9A
  1128                                  section .relot
  1129 00000028 [79000000]              	dd	L24
  1130                                  section .text
  1131                                  L24:
  1132 00000079 [00000000]              	dd	_printStrVideo
  1133 0000007D 83ECFC                  	sub	sp, -4
  1134                                  ; RPN'ized expression: "( printLnVideo ) "
  1135                                  ; Expanded expression: " printLnVideo ()0 "
  1136                                  ; Fused expression:    "( printLnVideo )0 "
  1137 00000080 9A                      	db	0x9A
  1138                                  section .relot
  1139 0000002C [81000000]              	dd	L25
  1140                                  section .text
  1141                                  L25:
  1142 00000081 [00000000]              	dd	_printLnVideo
  1143                                  
  1144                                  section .rodata
  1145                                  L26:
  1146 00000011 070A20736F3128293A-     	db	7,10," so1(): ERROR ints. no inhibidas"
  1146 0000001A 204552524F5220696E-
  1146 00000023 74732E206E6F20696E-
  1146 0000002C 68696269646173     
  1147 00000033 00                      	times	1 db 0
  1148                                  
  1149                                  section .text
  1150                                  ; RPN'ized expression: "( L26 , ( valorFlags ) 512 & 0 == assert ) "
  1151                                  ; Expanded expression: " L26   valorFlags ()0 512 & 0 ==  assert ()8 "
  1152                                  ; Fused expression:    "( L26 , ( valorFlags )0 & ax 512 == ax 0 , assert )8 "
  1153                                  section .relod
  1154 00000004 [87000000]              	dd	L27
  1155                                  section .text
  1156 00000085 6668                    	db	0x66, 0x68
  1157                                  L27:
  1158 00000087 [11000000]              	dd	L26
  1159 0000008B 9A                      	db	0x9A
  1160                                  section .relot
  1161 00000030 [8C000000]              	dd	L28
  1162                                  section .text
  1163                                  L28:
  1164 0000008C [00000000]              	dd	_valorFlags
  1165 00000090 662500020000            	and	eax, 512
  1166 00000096 6683F800                	cmp	eax, 0
  1167 0000009A 0F94C0                  	sete	al
  1168 0000009D 660FB6C0                	movzx	eax, al
  1169 000000A1 6650                    	push	eax
  1170 000000A3 9A                      	db	0x9A
  1171                                  section .relot
  1172 00000034 [A4000000]              	dd	L29
  1173                                  section .text
  1174                                  L29:
  1175 000000A4 [00000000]              	dd	_assert
  1176 000000A8 83ECF8                  	sub	sp, -8
  1177                                  ; }
  1178 000000AB EB0C                    	jmp	L16
  1179                                  L17:
  1180 000000AD 6683F800                	cmp	eax, 0
  1181 000000B1 74BA                    	je	L19
  1182 000000B3 6683F801                	cmp	eax, 1
  1183 000000B7 74B4                    	je	L20
  1184                                  L16:
  1185                                  ; RPN'ized expression: "( obtenerMapa ) "
  1186                                  ; Expanded expression: " obtenerMapa ()0 "
  1187                                  ; Fused expression:    "( obtenerMapa )0 "
  1188 000000B9 9A                      	db	0x9A
  1189                                  section .relot
  1190 00000038 [BA000000]              	dd	L30
  1191                                  section .text
  1192                                  L30:
  1193 000000BA [00000000]              	dd	_obtenerMapa
  1194                                  
  1195                                  section .rodata
  1196                                  L31:
  1197 00000034 0A                      	db	10
  1198 00000035 2043535F534F314820-     	db	" CS_SO1H  RO_SO1H  DS_SO1H  BSS_SO1H  SS_SO1H  ",10
  1198 0000003E 20524F5F534F314820-
  1198 00000047 2044535F534F314820-
  1198 00000050 204253535F534F3148-
  1198 00000059 202053535F534F3148-
  1198 00000062 20200A             
  1199 00000065 202D2D2D2D2D2D2D2D-     	db	" -------- -------- -------- --------- -------- ",10
  1199 0000006E 202D2D2D2D2D2D2D2D-
  1199 00000077 202D2D2D2D2D2D2D2D-
  1199 00000080 202D2D2D2D2D2D2D2D-
  1199 00000089 2D202D2D2D2D2D2D2D-
  1199 00000092 2D200A             
  1200 00000095 202020                  	db	"   "
  1201 00000098 00                      	times	1 db 0
  1202                                  
  1203                                  section .text
  1204                                  ; RPN'ized expression: "( L31 printStrVideo ) "
  1205                                  ; Expanded expression: " L31  printStrVideo ()4 "
  1206                                  ; Fused expression:    "( L31 , printStrVideo )4 "
  1207                                  section .relod
  1208 00000008 [C0000000]              	dd	L32
  1209                                  section .text
  1210 000000BE 6668                    	db	0x66, 0x68
  1211                                  L32:
  1212 000000C0 [34000000]              	dd	L31
  1213 000000C4 9A                      	db	0x9A
  1214                                  section .relot
  1215 0000003C [C5000000]              	dd	L33
  1216                                  section .text
  1217                                  L33:
  1218 000000C5 [00000000]              	dd	_printStrVideo
  1219 000000C9 83ECFC                  	sub	sp, -4
  1220                                  ; RPN'ized expression: "( 4 , CS_SO1H printHexVideo ) "
  1221                                  ; Expanded expression: " 4  CS_SO1H *(2)  printHexVideo ()8 "
  1222                                  ; Fused expression:    "( 4 , CS_SO1H *(2) ax , printHexVideo )8 "
  1223 000000CC 666A04                  	push	dword 4
  1224                                  section .relod
  1225 0000000C [D1000000]              	dd	L34
  1226                                  section .text
  1227 000000CF 66B8                    	db	0x66, 0xB8
  1228                                  L34:
  1229 000000D1 [00000000]              	dd	_CS_SO1H
  1230 000000D5 6689C3                  	mov	ebx, eax
  1231 000000D8 6689DE                  	mov	esi, ebx
  1232 000000DB 66C1CE04                	ror	esi, 4
  1233 000000DF 8EDE                    	mov	ds, si
  1234 000000E1 66C1EE1C                	shr	esi, 28
  1235 000000E5 8B04                    	mov	ax, [si]
  1236 000000E7 660FB7C0                	movzx	eax, ax
  1237 000000EB 6650                    	push	eax
  1238 000000ED 9A                      	db	0x9A
  1239                                  section .relot
  1240 00000040 [EE000000]              	dd	L35
  1241                                  section .text
  1242                                  L35:
  1243 000000EE [00000000]              	dd	_printHexVideo
  1244 000000F2 83ECF8                  	sub	sp, -8
  1245                                  
  1246                                  section .rodata
  1247                                  L36:
  1248 00000099 2020202020              	db	"     "
  1249 0000009E 00                      	times	1 db 0
  1250                                  
  1251                                  section .text
  1252                                  ; RPN'ized expression: "( L36 printStrVideo ) "
  1253                                  ; Expanded expression: " L36  printStrVideo ()4 "
  1254                                  ; Fused expression:    "( L36 , printStrVideo )4 "
  1255                                  section .relod
  1256 00000010 [F7000000]              	dd	L37
  1257                                  section .text
  1258 000000F5 6668                    	db	0x66, 0x68
  1259                                  L37:
  1260 000000F7 [99000000]              	dd	L36
  1261 000000FB 9A                      	db	0x9A
  1262                                  section .relot
  1263 00000044 [FC000000]              	dd	L38
  1264                                  section .text
  1265                                  L38:
  1266 000000FC [00000000]              	dd	_printStrVideo
  1267 00000100 83ECFC                  	sub	sp, -4
  1268                                  ; RPN'ized expression: "( 4 , RO_SO1H printHexVideo ) "
  1269                                  ; Expanded expression: " 4  RO_SO1H *(2)  printHexVideo ()8 "
  1270                                  ; Fused expression:    "( 4 , RO_SO1H *(2) ax , printHexVideo )8 "
  1271 00000103 666A04                  	push	dword 4
  1272                                  section .relod
  1273 00000014 [08010000]              	dd	L39
  1274                                  section .text
  1275 00000106 66B8                    	db	0x66, 0xB8
  1276                                  L39:
  1277 00000108 [00000000]              	dd	_RO_SO1H
  1278 0000010C 6689C3                  	mov	ebx, eax
  1279 0000010F 6689DE                  	mov	esi, ebx
  1280 00000112 66C1CE04                	ror	esi, 4
  1281 00000116 8EDE                    	mov	ds, si
  1282 00000118 66C1EE1C                	shr	esi, 28
  1283 0000011C 8B04                    	mov	ax, [si]
  1284 0000011E 660FB7C0                	movzx	eax, ax
  1285 00000122 6650                    	push	eax
  1286 00000124 9A                      	db	0x9A
  1287                                  section .relot
  1288 00000048 [25010000]              	dd	L40
  1289                                  section .text
  1290                                  L40:
  1291 00000125 [00000000]              	dd	_printHexVideo
  1292 00000129 83ECF8                  	sub	sp, -8
  1293                                  
  1294                                  section .rodata
  1295                                  L41:
  1296 0000009F 2020202020              	db	"     "
  1297 000000A4 00                      	times	1 db 0
  1298                                  
  1299                                  section .text
  1300                                  ; RPN'ized expression: "( L41 printStrVideo ) "
  1301                                  ; Expanded expression: " L41  printStrVideo ()4 "
  1302                                  ; Fused expression:    "( L41 , printStrVideo )4 "
  1303                                  section .relod
  1304 00000018 [2E010000]              	dd	L42
  1305                                  section .text
  1306 0000012C 6668                    	db	0x66, 0x68
  1307                                  L42:
  1308 0000012E [9F000000]              	dd	L41
  1309 00000132 9A                      	db	0x9A
  1310                                  section .relot
  1311 0000004C [33010000]              	dd	L43
  1312                                  section .text
  1313                                  L43:
  1314 00000133 [00000000]              	dd	_printStrVideo
  1315 00000137 83ECFC                  	sub	sp, -4
  1316                                  ; RPN'ized expression: "( 4 , DS_SO1H printHexVideo ) "
  1317                                  ; Expanded expression: " 4  DS_SO1H *(2)  printHexVideo ()8 "
  1318                                  ; Fused expression:    "( 4 , DS_SO1H *(2) ax , printHexVideo )8 "
  1319 0000013A 666A04                  	push	dword 4
  1320                                  section .relod
  1321 0000001C [3F010000]              	dd	L44
  1322                                  section .text
  1323 0000013D 66B8                    	db	0x66, 0xB8
  1324                                  L44:
  1325 0000013F [00000000]              	dd	_DS_SO1H
  1326 00000143 6689C3                  	mov	ebx, eax
  1327 00000146 6689DE                  	mov	esi, ebx
  1328 00000149 66C1CE04                	ror	esi, 4
  1329 0000014D 8EDE                    	mov	ds, si
  1330 0000014F 66C1EE1C                	shr	esi, 28
  1331 00000153 8B04                    	mov	ax, [si]
  1332 00000155 660FB7C0                	movzx	eax, ax
  1333 00000159 6650                    	push	eax
  1334 0000015B 9A                      	db	0x9A
  1335                                  section .relot
  1336 00000050 [5C010000]              	dd	L45
  1337                                  section .text
  1338                                  L45:
  1339 0000015C [00000000]              	dd	_printHexVideo
  1340 00000160 83ECF8                  	sub	sp, -8
  1341                                  
  1342                                  section .rodata
  1343                                  L46:
  1344 000000A5 2020202020              	db	"     "
  1345 000000AA 00                      	times	1 db 0
  1346                                  
  1347                                  section .text
  1348                                  ; RPN'ized expression: "( L46 printStrVideo ) "
  1349                                  ; Expanded expression: " L46  printStrVideo ()4 "
  1350                                  ; Fused expression:    "( L46 , printStrVideo )4 "
  1351                                  section .relod
  1352 00000020 [65010000]              	dd	L47
  1353                                  section .text
  1354 00000163 6668                    	db	0x66, 0x68
  1355                                  L47:
  1356 00000165 [A5000000]              	dd	L46
  1357 00000169 9A                      	db	0x9A
  1358                                  section .relot
  1359 00000054 [6A010000]              	dd	L48
  1360                                  section .text
  1361                                  L48:
  1362 0000016A [00000000]              	dd	_printStrVideo
  1363 0000016E 83ECFC                  	sub	sp, -4
  1364                                  ; RPN'ized expression: "( 4 , BSS_SO1H printHexVideo ) "
  1365                                  ; Expanded expression: " 4  BSS_SO1H *(2)  printHexVideo ()8 "
  1366                                  ; Fused expression:    "( 4 , BSS_SO1H *(2) ax , printHexVideo )8 "
  1367 00000171 666A04                  	push	dword 4
  1368                                  section .relod
  1369 00000024 [76010000]              	dd	L49
  1370                                  section .text
  1371 00000174 66B8                    	db	0x66, 0xB8
  1372                                  L49:
  1373 00000176 [00000000]              	dd	_BSS_SO1H
  1374 0000017A 6689C3                  	mov	ebx, eax
  1375 0000017D 6689DE                  	mov	esi, ebx
  1376 00000180 66C1CE04                	ror	esi, 4
  1377 00000184 8EDE                    	mov	ds, si
  1378 00000186 66C1EE1C                	shr	esi, 28
  1379 0000018A 8B04                    	mov	ax, [si]
  1380 0000018C 660FB7C0                	movzx	eax, ax
  1381 00000190 6650                    	push	eax
  1382 00000192 9A                      	db	0x9A
  1383                                  section .relot
  1384 00000058 [93010000]              	dd	L50
  1385                                  section .text
  1386                                  L50:
  1387 00000193 [00000000]              	dd	_printHexVideo
  1388 00000197 83ECF8                  	sub	sp, -8
  1389                                  
  1390                                  section .rodata
  1391                                  L51:
  1392 000000AB 202020202020            	db	"      "
  1393 000000B1 00                      	times	1 db 0
  1394                                  
  1395                                  section .text
  1396                                  ; RPN'ized expression: "( L51 printStrVideo ) "
  1397                                  ; Expanded expression: " L51  printStrVideo ()4 "
  1398                                  ; Fused expression:    "( L51 , printStrVideo )4 "
  1399                                  section .relod
  1400 00000028 [9C010000]              	dd	L52
  1401                                  section .text
  1402 0000019A 6668                    	db	0x66, 0x68
  1403                                  L52:
  1404 0000019C [AB000000]              	dd	L51
  1405 000001A0 9A                      	db	0x9A
  1406                                  section .relot
  1407 0000005C [A1010000]              	dd	L53
  1408                                  section .text
  1409                                  L53:
  1410 000001A1 [00000000]              	dd	_printStrVideo
  1411 000001A5 83ECFC                  	sub	sp, -4
  1412                                  ; RPN'ized expression: "( 4 , SS_SO1H printHexVideo ) "
  1413                                  ; Expanded expression: " 4  SS_SO1H *(2)  printHexVideo ()8 "
  1414                                  ; Fused expression:    "( 4 , SS_SO1H *(2) ax , printHexVideo )8 "
  1415 000001A8 666A04                  	push	dword 4
  1416                                  section .relod
  1417 0000002C [AD010000]              	dd	L54
  1418                                  section .text
  1419 000001AB 66B8                    	db	0x66, 0xB8
  1420                                  L54:
  1421 000001AD [00000000]              	dd	_SS_SO1H
  1422 000001B1 6689C3                  	mov	ebx, eax
  1423 000001B4 6689DE                  	mov	esi, ebx
  1424 000001B7 66C1CE04                	ror	esi, 4
  1425 000001BB 8EDE                    	mov	ds, si
  1426 000001BD 66C1EE1C                	shr	esi, 28
  1427 000001C1 8B04                    	mov	ax, [si]
  1428 000001C3 660FB7C0                	movzx	eax, ax
  1429 000001C7 6650                    	push	eax
  1430 000001C9 9A                      	db	0x9A
  1431                                  section .relot
  1432 00000060 [CA010000]              	dd	L55
  1433                                  section .text
  1434                                  L55:
  1435 000001CA [00000000]              	dd	_printHexVideo
  1436 000001CE 83ECF8                  	sub	sp, -8
  1437                                  ; RPN'ized expression: "( printLnVideo ) "
  1438                                  ; Expanded expression: " printLnVideo ()0 "
  1439                                  ; Fused expression:    "( printLnVideo )0 "
  1440 000001D1 9A                      	db	0x9A
  1441                                  section .relot
  1442 00000064 [D2010000]              	dd	L56
  1443                                  section .text
  1444                                  L56:
  1445 000001D2 [00000000]              	dd	_printLnVideo
  1446                                  ; RPN'ized expression: "( mostrarSecciones ) "
  1447                                  ; Expanded expression: " mostrarSecciones ()0 "
  1448                                  ; Fused expression:    "( mostrarSecciones )0 "
  1449 000001D6 9A                      	db	0x9A
  1450                                  section .relot
  1451 00000068 [D7010000]              	dd	L57
  1452                                  section .text
  1453                                  L57:
  1454 000001D7 [00000000]              	dd	_mostrarSecciones
  1455                                  ; RPN'ized expression: "( leerScancode ) "
  1456                                  ; Expanded expression: " leerScancode ()0 "
  1457                                  ; Fused expression:    "( leerScancode )0 "
  1458 000001DB 9A                      	db	0x9A
  1459                                  section .relot
  1460 0000006C [DC010000]              	dd	L58
  1461                                  section .text
  1462                                  L58:
  1463 000001DC [00000000]              	dd	_leerScancode
  1464                                  ; RPN'ized expression: "( leerScancode ) "
  1465                                  ; Expanded expression: " leerScancode ()0 "
  1466                                  ; Fused expression:    "( leerScancode )0 "
  1467 000001E0 9A                      	db	0x9A
  1468                                  section .relot
  1469 00000070 [E1010000]              	dd	L59
  1470                                  section .text
  1471                                  L59:
  1472 000001E1 [00000000]              	dd	_leerScancode
  1473                                  ; {
  1474                                  
  1475                                  section .rodata
  1476                                  L60:
  1477 000000B2 0A20                    	db	10," "
  1478 000000B4 00                      	times	1 db 0
  1479                                  
  1480                                  section .text
  1481                                  ; RPN'ized expression: "( L60 printStrVideo ) "
  1482                                  ; Expanded expression: " L60  printStrVideo ()4 "
  1483                                  ; Fused expression:    "( L60 , printStrVideo )4 "
  1484                                  section .relod
  1485 00000030 [E7010000]              	dd	L61
  1486                                  section .text
  1487 000001E5 6668                    	db	0x66, 0x68
  1488                                  L61:
  1489 000001E7 [B2000000]              	dd	L60
  1490 000001EB 9A                      	db	0x9A
  1491                                  section .relot
  1492 00000074 [EC010000]              	dd	L62
  1493                                  section .text
  1494                                  L62:
  1495 000001EC [00000000]              	dd	_printStrVideo
  1496 000001F0 83ECFC                  	sub	sp, -4
  1497                                  
  1498                                  section .rodata
  1499                                  L63:
  1500 000000B5 696E696350726F6365-     	db	"inicProcesos()"
  1500 000000BE 736F732829         
  1501 000000C3 00                      	times	1 db 0
  1502                                  
  1503                                  section .text
  1504                                  ; RPN'ized expression: "( L63 printStrVideo ) "
  1505                                  ; Expanded expression: " L63  printStrVideo ()4 "
  1506                                  ; Fused expression:    "( L63 , printStrVideo )4 "
  1507                                  section .relod
  1508 00000034 [F5010000]              	dd	L64
  1509                                  section .text
  1510 000001F3 6668                    	db	0x66, 0x68
  1511                                  L64:
  1512 000001F5 [B5000000]              	dd	L63
  1513 000001F9 9A                      	db	0x9A
  1514                                  section .relot
  1515 00000078 [FA010000]              	dd	L65
  1516                                  section .text
  1517                                  L65:
  1518 000001FA [00000000]              	dd	_printStrVideo
  1519 000001FE 83ECFC                  	sub	sp, -4
  1520                                  
  1521                                  section .rodata
  1522                                  L66:
  1523 000000C4 202E2E2E20              	db	" ... "
  1524 000000C9 00                      	times	1 db 0
  1525                                  
  1526                                  section .text
  1527                                  ; RPN'ized expression: "( L66 printStrVideo ) "
  1528                                  ; Expanded expression: " L66  printStrVideo ()4 "
  1529                                  ; Fused expression:    "( L66 , printStrVideo )4 "
  1530                                  section .relod
  1531 00000038 [03020000]              	dd	L67
  1532                                  section .text
  1533 00000201 6668                    	db	0x66, 0x68
  1534                                  L67:
  1535 00000203 [C4000000]              	dd	L66
  1536 00000207 9A                      	db	0x9A
  1537                                  section .relot
  1538 0000007C [08020000]              	dd	L68
  1539                                  section .text
  1540                                  L68:
  1541 00000208 [00000000]              	dd	_printStrVideo
  1542 0000020C 83ECFC                  	sub	sp, -4
  1543                                  ; RPN'ized expression: "( inicProcesos ) "
  1544                                  ; Expanded expression: " inicProcesos ()0 "
  1545                                  ; Fused expression:    "( inicProcesos )0 "
  1546 0000020F 9A                      	db	0x9A
  1547                                  section .relot
  1548 00000080 [10020000]              	dd	L69
  1549                                  section .text
  1550                                  L69:
  1551 00000210 [00000000]              	dd	_inicProcesos
  1552                                  ; }
  1553                                  ; RPN'ized expression: "descProceso indProcesoActual + *u &u uid -> *u 0 = "
  1554                                  ; Expanded expression: "descProceso indProcesoActual *(4) 292 * + 284 + 0 =(4) "
  1555                                  ; Fused expression:    "descProceso push-ax indProcesoActual * *ax 292 + *sp ax + ax 284 =(204) *ax 0 "
  1556                                  section .relod
  1557 0000003C [16020000]              	dd	L70
  1558                                  section .text
  1559 00000214 66B8                    	db	0x66, 0xB8
  1560                                  L70:
  1561 00000216 [00000000]              	dd	_descProceso
  1562 0000021A 6650                    	push	eax
  1563                                  section .relod
  1564 00000040 [1E020000]              	dd	L71
  1565                                  section .text
  1566 0000021C 66B8                    	db	0x66, 0xB8
  1567                                  L71:
  1568 0000021E [00000000]              	dd	_indProcesoActual
  1569 00000222 6689C3                  	mov	ebx, eax
  1570 00000225 6689DE                  	mov	esi, ebx
  1571 00000228 66C1CE04                	ror	esi, 4
  1572 0000022C 8EDE                    	mov	ds, si
  1573 0000022E 66C1EE1C                	shr	esi, 28
  1574 00000232 668B04                  	mov	eax, [si]
  1575 00000235 6669C024010000          	imul	eax, eax, 292
  1576 0000023C 6689C1                  	mov	ecx, eax
  1577 0000023F 6658                    	pop	eax
  1578 00000241 6601C8                  	add	eax, ecx
  1579 00000244 66051C010000            	add	eax, 284
  1580 0000024A 6689C3                  	mov	ebx, eax
  1581 0000024D 66B800000000            	mov	eax, 0
  1582 00000253 6689DE                  	mov	esi, ebx
  1583 00000256 66C1CE04                	ror	esi, 4
  1584 0000025A 8EDE                    	mov	ds, si
  1585 0000025C 66C1EE1C                	shr	esi, 28
  1586 00000260 668904                  	mov	[si], eax
  1587                                  ; RPN'ized expression: "descProceso indProcesoActual + *u &u gid -> *u 0 = "
  1588                                  ; Expanded expression: "descProceso indProcesoActual *(4) 292 * + 288 + 0 =(4) "
  1589                                  ; Fused expression:    "descProceso push-ax indProcesoActual * *ax 292 + *sp ax + ax 288 =(204) *ax 0 "
  1590                                  section .relod
  1591 00000044 [65020000]              	dd	L72
  1592                                  section .text
  1593 00000263 66B8                    	db	0x66, 0xB8
  1594                                  L72:
  1595 00000265 [00000000]              	dd	_descProceso
  1596 00000269 6650                    	push	eax
  1597                                  section .relod
  1598 00000048 [6D020000]              	dd	L73
  1599                                  section .text
  1600 0000026B 66B8                    	db	0x66, 0xB8
  1601                                  L73:
  1602 0000026D [00000000]              	dd	_indProcesoActual
  1603 00000271 6689C3                  	mov	ebx, eax
  1604 00000274 6689DE                  	mov	esi, ebx
  1605 00000277 66C1CE04                	ror	esi, 4
  1606 0000027B 8EDE                    	mov	ds, si
  1607 0000027D 66C1EE1C                	shr	esi, 28
  1608 00000281 668B04                  	mov	eax, [si]
  1609 00000284 6669C024010000          	imul	eax, eax, 292
  1610 0000028B 6689C1                  	mov	ecx, eax
  1611 0000028E 6658                    	pop	eax
  1612 00000290 6601C8                  	add	eax, ecx
  1613 00000293 660520010000            	add	eax, 288
  1614 00000299 6689C3                  	mov	ebx, eax
  1615 0000029C 66B800000000            	mov	eax, 0
  1616 000002A2 6689DE                  	mov	esi, ebx
  1617 000002A5 66C1CE04                	ror	esi, 4
  1618 000002A9 8EDE                    	mov	ds, si
  1619 000002AB 66C1EE1C                	shr	esi, 28
  1620 000002AF 668904                  	mov	[si], eax
  1621                                  ; {
  1622                                  
  1623                                  section .rodata
  1624                                  L74:
  1625 000000CA 0A20                    	db	10," "
  1626 000000CC 00                      	times	1 db 0
  1627                                  
  1628                                  section .text
  1629                                  ; RPN'ized expression: "( L74 printStrVideo ) "
  1630                                  ; Expanded expression: " L74  printStrVideo ()4 "
  1631                                  ; Fused expression:    "( L74 , printStrVideo )4 "
  1632                                  section .relod
  1633 0000004C [B4020000]              	dd	L75
  1634                                  section .text
  1635 000002B2 6668                    	db	0x66, 0x68
  1636                                  L75:
  1637 000002B4 [CA000000]              	dd	L74
  1638 000002B8 9A                      	db	0x9A
  1639                                  section .relot
  1640 00000084 [B9020000]              	dd	L76
  1641                                  section .text
  1642                                  L76:
  1643 000002B9 [00000000]              	dd	_printStrVideo
  1644 000002BD 83ECFC                  	sub	sp, -4
  1645                                  
  1646                                  section .rodata
  1647                                  L77:
  1648 000000CD 696E6963474D2829        	db	"inicGM()"
  1649 000000D5 00                      	times	1 db 0
  1650                                  
  1651                                  section .text
  1652                                  ; RPN'ized expression: "( L77 printStrVideo ) "
  1653                                  ; Expanded expression: " L77  printStrVideo ()4 "
  1654                                  ; Fused expression:    "( L77 , printStrVideo )4 "
  1655                                  section .relod
  1656 00000050 [C2020000]              	dd	L78
  1657                                  section .text
  1658 000002C0 6668                    	db	0x66, 0x68
  1659                                  L78:
  1660 000002C2 [CD000000]              	dd	L77
  1661 000002C6 9A                      	db	0x9A
  1662                                  section .relot
  1663 00000088 [C7020000]              	dd	L79
  1664                                  section .text
  1665                                  L79:
  1666 000002C7 [00000000]              	dd	_printStrVideo
  1667 000002CB 83ECFC                  	sub	sp, -4
  1668                                  
  1669                                  section .rodata
  1670                                  L80:
  1671 000000D6 202E2E2E20              	db	" ... "
  1672 000000DB 00                      	times	1 db 0
  1673                                  
  1674                                  section .text
  1675                                  ; RPN'ized expression: "( L80 printStrVideo ) "
  1676                                  ; Expanded expression: " L80  printStrVideo ()4 "
  1677                                  ; Fused expression:    "( L80 , printStrVideo )4 "
  1678                                  section .relod
  1679 00000054 [D0020000]              	dd	L81
  1680                                  section .text
  1681 000002CE 6668                    	db	0x66, 0x68
  1682                                  L81:
  1683 000002D0 [D6000000]              	dd	L80
  1684 000002D4 9A                      	db	0x9A
  1685                                  section .relot
  1686 0000008C [D5020000]              	dd	L82
  1687                                  section .text
  1688                                  L82:
  1689 000002D5 [00000000]              	dd	_printStrVideo
  1690 000002D9 83ECFC                  	sub	sp, -4
  1691                                  ; RPN'ized expression: "( inicGM ) "
  1692                                  ; Expanded expression: " inicGM ()0 "
  1693                                  ; Fused expression:    "( inicGM )0 "
  1694 000002DC 9A                      	db	0x9A
  1695                                  section .relot
  1696 00000090 [DD020000]              	dd	L83
  1697                                  section .text
  1698                                  L83:
  1699 000002DD [00000000]              	dd	_inicGM
  1700                                  ; }
  1701                                  
  1702                                  section .rodata
  1703                                  L84:
  1704 000000DC 0A                      	db	10
  1705 000000DD 0A                      	db	10
  1706 000000DE 2074616D426C6F7175-     	db	" tamBloqueMax = "
  1706 000000E7 654D6178203D20     
  1707 000000EE 00                      	times	1 db 0
  1708                                  
  1709                                  section .text
  1710                                  ; RPN'ized expression: "( L84 printStrVideo ) "
  1711                                  ; Expanded expression: " L84  printStrVideo ()4 "
  1712                                  ; Fused expression:    "( L84 , printStrVideo )4 "
  1713                                  section .relod
  1714 00000058 [E3020000]              	dd	L85
  1715                                  section .text
  1716 000002E1 6668                    	db	0x66, 0x68
  1717                                  L85:
  1718 000002E3 [DC000000]              	dd	L84
  1719 000002E7 9A                      	db	0x9A
  1720                                  section .relot
  1721 00000094 [E8020000]              	dd	L86
  1722                                  section .text
  1723                                  L86:
  1724 000002E8 [00000000]              	dd	_printStrVideo
  1725 000002EC 83ECFC                  	sub	sp, -4
  1726                                  ; RPN'ized expression: "( 1 , tamBloqueMax printDecVideo ) "
  1727                                  ; Expanded expression: " 1  tamBloqueMax *(2)  printDecVideo ()8 "
  1728                                  ; Fused expression:    "( 1 , tamBloqueMax *(2) ax , printDecVideo )8 "
  1729 000002EF 666A01                  	push	dword 1
  1730                                  section .relod
  1731 0000005C [F4020000]              	dd	L87
  1732                                  section .text
  1733 000002F2 66B8                    	db	0x66, 0xB8
  1734                                  L87:
  1735 000002F4 [00000000]              	dd	_tamBloqueMax
  1736 000002F8 6689C3                  	mov	ebx, eax
  1737 000002FB 6689DE                  	mov	esi, ebx
  1738 000002FE 66C1CE04                	ror	esi, 4
  1739 00000302 8EDE                    	mov	ds, si
  1740 00000304 66C1EE1C                	shr	esi, 28
  1741 00000308 8B04                    	mov	ax, [si]
  1742 0000030A 660FB7C0                	movzx	eax, ax
  1743 0000030E 6650                    	push	eax
  1744 00000310 9A                      	db	0x9A
  1745                                  section .relot
  1746 00000098 [11030000]              	dd	L88
  1747                                  section .text
  1748                                  L88:
  1749 00000311 [00000000]              	dd	_printDecVideo
  1750 00000315 83ECF8                  	sub	sp, -8
  1751                                  
  1752                                  section .rodata
  1753                                  L89:
  1754 000000EF 207061726167726166-     	db	" paragrafos ("
  1754 000000F8 6F732028           
  1755 000000FC 00                      	times	1 db 0
  1756                                  
  1757                                  section .text
  1758                                  ; RPN'ized expression: "( L89 printStrVideo ) "
  1759                                  ; Expanded expression: " L89  printStrVideo ()4 "
  1760                                  ; Fused expression:    "( L89 , printStrVideo )4 "
  1761                                  section .relod
  1762 00000060 [1A030000]              	dd	L90
  1763                                  section .text
  1764 00000318 6668                    	db	0x66, 0x68
  1765                                  L90:
  1766 0000031A [EF000000]              	dd	L89
  1767 0000031E 9A                      	db	0x9A
  1768                                  section .relot
  1769 0000009C [1F030000]              	dd	L91
  1770                                  section .text
  1771                                  L91:
  1772 0000031F [00000000]              	dd	_printStrVideo
  1773 00000323 83ECFC                  	sub	sp, -4
  1774                                  ; RPN'ized expression: "( 4 , tamBloqueMax printHexVideo ) "
  1775                                  ; Expanded expression: " 4  tamBloqueMax *(2)  printHexVideo ()8 "
  1776                                  ; Fused expression:    "( 4 , tamBloqueMax *(2) ax , printHexVideo )8 "
  1777 00000326 666A04                  	push	dword 4
  1778                                  section .relod
  1779 00000064 [2B030000]              	dd	L92
  1780                                  section .text
  1781 00000329 66B8                    	db	0x66, 0xB8
  1782                                  L92:
  1783 0000032B [00000000]              	dd	_tamBloqueMax
  1784 0000032F 6689C3                  	mov	ebx, eax
  1785 00000332 6689DE                  	mov	esi, ebx
  1786 00000335 66C1CE04                	ror	esi, 4
  1787 00000339 8EDE                    	mov	ds, si
  1788 0000033B 66C1EE1C                	shr	esi, 28
  1789 0000033F 8B04                    	mov	ax, [si]
  1790 00000341 660FB7C0                	movzx	eax, ax
  1791 00000345 6650                    	push	eax
  1792 00000347 9A                      	db	0x9A
  1793                                  section .relot
  1794 000000A0 [48030000]              	dd	L93
  1795                                  section .text
  1796                                  L93:
  1797 00000348 [00000000]              	dd	_printHexVideo
  1798 0000034C 83ECF8                  	sub	sp, -8
  1799                                  
  1800                                  section .rodata
  1801                                  L94:
  1802 000000FD 29203D20                	db	") = "
  1803 00000101 00                      	times	1 db 0
  1804                                  
  1805                                  section .text
  1806                                  ; RPN'ized expression: "( L94 printStrVideo ) "
  1807                                  ; Expanded expression: " L94  printStrVideo ()4 "
  1808                                  ; Fused expression:    "( L94 , printStrVideo )4 "
  1809                                  section .relod
  1810 00000068 [51030000]              	dd	L95
  1811                                  section .text
  1812 0000034F 6668                    	db	0x66, 0x68
  1813                                  L95:
  1814 00000351 [FD000000]              	dd	L94
  1815 00000355 9A                      	db	0x9A
  1816                                  section .relot
  1817 000000A4 [56030000]              	dd	L96
  1818                                  section .text
  1819                                  L96:
  1820 00000356 [00000000]              	dd	_printStrVideo
  1821 0000035A 83ECFC                  	sub	sp, -4
  1822                                  ; RPN'ized expression: "( 1 , tamBloqueMax 1024 16 / / printDecVideo ) "
  1823                                  ; Expanded expression: " 1  tamBloqueMax *(2) 64 /  printDecVideo ()8 "
  1824                                  ; Fused expression:    "( 1 , tamBloqueMax / *ax 64 , printDecVideo )8 "
  1825 0000035D 666A01                  	push	dword 1
  1826                                  section .relod
  1827 0000006C [62030000]              	dd	L97
  1828                                  section .text
  1829 00000360 66B8                    	db	0x66, 0xB8
  1830                                  L97:
  1831 00000362 [00000000]              	dd	_tamBloqueMax
  1832 00000366 6689C3                  	mov	ebx, eax
  1833 00000369 6689DE                  	mov	esi, ebx
  1834 0000036C 66C1CE04                	ror	esi, 4
  1835 00000370 8EDE                    	mov	ds, si
  1836 00000372 66C1EE1C                	shr	esi, 28
  1837 00000376 8B04                    	mov	ax, [si]
  1838 00000378 660FB7C0                	movzx	eax, ax
  1839 0000037C 6699                    	cdq
  1840 0000037E 66B940000000            	mov	ecx, 64
  1841 00000384 66F7F9                  	idiv	ecx
  1842 00000387 6650                    	push	eax
  1843 00000389 9A                      	db	0x9A
  1844                                  section .relot
  1845 000000A8 [8A030000]              	dd	L98
  1846                                  section .text
  1847                                  L98:
  1848 0000038A [00000000]              	dd	_printDecVideo
  1849 0000038E 83ECF8                  	sub	sp, -8
  1850                                  
  1851                                  section .rodata
  1852                                  L99:
  1853 00000102 204B4279746573          	db	" KBytes"
  1854 00000109 00                      	times	1 db 0
  1855                                  
  1856                                  section .text
  1857                                  ; RPN'ized expression: "( L99 printStrVideo ) "
  1858                                  ; Expanded expression: " L99  printStrVideo ()4 "
  1859                                  ; Fused expression:    "( L99 , printStrVideo )4 "
  1860                                  section .relod
  1861 00000070 [93030000]              	dd	L100
  1862                                  section .text
  1863 00000391 6668                    	db	0x66, 0x68
  1864                                  L100:
  1865 00000393 [02010000]              	dd	L99
  1866 00000397 9A                      	db	0x9A
  1867                                  section .relot
  1868 000000AC [98030000]              	dd	L101
  1869                                  section .text
  1870                                  L101:
  1871 00000398 [00000000]              	dd	_printStrVideo
  1872 0000039C 83ECFC                  	sub	sp, -4
  1873                                  ; RPN'ized expression: "( printLnVideo ) "
  1874                                  ; Expanded expression: " printLnVideo ()0 "
  1875                                  ; Fused expression:    "( printLnVideo )0 "
  1876 0000039F 9A                      	db	0x9A
  1877                                  section .relot
  1878 000000B0 [A0030000]              	dd	L102
  1879                                  section .text
  1880                                  L102:
  1881 000003A0 [00000000]              	dd	_printLnVideo
  1882                                  ; RPN'ized expression: "( mostrarListaLibres ) "
  1883                                  ; Expanded expression: " mostrarListaLibres ()0 "
  1884                                  ; Fused expression:    "( mostrarListaLibres )0 "
  1885 000003A4 9A                      	db	0x9A
  1886                                  section .relot
  1887 000000B4 [A5030000]              	dd	L103
  1888                                  section .text
  1889                                  L103:
  1890 000003A5 [00000000]              	dd	_mostrarListaLibres
  1891                                  
  1892                                  section .rodata
  1893                                  L104:
  1894 0000010A 0A                      	db	10
  1895 0000010B 2053535F4B65726E65-     	db	" SS_Kernel = "
  1895 00000114 6C203D20           
  1896 00000118 00                      	times	1 db 0
  1897                                  
  1898                                  section .text
  1899                                  ; RPN'ized expression: "( L104 printStrVideo ) "
  1900                                  ; Expanded expression: " L104  printStrVideo ()4 "
  1901                                  ; Fused expression:    "( L104 , printStrVideo )4 "
  1902                                  section .relod
  1903 00000074 [AB030000]              	dd	L105
  1904                                  section .text
  1905 000003A9 6668                    	db	0x66, 0x68
  1906                                  L105:
  1907 000003AB [0A010000]              	dd	L104
  1908 000003AF 9A                      	db	0x9A
  1909                                  section .relot
  1910 000000B8 [B0030000]              	dd	L106
  1911                                  section .text
  1912                                  L106:
  1913 000003B0 [00000000]              	dd	_printStrVideo
  1914 000003B4 83ECFC                  	sub	sp, -4
  1915                                  ; RPN'ized expression: "( 4 , SS_Kernel printHexVideo ) "
  1916                                  ; Expanded expression: " 4  SS_Kernel *(2)  printHexVideo ()8 "
  1917                                  ; Fused expression:    "( 4 , SS_Kernel *(2) ax , printHexVideo )8 "
  1918 000003B7 666A04                  	push	dword 4
  1919                                  section .relod
  1920 00000078 [BC030000]              	dd	L107
  1921                                  section .text
  1922 000003BA 66B8                    	db	0x66, 0xB8
  1923                                  L107:
  1924 000003BC [00000000]              	dd	_SS_Kernel
  1925 000003C0 6689C3                  	mov	ebx, eax
  1926 000003C3 6689DE                  	mov	esi, ebx
  1927 000003C6 66C1CE04                	ror	esi, 4
  1928 000003CA 8EDE                    	mov	ds, si
  1929 000003CC 66C1EE1C                	shr	esi, 28
  1930 000003D0 8B04                    	mov	ax, [si]
  1931 000003D2 660FB7C0                	movzx	eax, ax
  1932 000003D6 6650                    	push	eax
  1933 000003D8 9A                      	db	0x9A
  1934                                  section .relot
  1935 000000BC [D9030000]              	dd	L108
  1936                                  section .text
  1937                                  L108:
  1938 000003D9 [00000000]              	dd	_printHexVideo
  1939 000003DD 83ECF8                  	sub	sp, -8
  1940                                  
  1941                                  section .rodata
  1942                                  L109:
  1943 00000119 205350305F4B65726E-     	db	" SP0_Kernel = "
  1943 00000122 656C203D20         
  1944 00000127 00                      	times	1 db 0
  1945                                  
  1946                                  section .text
  1947                                  ; RPN'ized expression: "( L109 printStrVideo ) "
  1948                                  ; Expanded expression: " L109  printStrVideo ()4 "
  1949                                  ; Fused expression:    "( L109 , printStrVideo )4 "
  1950                                  section .relod
  1951 0000007C [E2030000]              	dd	L110
  1952                                  section .text
  1953 000003E0 6668                    	db	0x66, 0x68
  1954                                  L110:
  1955 000003E2 [19010000]              	dd	L109
  1956 000003E6 9A                      	db	0x9A
  1957                                  section .relot
  1958 000000C0 [E7030000]              	dd	L111
  1959                                  section .text
  1960                                  L111:
  1961 000003E7 [00000000]              	dd	_printStrVideo
  1962 000003EB 83ECFC                  	sub	sp, -4
  1963                                  ; RPN'ized expression: "( 4 , 40960 printHexVideo ) "
  1964                                  ; Expanded expression: " 4  40960  printHexVideo ()8 "
  1965                                  ; Fused expression:    "( 4 , 40960 , printHexVideo )8 "
  1966 000003EE 666A04                  	push	dword 4
  1967 000003F1 666800A00000            	push	dword 40960
  1968 000003F7 9A                      	db	0x9A
  1969                                  section .relot
  1970 000000C4 [F8030000]              	dd	L112
  1971                                  section .text
  1972                                  L112:
  1973 000003F8 [00000000]              	dd	_printHexVideo
  1974 000003FC 83ECF8                  	sub	sp, -8
  1975                                  ; RPN'ized expression: "( printLnVideo ) "
  1976                                  ; Expanded expression: " printLnVideo ()0 "
  1977                                  ; Fused expression:    "( printLnVideo )0 "
  1978 000003FF 9A                      	db	0x9A
  1979                                  section .relot
  1980 000000C8 [00040000]              	dd	L113
  1981                                  section .text
  1982                                  L113:
  1983 00000400 [00000000]              	dd	_printLnVideo
  1984                                  ; RPN'ized expression: "( mostrarListaLibres ) "
  1985                                  ; Expanded expression: " mostrarListaLibres ()0 "
  1986                                  ; Fused expression:    "( mostrarListaLibres )0 "
  1987 00000404 9A                      	db	0x9A
  1988                                  section .relot
  1989 000000CC [05040000]              	dd	L114
  1990                                  section .text
  1991                                  L114:
  1992 00000405 [00000000]              	dd	_mostrarListaLibres
  1993                                  ; RPN'ized expression: "( leerScancode ) "
  1994                                  ; Expanded expression: " leerScancode ()0 "
  1995                                  ; Fused expression:    "( leerScancode )0 "
  1996 00000409 9A                      	db	0x9A
  1997                                  section .relot
  1998 000000D0 [0A040000]              	dd	L115
  1999                                  section .text
  2000                                  L115:
  2001 0000040A [00000000]              	dd	_leerScancode
  2002                                  ; RPN'ized expression: "( leerScancode ) "
  2003                                  ; Expanded expression: " leerScancode ()0 "
  2004                                  ; Fused expression:    "( leerScancode )0 "
  2005 0000040E 9A                      	db	0x9A
  2006                                  section .relot
  2007 000000D4 [0F040000]              	dd	L116
  2008                                  section .text
  2009                                  L116:
  2010 0000040F [00000000]              	dd	_leerScancode
  2011                                  ; if
  2012                                  ; RPN'ized expression: "( modoSO1 ) modoSO1_Bin == ( modoSO1 ) modoSO1_Bs == || "
  2013                                  ; Expanded expression: " modoSO1 ()0 0 == [sh||->119]  modoSO1 ()0 2 == ||[119] "
  2014                                  ; Fused expression:    "( modoSO1 )0 == ax 0 [sh||->119] ( modoSO1 )0 == ax 2 ||[119]  "
  2015 00000413 9A                      	db	0x9A
  2016                                  section .relot
  2017 000000D8 [14040000]              	dd	L120
  2018                                  section .text
  2019                                  L120:
  2020 00000414 [00000000]              	dd	_modoSO1
  2021 00000418 6683F800                	cmp	eax, 0
  2022 0000041C 0F94C0                  	sete	al
  2023 0000041F 660FB6C0                	movzx	eax, al
  2024                                  ; JumpIfNotZero
  2025 00000423 6685C0                  	test	eax, eax
  2026 00000426 7510                    	jne	L119
  2027 00000428 9A                      	db	0x9A
  2028                                  section .relot
  2029 000000DC [29040000]              	dd	L121
  2030                                  section .text
  2031                                  L121:
  2032 00000429 [00000000]              	dd	_modoSO1
  2033 0000042D 6683F802                	cmp	eax, 2
  2034 00000431 0F94C0                  	sete	al
  2035 00000434 660FB6C0                	movzx	eax, al
  2036                                  L119:
  2037                                  ; JumpIfZero
  2038 00000438 6685C0                  	test	eax, eax
  2039 0000043B 7425                    	je	L117
  2040                                  ; {
  2041                                  
  2042                                  section .rodata
  2043                                  L122:
  2044 00000128 0A20756E6964616442-     	db	10," unidadBIOS = 0x"
  2044 00000131 494F53203D203078   
  2045 00000139 00                      	times	1 db 0
  2046                                  
  2047                                  section .text
  2048                                  ; RPN'ized expression: "( L122 printStrVideo ) "
  2049                                  ; Expanded expression: " L122  printStrVideo ()4 "
  2050                                  ; Fused expression:    "( L122 , printStrVideo )4 "
  2051                                  section .relod
  2052 00000080 [3F040000]              	dd	L123
  2053                                  section .text
  2054 0000043D 6668                    	db	0x66, 0x68
  2055                                  L123:
  2056 0000043F [28010000]              	dd	L122
  2057 00000443 9A                      	db	0x9A
  2058                                  section .relot
  2059 000000E0 [44040000]              	dd	L124
  2060                                  section .text
  2061                                  L124:
  2062 00000444 [00000000]              	dd	_printStrVideo
  2063 00000448 83ECFC                  	sub	sp, -4
  2064                                  ; RPN'ized expression: "( 2 , ( unidadBIOS ) printHexVideo ) "
  2065                                  ; Expanded expression: " 2   unidadBIOS ()0  printHexVideo ()8 "
  2066                                  ; Fused expression:    "( 2 , ( unidadBIOS )0 , printHexVideo )8 "
  2067 0000044B 666A02                  	push	dword 2
  2068 0000044E 9A                      	db	0x9A
  2069                                  section .relot
  2070 000000E4 [4F040000]              	dd	L125
  2071                                  section .text
  2072                                  L125:
  2073 0000044F [00000000]              	dd	_unidadBIOS
  2074 00000453 6650                    	push	eax
  2075 00000455 9A                      	db	0x9A
  2076                                  section .relot
  2077 000000E8 [56040000]              	dd	L126
  2078                                  section .text
  2079                                  L126:
  2080 00000456 [00000000]              	dd	_printHexVideo
  2081 0000045A 83ECF8                  	sub	sp, -8
  2082                                  ; RPN'ized expression: "( printLnVideo ) "
  2083                                  ; Expanded expression: " printLnVideo ()0 "
  2084                                  ; Fused expression:    "( printLnVideo )0 "
  2085 0000045D 9A                      	db	0x9A
  2086                                  section .relot
  2087 000000EC [5E040000]              	dd	L127
  2088                                  section .text
  2089                                  L127:
  2090 0000045E [00000000]              	dd	_printLnVideo
  2091                                  ; }
  2092                                  L117:
  2093                                  ; RPN'ized expression: "IMRInicial ( valorIMR ) = "
  2094                                  ; Expanded expression: "IMRInicial  valorIMR ()0 =(2) "
  2095                                  ; Fused expression:    "IMRInicial push-ax ( valorIMR )0 =(172) **sp ax "
  2096                                  section .relod
  2097 00000084 [64040000]              	dd	L128
  2098                                  section .text
  2099 00000462 66B8                    	db	0x66, 0xB8
  2100                                  L128:
  2101 00000464 [00000000]              	dd	_IMRInicial
  2102 00000468 6650                    	push	eax
  2103 0000046A 9A                      	db	0x9A
  2104                                  section .relot
  2105 000000F0 [6B040000]              	dd	L129
  2106                                  section .text
  2107                                  L129:
  2108 0000046B [00000000]              	dd	_valorIMR
  2109 0000046F 665B                    	pop	ebx
  2110 00000471 6689DE                  	mov	esi, ebx
  2111 00000474 66C1CE04                	ror	esi, 4
  2112 00000478 8EDE                    	mov	ds, si
  2113 0000047A 66C1EE1C                	shr	esi, 28
  2114 0000047E 8904                    	mov	[si], ax
  2115 00000480 660FB7C0                	movzx	eax, ax
  2116                                  ; {
  2117                                  
  2118                                  section .rodata
  2119                                  L130:
  2120 0000013A 0A20                    	db	10," "
  2121 0000013C 00                      	times	1 db 0
  2122                                  
  2123                                  section .text
  2124                                  ; RPN'ized expression: "( L130 printStrVideo ) "
  2125                                  ; Expanded expression: " L130  printStrVideo ()4 "
  2126                                  ; Fused expression:    "( L130 , printStrVideo )4 "
  2127                                  section .relod
  2128 00000088 [86040000]              	dd	L131
  2129                                  section .text
  2130 00000484 6668                    	db	0x66, 0x68
  2131                                  L131:
  2132 00000486 [3A010000]              	dd	L130
  2133 0000048A 9A                      	db	0x9A
  2134                                  section .relot
  2135 000000F4 [8B040000]              	dd	L132
  2136                                  section .text
  2137                                  L132:
  2138 0000048B [00000000]              	dd	_printStrVideo
  2139 0000048F 83ECFC                  	sub	sp, -4
  2140                                  
  2141                                  section .rodata
  2142                                  L133:
  2143 0000013D 696E69635456492829      	db	"inicTVI()"
  2144 00000146 00                      	times	1 db 0
  2145                                  
  2146                                  section .text
  2147                                  ; RPN'ized expression: "( L133 printStrVideo ) "
  2148                                  ; Expanded expression: " L133  printStrVideo ()4 "
  2149                                  ; Fused expression:    "( L133 , printStrVideo )4 "
  2150                                  section .relod
  2151 0000008C [94040000]              	dd	L134
  2152                                  section .text
  2153 00000492 6668                    	db	0x66, 0x68
  2154                                  L134:
  2155 00000494 [3D010000]              	dd	L133
  2156 00000498 9A                      	db	0x9A
  2157                                  section .relot
  2158 000000F8 [99040000]              	dd	L135
  2159                                  section .text
  2160                                  L135:
  2161 00000499 [00000000]              	dd	_printStrVideo
  2162 0000049D 83ECFC                  	sub	sp, -4
  2163                                  
  2164                                  section .rodata
  2165                                  L136:
  2166 00000147 202E2E2E20              	db	" ... "
  2167 0000014C 00                      	times	1 db 0
  2168                                  
  2169                                  section .text
  2170                                  ; RPN'ized expression: "( L136 printStrVideo ) "
  2171                                  ; Expanded expression: " L136  printStrVideo ()4 "
  2172                                  ; Fused expression:    "( L136 , printStrVideo )4 "
  2173                                  section .relod
  2174 00000090 [A2040000]              	dd	L137
  2175                                  section .text
  2176 000004A0 6668                    	db	0x66, 0x68
  2177                                  L137:
  2178 000004A2 [47010000]              	dd	L136
  2179 000004A6 9A                      	db	0x9A
  2180                                  section .relot
  2181 000000FC [A7040000]              	dd	L138
  2182                                  section .text
  2183                                  L138:
  2184 000004A7 [00000000]              	dd	_printStrVideo
  2185 000004AB 83ECFC                  	sub	sp, -4
  2186                                  ; RPN'ized expression: "( inicTVI ) "
  2187                                  ; Expanded expression: " inicTVI ()0 "
  2188                                  ; Fused expression:    "( inicTVI )0 "
  2189 000004AE 9A                      	db	0x9A
  2190                                  section .relot
  2191 00000100 [AF040000]              	dd	L139
  2192                                  section .text
  2193                                  L139:
  2194 000004AF [00000000]              	dd	_inicTVI
  2195                                  ; }
  2196                                  
  2197                                  section .rodata
  2198                                  L140:
  2199 0000014D 0A2076616C6F72494D-     	db	10," valorIMR() = "
  2199 00000156 522829203D20       
  2200 0000015C 00                      	times	1 db 0
  2201                                  
  2202                                  section .text
  2203                                  ; RPN'ized expression: "( L140 printStrVideo ) "
  2204                                  ; Expanded expression: " L140  printStrVideo ()4 "
  2205                                  ; Fused expression:    "( L140 , printStrVideo )4 "
  2206                                  section .relod
  2207 00000094 [B5040000]              	dd	L141
  2208                                  section .text
  2209 000004B3 6668                    	db	0x66, 0x68
  2210                                  L141:
  2211 000004B5 [4D010000]              	dd	L140
  2212 000004B9 9A                      	db	0x9A
  2213                                  section .relot
  2214 00000104 [BA040000]              	dd	L142
  2215                                  section .text
  2216                                  L142:
  2217 000004BA [00000000]              	dd	_printStrVideo
  2218 000004BE 83ECFC                  	sub	sp, -4
  2219                                  ; RPN'ized expression: "( 4 , ( valorIMR ) printHexVideo ) "
  2220                                  ; Expanded expression: " 4   valorIMR ()0  printHexVideo ()8 "
  2221                                  ; Fused expression:    "( 4 , ( valorIMR )0 , printHexVideo )8 "
  2222 000004C1 666A04                  	push	dword 4
  2223 000004C4 9A                      	db	0x9A
  2224                                  section .relot
  2225 00000108 [C5040000]              	dd	L143
  2226                                  section .text
  2227                                  L143:
  2228 000004C5 [00000000]              	dd	_valorIMR
  2229 000004C9 6650                    	push	eax
  2230 000004CB 9A                      	db	0x9A
  2231                                  section .relot
  2232 0000010C [CC040000]              	dd	L144
  2233                                  section .text
  2234                                  L144:
  2235 000004CC [00000000]              	dd	_printHexVideo
  2236 000004D0 83ECF8                  	sub	sp, -8
  2237                                  
  2238                                  section .rodata
  2239                                  L145:
  2240 0000015D 203D20                  	db	" = "
  2241 00000160 00                      	times	1 db 0
  2242                                  
  2243                                  section .text
  2244                                  ; RPN'ized expression: "( L145 printStrVideo ) "
  2245                                  ; Expanded expression: " L145  printStrVideo ()4 "
  2246                                  ; Fused expression:    "( L145 , printStrVideo )4 "
  2247                                  section .relod
  2248 00000098 [D5040000]              	dd	L146
  2249                                  section .text
  2250 000004D3 6668                    	db	0x66, 0x68
  2251                                  L146:
  2252 000004D5 [5D010000]              	dd	L145
  2253 000004D9 9A                      	db	0x9A
  2254                                  section .relot
  2255 00000110 [DA040000]              	dd	L147
  2256                                  section .text
  2257                                  L147:
  2258 000004DA [00000000]              	dd	_printStrVideo
  2259 000004DE 83ECFC                  	sub	sp, -4
  2260                                  ; for
  2261                                  ; loc     i : (@-8): int
  2262                                  ; RPN'ized expression: "i 0 = "
  2263                                  ; Expanded expression: "(@-8) 0 =(4) "
  2264                                  ; Fused expression:    "=(204) *(@-8) 0 "
  2265 000004E1 66B800000000            	mov	eax, 0
  2266 000004E7 668946F8                	mov	[bp-8], eax
  2267                                  L148:
  2268                                  ; RPN'ized expression: "i 4 < "
  2269                                  ; Expanded expression: "(@-8) *(4) 4 < "
  2270                                  ; Fused expression:    "< *(@-8) 4 IF! "
  2271 000004EB 668B46F8                	mov	eax, [bp-8]
  2272 000004EF 6683F804                	cmp	eax, 4
  2273 000004F3 7D4C                    	jge	L151
  2274                                  ; RPN'ized expression: "i ++p "
  2275                                  ; Expanded expression: "(@-8) ++p(4) "
  2276                                  ; {
  2277                                  ; RPN'ized expression: "( 4 , ( valorIMR ) 12 i 4 * - >> 15 & printBinVideo ) "
  2278                                  ; Expanded expression: " 4   valorIMR ()0 12 (@-8) *(4) 4 * - >> 15 &  printBinVideo ()8 "
  2279                                  ; Fused expression:    "( 4 , ( valorIMR )0 push-ax * *(@-8) 4 - 12 ax >> *sp ax & ax 15 , printBinVideo )8 "
  2280 000004F5 666A04                  	push	dword 4
  2281 000004F8 9A                      	db	0x9A
  2282                                  section .relot
  2283 00000114 [F9040000]              	dd	L152
  2284                                  section .text
  2285                                  L152:
  2286 000004F9 [00000000]              	dd	_valorIMR
  2287 000004FD 6650                    	push	eax
  2288 000004FF 668B46F8                	mov	eax, [bp-8]
  2289 00000503 666BC004                	imul	eax, eax, 4
  2290 00000507 6689C1                  	mov	ecx, eax
  2291 0000050A 66B80C000000            	mov	eax, 12
  2292 00000510 6629C8                  	sub	eax, ecx
  2293 00000513 6689C1                  	mov	ecx, eax
  2294 00000516 6658                    	pop	eax
  2295 00000518 66D3F8                  	sar	eax, cl
  2296 0000051B 6683E00F                	and	eax, 15
  2297 0000051F 6650                    	push	eax
  2298 00000521 9A                      	db	0x9A
  2299                                  section .relot
  2300 00000118 [22050000]              	dd	L153
  2301                                  section .text
  2302                                  L153:
  2303 00000522 [00000000]              	dd	_printBinVideo
  2304 00000526 83ECF8                  	sub	sp, -8
  2305                                  
  2306                                  section .rodata
  2307                                  L154:
  2308 00000161 20                      	db	" "
  2309 00000162 00                      	times	1 db 0
  2310                                  
  2311                                  section .text
  2312                                  ; RPN'ized expression: "( L154 printStrVideo ) "
  2313                                  ; Expanded expression: " L154  printStrVideo ()4 "
  2314                                  ; Fused expression:    "( L154 , printStrVideo )4 "
  2315                                  section .relod
  2316 0000009C [2B050000]              	dd	L155
  2317                                  section .text
  2318 00000529 6668                    	db	0x66, 0x68
  2319                                  L155:
  2320 0000052B [61010000]              	dd	L154
  2321 0000052F 9A                      	db	0x9A
  2322                                  section .relot
  2323 0000011C [30050000]              	dd	L156
  2324                                  section .text
  2325                                  L156:
  2326 00000530 [00000000]              	dd	_printStrVideo
  2327 00000534 83ECFC                  	sub	sp, -4
  2328                                  ; }
  2329                                  L149:
  2330                                  ; Fused expression:    "++p(4) *(@-8) "
  2331 00000537 668B46F8                	mov	eax, [bp-8]
  2332 0000053B 66FF46F8                	inc	dword [bp-8]
  2333 0000053F EBAA                    	jmp	L148
  2334                                  L151:
  2335                                  ; RPN'ized expression: "( printLnVideo ) "
  2336                                  ; Expanded expression: " printLnVideo ()0 "
  2337                                  ; Fused expression:    "( printLnVideo )0 "
  2338 00000541 9A                      	db	0x9A
  2339                                  section .relot
  2340 00000120 [42050000]              	dd	L157
  2341                                  section .text
  2342                                  L157:
  2343 00000542 [00000000]              	dd	_printLnVideo
  2344                                  
  2345                                  section .rodata
  2346                                  L158:
  2347 00000163 0A2072656469726967-     	db	10," redirigirInt(nVIntSO1H, isr_SO1H)"
  2347 0000016C 6972496E74286E5649-
  2347 00000175 6E74534F31482C2069-
  2347 0000017E 73725F534F314829   
  2348 00000186 00                      	times	1 db 0
  2349                                  
  2350                                  section .text
  2351                                  ; RPN'ized expression: "( L158 printStrVideo ) "
  2352                                  ; Expanded expression: " L158  printStrVideo ()4 "
  2353                                  ; Fused expression:    "( L158 , printStrVideo )4 "
  2354                                  section .relod
  2355 000000A0 [48050000]              	dd	L159
  2356                                  section .text
  2357 00000546 6668                    	db	0x66, 0x68
  2358                                  L159:
  2359 00000548 [63010000]              	dd	L158
  2360 0000054C 9A                      	db	0x9A
  2361                                  section .relot
  2362 00000124 [4D050000]              	dd	L160
  2363                                  section .text
  2364                                  L160:
  2365 0000054D [00000000]              	dd	_printStrVideo
  2366 00000551 83ECFC                  	sub	sp, -4
  2367                                  ; RPN'ized expression: "( isr_SO1H , 96 redirigirInt ) "
  2368                                  ; Expanded expression: " isr_SO1H  96  redirigirInt ()8 "
  2369                                  ; Fused expression:    "( isr_SO1H , 96 , redirigirInt )8 "
  2370                                  section .relod
  2371 000000A4 [56050000]              	dd	L161
  2372                                  section .text
  2373 00000554 6668                    	db	0x66, 0x68
  2374                                  L161:
  2375 00000556 [00000000]              	dd	_isr_SO1H
  2376 0000055A 666A60                  	push	dword 96
  2377 0000055D 9A                      	db	0x9A
  2378                                  section .relot
  2379 00000128 [5E050000]              	dd	L162
  2380                                  section .text
  2381                                  L162:
  2382 0000055E [00000000]              	dd	_redirigirInt
  2383 00000562 83ECF8                  	sub	sp, -8
  2384                                  
  2385                                  section .rodata
  2386                                  L163:
  2387 00000187 206E56496E74534F31-     	db	" nVIntSO1H = 0x"
  2387 00000190 48203D203078       
  2388 00000196 00                      	times	1 db 0
  2389                                  
  2390                                  section .text
  2391                                  ; RPN'ized expression: "( L163 printStrVideo ) "
  2392                                  ; Expanded expression: " L163  printStrVideo ()4 "
  2393                                  ; Fused expression:    "( L163 , printStrVideo )4 "
  2394                                  section .relod
  2395 000000A8 [67050000]              	dd	L164
  2396                                  section .text
  2397 00000565 6668                    	db	0x66, 0x68
  2398                                  L164:
  2399 00000567 [87010000]              	dd	L163
  2400 0000056B 9A                      	db	0x9A
  2401                                  section .relot
  2402 0000012C [6C050000]              	dd	L165
  2403                                  section .text
  2404                                  L165:
  2405 0000056C [00000000]              	dd	_printStrVideo
  2406 00000570 83ECFC                  	sub	sp, -4
  2407                                  ; RPN'ized expression: "( 2 , 96 printHexVideo ) "
  2408                                  ; Expanded expression: " 2  96  printHexVideo ()8 "
  2409                                  ; Fused expression:    "( 2 , 96 , printHexVideo )8 "
  2410 00000573 666A02                  	push	dword 2
  2411 00000576 666A60                  	push	dword 96
  2412 00000579 9A                      	db	0x9A
  2413                                  section .relot
  2414 00000130 [7A050000]              	dd	L166
  2415                                  section .text
  2416                                  L166:
  2417 0000057A [00000000]              	dd	_printHexVideo
  2418 0000057E 83ECF8                  	sub	sp, -8
  2419                                  
  2420                                  section .rodata
  2421                                  L167:
  2422 00000197 206973725F534F3148-     	db	" isr_SO1H = 0x"
  2422 000001A0 203D203078         
  2423 000001A5 00                      	times	1 db 0
  2424                                  
  2425                                  section .text
  2426                                  ; RPN'ized expression: "( L167 printStrVideo ) "
  2427                                  ; Expanded expression: " L167  printStrVideo ()4 "
  2428                                  ; Fused expression:    "( L167 , printStrVideo )4 "
  2429                                  section .relod
  2430 000000AC [83050000]              	dd	L168
  2431                                  section .text
  2432 00000581 6668                    	db	0x66, 0x68
  2433                                  L168:
  2434 00000583 [97010000]              	dd	L167
  2435 00000587 9A                      	db	0x9A
  2436                                  section .relot
  2437 00000134 [88050000]              	dd	L169
  2438                                  section .text
  2439                                  L169:
  2440 00000588 [00000000]              	dd	_printStrVideo
  2441 0000058C 83ECFC                  	sub	sp, -4
  2442                                  ; loc     <something> : unsigned
  2443                                  ; RPN'ized expression: "( 5 , isr_SO1H (something170) printLHexVideo ) "
  2444                                  ; Expanded expression: " 5  isr_SO1H  printLHexVideo ()8 "
  2445                                  ; Fused expression:    "( 5 , isr_SO1H , printLHexVideo )8 "
  2446 0000058F 666A05                  	push	dword 5
  2447                                  section .relod
  2448 000000B0 [94050000]              	dd	L171
  2449                                  section .text
  2450 00000592 6668                    	db	0x66, 0x68
  2451                                  L171:
  2452 00000594 [00000000]              	dd	_isr_SO1H
  2453 00000598 9A                      	db	0x9A
  2454                                  section .relot
  2455 00000138 [99050000]              	dd	L172
  2456                                  section .text
  2457                                  L172:
  2458 00000599 [00000000]              	dd	_printLHexVideo
  2459 0000059D 83ECF8                  	sub	sp, -8
  2460                                  
  2461                                  section .rodata
  2462                                  L173:
  2463 000001A6 0A2050756C73652075-     	db	10," Pulse una tecla para continuar ... "
  2463 000001AF 6E61207465636C6120-
  2463 000001B8 7061726120636F6E74-
  2463 000001C1 696E756172202E2E2E-
  2463 000001CA 20                 
  2464 000001CB 00                      	times	1 db 0
  2465                                  
  2466                                  section .text
  2467                                  ; RPN'ized expression: "( L173 printStrVideo ) "
  2468                                  ; Expanded expression: " L173  printStrVideo ()4 "
  2469                                  ; Fused expression:    "( L173 , printStrVideo )4 "
  2470                                  section .relod
  2471 000000B4 [A2050000]              	dd	L174
  2472                                  section .text
  2473 000005A0 6668                    	db	0x66, 0x68
  2474                                  L174:
  2475 000005A2 [A6010000]              	dd	L173
  2476 000005A6 9A                      	db	0x9A
  2477                                  section .relot
  2478 0000013C [A7050000]              	dd	L175
  2479                                  section .text
  2480                                  L175:
  2481 000005A7 [00000000]              	dd	_printStrVideo
  2482 000005AB 83ECFC                  	sub	sp, -4
  2483                                  
  2484                                  section .rodata
  2485                                  L176:
  2486 000001CC 202020202020205520-     	db	"       U N I V E R S I D A D _ P O L I T E C N I C A _ D E _  M A D R I D      "
  2486 000001D5 4E2049205620452052-
  2486 000001DE 205320492044204120-
  2486 000001E7 44205F2050204F204C-
  2486 000001F0 204920542045204320-
  2486 000001F9 4E204920432041205F-
  2486 00000202 20442045205F20204D-
  2486 0000020B 204120442052204920-
  2486 00000214 44202020202020     
  2487 0000021B 00                      	times	1 db 0
  2488                                  
  2489                                  section .text
  2490                                  ; RPN'ized expression: "( 79 , 21 , 0 , 3 , L176 demo_5 ) "
  2491                                  ; Expanded expression: " 79  21  0  3  L176  demo_5 ()20 "
  2492                                  ; Fused expression:    "( 79 , 21 , 0 , 3 , L176 , demo_5 )20 "
  2493 000005AE 666A4F                  	push	dword 79
  2494 000005B1 666A15                  	push	dword 21
  2495 000005B4 666A00                  	push	dword 0
  2496 000005B7 666A03                  	push	dword 3
  2497                                  section .relod
  2498 000000B8 [BC050000]              	dd	L177
  2499                                  section .text
  2500 000005BA 6668                    	db	0x66, 0x68
  2501                                  L177:
  2502 000005BC [CC010000]              	dd	L176
  2503 000005C0 9A                      	db	0x9A
  2504                                  section .relot
  2505 00000140 [C1050000]              	dd	L178
  2506                                  section .text
  2507                                  L178:
  2508 000005C1 [00000000]              	dd	_demo_5
  2509 000005C5 83ECEC                  	sub	sp, -20
  2510                                  ; RPN'ized expression: "( leerScancode ) "
  2511                                  ; Expanded expression: " leerScancode ()0 "
  2512                                  ; Fused expression:    "( leerScancode )0 "
  2513 000005C8 9A                      	db	0x9A
  2514                                  section .relot
  2515 00000144 [C9050000]              	dd	L179
  2516                                  section .text
  2517                                  L179:
  2518 000005C9 [00000000]              	dd	_leerScancode
  2519                                  ; RPN'ized expression: "( leerScancode ) "
  2520                                  ; Expanded expression: " leerScancode ()0 "
  2521                                  ; Fused expression:    "( leerScancode )0 "
  2522 000005CD 9A                      	db	0x9A
  2523                                  section .relot
  2524 00000148 [CE050000]              	dd	L180
  2525                                  section .text
  2526                                  L180:
  2527 000005CE [00000000]              	dd	_leerScancode
  2528                                  ; {
  2529                                  
  2530                                  section .rodata
  2531                                  L181:
  2532 0000021C 0A                      	db	10
  2533 0000021D 00                      	times	1 db 0
  2534                                  
  2535                                  section .text
  2536                                  ; RPN'ized expression: "( L181 printStrVideo ) "
  2537                                  ; Expanded expression: " L181  printStrVideo ()4 "
  2538                                  ; Fused expression:    "( L181 , printStrVideo )4 "
  2539                                  section .relod
  2540 000000BC [D4050000]              	dd	L182
  2541                                  section .text
  2542 000005D2 6668                    	db	0x66, 0x68
  2543                                  L182:
  2544 000005D4 [1C020000]              	dd	L181
  2545 000005D8 9A                      	db	0x9A
  2546                                  section .relot
  2547 0000014C [D9050000]              	dd	L183
  2548                                  section .text
  2549                                  L183:
  2550 000005D9 [00000000]              	dd	_printStrVideo
  2551 000005DD 83ECFC                  	sub	sp, -4
  2552                                  ; RPN'ized expression: "( mostrarListaLibres ) "
  2553                                  ; Expanded expression: " mostrarListaLibres ()0 "
  2554                                  ; Fused expression:    "( mostrarListaLibres )0 "
  2555 000005E0 9A                      	db	0x9A
  2556                                  section .relot
  2557 00000150 [E1050000]              	dd	L184
  2558                                  section .text
  2559                                  L184:
  2560 000005E1 [00000000]              	dd	_mostrarListaLibres
  2561                                  
  2562                                  section .rodata
  2563                                  L185:
  2564 0000021E 0A                      	db	10
  2565 0000021F 0A                      	db	10
  2566 00000220 2074616D426C6F7175-     	db	" tamBloqueMax = "
  2566 00000229 654D6178203D20     
  2567 00000230 00                      	times	1 db 0
  2568                                  
  2569                                  section .text
  2570                                  ; RPN'ized expression: "( L185 printStrVideo ) "
  2571                                  ; Expanded expression: " L185  printStrVideo ()4 "
  2572                                  ; Fused expression:    "( L185 , printStrVideo )4 "
  2573                                  section .relod
  2574 000000C0 [E7050000]              	dd	L186
  2575                                  section .text
  2576 000005E5 6668                    	db	0x66, 0x68
  2577                                  L186:
  2578 000005E7 [1E020000]              	dd	L185
  2579 000005EB 9A                      	db	0x9A
  2580                                  section .relot
  2581 00000154 [EC050000]              	dd	L187
  2582                                  section .text
  2583                                  L187:
  2584 000005EC [00000000]              	dd	_printStrVideo
  2585 000005F0 83ECFC                  	sub	sp, -4
  2586                                  ; RPN'ized expression: "( 1 , tamBloqueMax printDecVideo ) "
  2587                                  ; Expanded expression: " 1  tamBloqueMax *(2)  printDecVideo ()8 "
  2588                                  ; Fused expression:    "( 1 , tamBloqueMax *(2) ax , printDecVideo )8 "
  2589 000005F3 666A01                  	push	dword 1
  2590                                  section .relod
  2591 000000C4 [F8050000]              	dd	L188
  2592                                  section .text
  2593 000005F6 66B8                    	db	0x66, 0xB8
  2594                                  L188:
  2595 000005F8 [00000000]              	dd	_tamBloqueMax
  2596 000005FC 6689C3                  	mov	ebx, eax
  2597 000005FF 6689DE                  	mov	esi, ebx
  2598 00000602 66C1CE04                	ror	esi, 4
  2599 00000606 8EDE                    	mov	ds, si
  2600 00000608 66C1EE1C                	shr	esi, 28
  2601 0000060C 8B04                    	mov	ax, [si]
  2602 0000060E 660FB7C0                	movzx	eax, ax
  2603 00000612 6650                    	push	eax
  2604 00000614 9A                      	db	0x9A
  2605                                  section .relot
  2606 00000158 [15060000]              	dd	L189
  2607                                  section .text
  2608                                  L189:
  2609 00000615 [00000000]              	dd	_printDecVideo
  2610 00000619 83ECF8                  	sub	sp, -8
  2611                                  
  2612                                  section .rodata
  2613                                  L190:
  2614 00000231 207061726167726166-     	db	" paragrafos ("
  2614 0000023A 6F732028           
  2615 0000023E 00                      	times	1 db 0
  2616                                  
  2617                                  section .text
  2618                                  ; RPN'ized expression: "( L190 printStrVideo ) "
  2619                                  ; Expanded expression: " L190  printStrVideo ()4 "
  2620                                  ; Fused expression:    "( L190 , printStrVideo )4 "
  2621                                  section .relod
  2622 000000C8 [1E060000]              	dd	L191
  2623                                  section .text
  2624 0000061C 6668                    	db	0x66, 0x68
  2625                                  L191:
  2626 0000061E [31020000]              	dd	L190
  2627 00000622 9A                      	db	0x9A
  2628                                  section .relot
  2629 0000015C [23060000]              	dd	L192
  2630                                  section .text
  2631                                  L192:
  2632 00000623 [00000000]              	dd	_printStrVideo
  2633 00000627 83ECFC                  	sub	sp, -4
  2634                                  ; RPN'ized expression: "( 4 , tamBloqueMax printHexVideo ) "
  2635                                  ; Expanded expression: " 4  tamBloqueMax *(2)  printHexVideo ()8 "
  2636                                  ; Fused expression:    "( 4 , tamBloqueMax *(2) ax , printHexVideo )8 "
  2637 0000062A 666A04                  	push	dword 4
  2638                                  section .relod
  2639 000000CC [2F060000]              	dd	L193
  2640                                  section .text
  2641 0000062D 66B8                    	db	0x66, 0xB8
  2642                                  L193:
  2643 0000062F [00000000]              	dd	_tamBloqueMax
  2644 00000633 6689C3                  	mov	ebx, eax
  2645 00000636 6689DE                  	mov	esi, ebx
  2646 00000639 66C1CE04                	ror	esi, 4
  2647 0000063D 8EDE                    	mov	ds, si
  2648 0000063F 66C1EE1C                	shr	esi, 28
  2649 00000643 8B04                    	mov	ax, [si]
  2650 00000645 660FB7C0                	movzx	eax, ax
  2651 00000649 6650                    	push	eax
  2652 0000064B 9A                      	db	0x9A
  2653                                  section .relot
  2654 00000160 [4C060000]              	dd	L194
  2655                                  section .text
  2656                                  L194:
  2657 0000064C [00000000]              	dd	_printHexVideo
  2658 00000650 83ECF8                  	sub	sp, -8
  2659                                  
  2660                                  section .rodata
  2661                                  L195:
  2662 0000023F 29203D20                	db	") = "
  2663 00000243 00                      	times	1 db 0
  2664                                  
  2665                                  section .text
  2666                                  ; RPN'ized expression: "( L195 printStrVideo ) "
  2667                                  ; Expanded expression: " L195  printStrVideo ()4 "
  2668                                  ; Fused expression:    "( L195 , printStrVideo )4 "
  2669                                  section .relod
  2670 000000D0 [55060000]              	dd	L196
  2671                                  section .text
  2672 00000653 6668                    	db	0x66, 0x68
  2673                                  L196:
  2674 00000655 [3F020000]              	dd	L195
  2675 00000659 9A                      	db	0x9A
  2676                                  section .relot
  2677 00000164 [5A060000]              	dd	L197
  2678                                  section .text
  2679                                  L197:
  2680 0000065A [00000000]              	dd	_printStrVideo
  2681 0000065E 83ECFC                  	sub	sp, -4
  2682                                  ; RPN'ized expression: "( 1 , tamBloqueMax 1024 16 / / printDecVideo ) "
  2683                                  ; Expanded expression: " 1  tamBloqueMax *(2) 64 /  printDecVideo ()8 "
  2684                                  ; Fused expression:    "( 1 , tamBloqueMax / *ax 64 , printDecVideo )8 "
  2685 00000661 666A01                  	push	dword 1
  2686                                  section .relod
  2687 000000D4 [66060000]              	dd	L198
  2688                                  section .text
  2689 00000664 66B8                    	db	0x66, 0xB8
  2690                                  L198:
  2691 00000666 [00000000]              	dd	_tamBloqueMax
  2692 0000066A 6689C3                  	mov	ebx, eax
  2693 0000066D 6689DE                  	mov	esi, ebx
  2694 00000670 66C1CE04                	ror	esi, 4
  2695 00000674 8EDE                    	mov	ds, si
  2696 00000676 66C1EE1C                	shr	esi, 28
  2697 0000067A 8B04                    	mov	ax, [si]
  2698 0000067C 660FB7C0                	movzx	eax, ax
  2699 00000680 6699                    	cdq
  2700 00000682 66B940000000            	mov	ecx, 64
  2701 00000688 66F7F9                  	idiv	ecx
  2702 0000068B 6650                    	push	eax
  2703 0000068D 9A                      	db	0x9A
  2704                                  section .relot
  2705 00000168 [8E060000]              	dd	L199
  2706                                  section .text
  2707                                  L199:
  2708 0000068E [00000000]              	dd	_printDecVideo
  2709 00000692 83ECF8                  	sub	sp, -8
  2710                                  
  2711                                  section .rodata
  2712                                  L200:
  2713 00000244 204B4279746573          	db	" KBytes"
  2714 0000024B 00                      	times	1 db 0
  2715                                  
  2716                                  section .text
  2717                                  ; RPN'ized expression: "( L200 printStrVideo ) "
  2718                                  ; Expanded expression: " L200  printStrVideo ()4 "
  2719                                  ; Fused expression:    "( L200 , printStrVideo )4 "
  2720                                  section .relod
  2721 000000D8 [97060000]              	dd	L201
  2722                                  section .text
  2723 00000695 6668                    	db	0x66, 0x68
  2724                                  L201:
  2725 00000697 [44020000]              	dd	L200
  2726 0000069B 9A                      	db	0x9A
  2727                                  section .relot
  2728 0000016C [9C060000]              	dd	L202
  2729                                  section .text
  2730                                  L202:
  2731 0000069C [00000000]              	dd	_printStrVideo
  2732 000006A0 83ECFC                  	sub	sp, -4
  2733                                  ; }
  2734                                  ; RPN'ized expression: "( leerScancode ) "
  2735                                  ; Expanded expression: " leerScancode ()0 "
  2736                                  ; Fused expression:    "( leerScancode )0 "
  2737 000006A3 9A                      	db	0x9A
  2738                                  section .relot
  2739 00000170 [A4060000]              	dd	L203
  2740                                  section .text
  2741                                  L203:
  2742 000006A4 [00000000]              	dd	_leerScancode
  2743                                  ; RPN'ized expression: "( leerScancode ) "
  2744                                  ; Expanded expression: " leerScancode ()0 "
  2745                                  ; Fused expression:    "( leerScancode )0 "
  2746 000006A8 9A                      	db	0x9A
  2747                                  section .relot
  2748 00000174 [A9060000]              	dd	L204
  2749                                  section .text
  2750                                  L204:
  2751 000006A9 [00000000]              	dd	_leerScancode
  2752                                  ; RPN'ized expression: "( IMRInicial establecerIMR ) "
  2753                                  ; Expanded expression: " IMRInicial *(2)  establecerIMR ()4 "
  2754                                  ; Fused expression:    "( IMRInicial *(2) ax , establecerIMR )4 "
  2755                                  section .relod
  2756 000000DC [AF060000]              	dd	L205
  2757                                  section .text
  2758 000006AD 66B8                    	db	0x66, 0xB8
  2759                                  L205:
  2760 000006AF [00000000]              	dd	_IMRInicial
  2761 000006B3 6689C3                  	mov	ebx, eax
  2762 000006B6 6689DE                  	mov	esi, ebx
  2763 000006B9 66C1CE04                	ror	esi, 4
  2764 000006BD 8EDE                    	mov	ds, si
  2765 000006BF 66C1EE1C                	shr	esi, 28
  2766 000006C3 8B04                    	mov	ax, [si]
  2767 000006C5 660FB7C0                	movzx	eax, ax
  2768 000006C9 6650                    	push	eax
  2769 000006CB 9A                      	db	0x9A
  2770                                  section .relot
  2771 00000178 [CC060000]              	dd	L206
  2772                                  section .text
  2773                                  L206:
  2774 000006CC [00000000]              	dd	_establecerIMR
  2775 000006D0 83ECFC                  	sub	sp, -4
  2776                                  ; RPN'ized expression: "( loQueHay tirarS0 ) "
  2777                                  ; Expanded expression: " (@-4) *(2)  tirarS0 ()4 "
  2778                                  ; Fused expression:    "( *(2) (@-4) , tirarS0 )4 "
  2779 000006D3 8B46FC                  	mov	ax, [bp-4]
  2780 000006D6 660FB7C0                	movzx	eax, ax
  2781 000006DA 6650                    	push	eax
  2782 000006DC 9A                      	db	0x9A
  2783                                  section .relot
  2784 0000017C [DD060000]              	dd	L207
  2785                                  section .text
  2786                                  L207:
  2787 000006DD [00000000]              	dd	_tirarS0
  2788 000006E1 83ECFC                  	sub	sp, -4
  2789                                  ; Fused expression:    "0  "
  2790 000006E4 66B800000000            	mov	eax, 0
  2791                                  L1:
  2792 000006EA 66                      	db	0x66
  2793 000006EB C9                      	leave
  2794 000006EC CB                      	retf
  2795                                  L208:
  2796                                  
  2797                                  section .fxnsz noalloc
  2798 00000000 ED060000                	dd	L208 - _main
  2799                                  
  2800                                  
  2801                                  	extern	_modoSO1
  2802                                  	extern	_salvarPantallaInicial
  2803                                  	extern	_scrollBIOS
  2804                                  	extern	_inicMemVideo
  2805                                  	extern	_ocultaCursorBIOS
  2806                                  	extern	_mirarLoQueHay
  2807                                  	extern	_mostrarLoQueHay
  2808                                  	extern	_mostrarFlags
  2809                                  	extern	_printStrVideo
  2810                                  	extern	_printLnVideo
  2811                                  	extern	_valorFlags
  2812                                  	extern	_assert
  2813                                  	extern	_obtenerMapa
  2814                                  	extern	_CS_SO1H
  2815                                  	extern	_printHexVideo
  2816                                  	extern	_RO_SO1H
  2817                                  	extern	_DS_SO1H
  2818                                  	extern	_BSS_SO1H
  2819                                  	extern	_SS_SO1H
  2820                                  	extern	_mostrarSecciones
  2821                                  	extern	_leerScancode
  2822                                  	extern	_inicProcesos
  2823                                  	extern	_descProceso
  2824                                  	extern	_indProcesoActual
  2825                                  	extern	_inicGM
  2826                                  	extern	_tamBloqueMax
  2827                                  	extern	_printDecVideo
  2828                                  	extern	_mostrarListaLibres
  2829                                  	extern	_SS_Kernel
  2830                                  	extern	_unidadBIOS
  2831                                  	extern	_IMRInicial
  2832                                  	extern	_valorIMR
  2833                                  	extern	_inicTVI
  2834                                  	extern	_printBinVideo
  2835                                  	extern	_isr_SO1H
  2836                                  	extern	_redirigirInt
  2837                                  	extern	_printLHexVideo
  2838                                  	extern	_demo_5
  2839                                  	extern	_establecerIMR
  2840                                  	extern	_tirarS0
  2841                                  
  2842                                  ; Syntax/declaration table/stack:
  2843                                  ; Bytes used: 18000/40960
  2844                                  
  2845                                  
  2846                                  ; Macro table:
  2847                                  ; Macro __SMALLER_C__ = `0x0100`
  2848                                  ; Macro __SMALLER_C_32__ = ``
  2849                                  ; Macro __HUGE__ = ``
  2850                                  ; Macro __SMALLER_C_SCHAR__ = ``
  2851                                  ; Bytes used: 74/5120
  2852                                  
  2853                                  
  2854                                  ; Identifier table:
  2855                                  ; Ident __floatsisf
  2856                                  ; Ident __floatunsisf
  2857                                  ; Ident __fixsfsi
  2858                                  ; Ident __fixunssfsi
  2859                                  ; Ident __addsf3
  2860                                  ; Ident __subsf3
  2861                                  ; Ident __negsf2
  2862                                  ; Ident __mulsf3
  2863                                  ; Ident __divsf3
  2864                                  ; Ident __lesf2
  2865                                  ; Ident __gesf2
  2866                                  ; Ident intptr_t
  2867                                  ; Ident uintptr_t
  2868                                  ; Ident intmax_t
  2869                                  ; Ident uintmax_t
  2870                                  ; Ident int8_t
  2871                                  ; Ident int_least8_t
  2872                                  ; Ident int_fast8_t
  2873                                  ; Ident uint8_t
  2874                                  ; Ident uint_least8_t
  2875                                  ; Ident uint_fast8_t
  2876                                  ; Ident int16_t
  2877                                  ; Ident int_least16_t
  2878                                  ; Ident int_fast16_t
  2879                                  ; Ident uint16_t
  2880                                  ; Ident uint_least16_t
  2881                                  ; Ident uint_fast16_t
  2882                                  ; Ident int32_t
  2883                                  ; Ident int_least32_t
  2884                                  ; Ident int_fast32_t
  2885                                  ; Ident uint32_t
  2886                                  ; Ident uint_least32_t
  2887                                  ; Ident uint_fast32_t
  2888                                  ; Ident <something>
  2889                                  ; Ident quot
  2890                                  ; Ident rem
  2891                                  ; Ident imaxdiv_t
  2892                                  ; Ident FALSE
  2893                                  ; Ident TRUE
  2894                                  ; Ident bool_t
  2895                                  ; Ident pointer_t
  2896                                  ; Ident funcion_t
  2897                                  ; Ident manejador_t
  2898                                  ; Ident rti_t
  2899                                  ; Ident isr_t
  2900                                  ; Ident handler_t
  2901                                  ; Ident retardarThread_t
  2902                                  ; Ident ptrTVI_t
  2903                                  ; Ident modoSO1_Bin
  2904                                  ; Ident modoSO1_Exe
  2905                                  ; Ident modoSO1_Bs
  2906                                  ; Ident modoSO1_t
  2907                                  ; Ident lo
  2908                                  ; Ident hi
  2909                                  ; Ident lh_t
  2910                                  ; Ident offset
  2911                                  ; Ident segment
  2912                                  ; Ident address_t
  2913                                  ; Ident ptr
  2914                                  ; Ident adr
  2915                                  ; Ident uPtrAdr_t
  2916                                  ; Ident pid_t
  2917                                  ; Ident tid_t
  2918                                  ; Ident uid_t
  2919                                  ; Ident gid_t
  2920                                  ; Ident pindx_t
  2921                                  ; Ident tindx_t
  2922                                  ; Ident df_t
  2923                                  ; Ident dfs_t
  2924                                  ; Ident rindx_t
  2925                                  ; Ident tipoOrdenador
  2926                                  ; Ident rebootLegacy
  2927                                  ; Ident tipoTeclado
  2928                                  ; Ident leerTeclaBIOS
  2929                                  ; Ident leerTeclaExtBIOS
  2930                                  ; Ident teclaListaBIOS
  2931                                  ; Ident leerTeclaListaBDA
  2932                                  ; Ident teclaListaBDA
  2933                                  ; Ident printCarBIOS
  2934                                  ; Ident car
  2935                                  ; Ident printCarPagBIOS
  2936                                  ; Ident pag
  2937                                  ; Ident printCarAtrPagBIOS
  2938                                  ; Ident atr
  2939                                  ; Ident printLnBIOS
  2940                                  ; Ident printStrBIOS
  2941                                  ; Ident str
  2942                                  ; Ident printStrHastaBIOS
  2943                                  ; Ident n
  2944                                  ; Ident lleno
  2945                                  ; Ident printDecBIOS
  2946                                  ; Ident num
  2947                                  ; Ident l
  2948                                  ; Ident printLDecBIOS
  2949                                  ; Ident printIntBIOS
  2950                                  ; Ident printLIntBIOS
  2951                                  ; Ident printHexBIOS
  2952                                  ; Ident printLHexBIOS
  2953                                  ; Ident printBinBIOS
  2954                                  ; Ident printLBinBIOS
  2955                                  ; Ident printPtrBIOS
  2956                                  ; Ident printByteBIOS
  2957                                  ; Ident b
  2958                                  ; Ident printWordBIOS
  2959                                  ; Ident w
  2960                                  ; Ident printCadBIOS
  2961                                  ; Ident cad
  2962                                  ; Ident esperarTicsBIOS
  2963                                  ; Ident tics
  2964                                  ; Ident modoDeVideo
  2965                                  ; Ident establecerModoDeVideo
  2966                                  ; Ident modo
  2967                                  ; Ident paginaActiva
  2968                                  ; Ident establecerPaginaActiva
  2969                                  ; Ident numPagsVideo
  2970                                  ; Ident scrollPagBDA
  2971                                  ; Ident numLineas
  2972                                  ; Ident scrollPagBIOS
  2973                                  ; Ident scrollBIOS
  2974                                  ; Ident goToXYPag
  2975                                  ; Ident fila
  2976                                  ; Ident columna
  2977                                  ; Ident goToXYBIOS
  2978                                  ; Ident setCursorBIOS
  2979                                  ; Ident linea1
  2980                                  ; Ident linea2
  2981                                  ; Ident ocultaCursorBIOS
  2982                                  ; Ident readXYPagBIOS
  2983                                  ; Ident readXYBIOS
  2984                                  ; Ident memBIOS
  2985                                  ; Ident enviarBIOS
  2986                                  ; Ident recibirBIOS
  2987                                  ; Ident hayApmBIOS
  2988                                  ; Ident version
  2989                                  ; Ident connectApmBIOS
  2990                                  ; Ident disconnectApmBIOS
  2991                                  ; Ident cpuIdleBIOS
  2992                                  ; Ident cpuBusyBIOS
  2993                                  ; Ident HWLIST_t
  2994                                  ; Ident KBDFLAGS_t
  2995                                  ; Ident KBDSTATUS_t
  2996                                  ; Ident VIDEOCONTROL_t
  2997                                  ; Ident DRECSTATUS_t
  2998                                  ; Ident DMOTORSTATUS_t
  2999                                  ; Ident FDOPSTATUS_t
  3000                                  ; Ident VIDEOSWITCHES_t
  3001                                  ; Ident VGAOPTIONS_t
  3002                                  ; Ident VIDEO_paramtbl
  3003                                  ; Ident VIDEO_dynsavearea
  3004                                  ; Ident VIDEO_text_charset
  3005                                  ; Ident VIDEO_graph_charset
  3006                                  ; Ident VIDEO_savetbl2
  3007                                  ; Ident VIDEOSAVETBL_t
  3008                                  ; Ident VPARAM_width
  3009                                  ; Ident VPARAM_height
  3010                                  ; Ident VPARAM_hchar
  3011                                  ; Ident VPARAM_pagesize
  3012                                  ; Ident VPARAM_SEQC
  3013                                  ; Ident VPARAM_MISC
  3014                                  ; Ident VPARAM_CRTC
  3015                                  ; Ident VPARAM_ATC
  3016                                  ; Ident VPARAM_GRC
  3017                                  ; Ident VIDEOPARAM_t
  3018                                  ; Ident IVT
  3019                                  ; Ident COM_base
  3020                                  ; Ident LPT_base
  3021                                  ; Ident XBDA_seg
  3022                                  ; Ident HW_list
  3023                                  ; Ident relleno1
  3024                                  ; Ident basemem_K
  3025                                  ; Ident relleno2
  3026                                  ; Ident KBD_flags
  3027                                  ; Ident relleno3
  3028                                  ; Ident KBD_bufhead
  3029                                  ; Ident KBD_buftail
  3030                                  ; Ident KBD_buffer
  3031                                  ; Ident dRecStatus
  3032                                  ; Ident dMotorStatus
  3033                                  ; Ident motorShutoffCounter
  3034                                  ; Ident fdOpStatus
  3035                                  ; Ident relleno4
  3036                                  ; Ident VIDEO_mode
  3037                                  ; Ident VIDEO_width
  3038                                  ; Ident VIDEO_pagesize
  3039                                  ; Ident VIDEO_pageoff
  3040                                  ; Ident CURSOR_pos
  3041                                  ; Ident CURSOR_shape
  3042                                  ; Ident VIDEO_pagActiva
  3043                                  ; Ident CRTC_base
  3044                                  ; Ident CRT_MODE
  3045                                  ; Ident CRT_PALETTE
  3046                                  ; Ident relleno5
  3047                                  ; Ident BIOS_timer
  3048                                  ; Ident BIOS_overflow
  3049                                  ; Ident BIOS_ctrlbreak
  3050                                  ; Ident BIOS_POSTreset
  3051                                  ; Ident relleno6
  3052                                  ; Ident BIOS_HD_cnt
  3053                                  ; Ident relleno7
  3054                                  ; Ident LPT_timeout
  3055                                  ; Ident BIOS_4B_flags
  3056                                  ; Ident COM_timeout
  3057                                  ; Ident KBD_start
  3058                                  ; Ident KBD_end1
  3059                                  ; Ident VIDEO_lastrow
  3060                                  ; Ident VIDEO_hchar
  3061                                  ; Ident VIDEO_control
  3062                                  ; Ident VIDEO_switches
  3063                                  ; Ident VGA_options
  3064                                  ; Ident VGA_DCC_index
  3065                                  ; Ident relleno8
  3066                                  ; Ident KBD_status
  3067                                  ; Ident TIMER_waitflag
  3068                                  ; Ident TIMER_waitmks
  3069                                  ; Ident TIMER_active
  3070                                  ; Ident relleno9
  3071                                  ; Ident VIDEO_ptrtable
  3072                                  ; Ident relleno10
  3073                                  ; Ident IAC
  3074                                  ; Ident BIOSAREA_t
  3075                                  ; Ident ptrBiosArea
  3076                                  ; Ident ptrFechaBios
  3077                                  ; Ident salvarPantallaInicial
  3078                                  ; Ident restaurarPantallaInicial
  3079                                  ; Ident puntoDeParada
  3080                                  ; Ident assert
  3081                                  ; Ident condicion
  3082                                  ; Ident valorFlags
  3083                                  ; Ident mostrarFlags
  3084                                  ; Ident debug_parar
  3085                                  ; Ident inportb
  3086                                  ; Ident port
  3087                                  ; Ident inport
  3088                                  ; Ident outport
  3089                                  ; Ident val
  3090                                  ; Ident outportb
  3091                                  ; Ident inportb_r
  3092                                  ; Ident outportb_r
  3093                                  ; Ident contadorTimer0
  3094                                  ; Ident ptrTVI
  3095                                  ; Ident valorIMR
  3096                                  ; Ident establecerIMR
  3097                                  ; Ident nuevoIMR
  3098                                  ; Ident mask_pic1
  3099                                  ; Ident irq
  3100                                  ; Ident mask_pic2
  3101                                  ; Ident unmask_pic1
  3102                                  ; Ident unmask_pic2
  3103                                  ; Ident get_pic1_isr
  3104                                  ; Ident get_pic2_isr
  3105                                  ; Ident set_pics
  3106                                  ; Ident irq0
  3107                                  ; Ident irq8
  3108                                  ; Ident pic_setup
  3109                                  ; Ident enable_hwirq
  3110                                  ; Ident hwirq
  3111                                  ; Ident rti
  3112                                  ; Ident _start__text
  3113                                  ; Ident _stop__text
  3114                                  ; Ident _start__rodata
  3115                                  ; Ident _stop__rodata
  3116                                  ; Ident _start__data
  3117                                  ; Ident _stop__data
  3118                                  ; Ident _start__bss
  3119                                  ; Ident _stop__bss
  3120                                  ; Ident _start_allcode__
  3121                                  ; Ident _stop_allcode__
  3122                                  ; Ident _start_alldata__
  3123                                  ; Ident _stop_alldata__
  3124                                  ; Ident mostrarSeccion
  3125                                  ; Ident start
  3126                                  ; Ident stop
  3127                                  ; Ident descripcion
  3128                                  ; Ident mostrarSecciones
  3129                                  ; Ident modoAp_t
  3130                                  ; Ident DS
  3131                                  ; Ident ES
  3132                                  ; Ident EDI
  3133                                  ; Ident ESI
  3134                                  ; Ident EBP
  3135                                  ; Ident ESP
  3136                                  ; Ident EBX
  3137                                  ; Ident EDX
  3138                                  ; Ident ECX
  3139                                  ; Ident EAX
  3140                                  ; Ident IP
  3141                                  ; Ident CS
  3142                                  ; Ident Flags
  3143                                  ; Ident tramaDWords_t
  3144                                  ; Ident DI
  3145                                  ; Ident rDI
  3146                                  ; Ident SI
  3147                                  ; Ident rSI
  3148                                  ; Ident BP
  3149                                  ; Ident rBP
  3150                                  ; Ident SP
  3151                                  ; Ident rSP
  3152                                  ; Ident BX
  3153                                  ; Ident rBX
  3154                                  ; Ident DX
  3155                                  ; Ident rDX
  3156                                  ; Ident CX
  3157                                  ; Ident rCX
  3158                                  ; Ident AX
  3159                                  ; Ident rAX
  3160                                  ; Ident tramaWords_t
  3161                                  ; Ident BL
  3162                                  ; Ident BH
  3163                                  ; Ident rB
  3164                                  ; Ident DL
  3165                                  ; Ident DH
  3166                                  ; Ident rD
  3167                                  ; Ident CL
  3168                                  ; Ident CH
  3169                                  ; Ident rC
  3170                                  ; Ident AL
  3171                                  ; Ident AH
  3172                                  ; Ident rA
  3173                                  ; Ident tramaBytes_t
  3174                                  ; Ident td
  3175                                  ; Ident tw
  3176                                  ; Ident tb
  3177                                  ; Ident trama_t
  3178                                  ; Ident tam
  3179                                  ; Ident sig
  3180                                  ; Ident ant
  3181                                  ; Ident aux
  3182                                  ; Ident relleno
  3183                                  ; Ident bloque_t
  3184                                  ; Ident ptrBloque_t
  3185                                  ; Ident cab
  3186                                  ; Ident dobleEnlace_t
  3187                                  ; Ident numElem
  3188                                  ; Ident primero
  3189                                  ; Ident cabecera
  3190                                  ; Ident e
  3191                                  ; Ident c2c_t
  3192                                  ; Ident posicionC2c
  3193                                  ; Ident i
  3194                                  ; Ident c2c
  3195                                  ; Ident eliminarC2c
  3196                                  ; Ident apilarC2c
  3197                                  ; Ident encolarC2c
  3198                                  ; Ident desencolarC2c
  3199                                  ; Ident inicializarC2c
  3200                                  ; Ident compartida
  3201                                  ; Ident ptrC2c_t
  3202                                  ; Ident posicionPC2c
  3203                                  ; Ident eliminarPC2c
  3204                                  ; Ident ptrC2c
  3205                                  ; Ident apilarPC2c
  3206                                  ; Ident encolarPC2c
  3207                                  ; Ident desencolarPC2c
  3208                                  ; Ident inicializarPC2c
  3209                                  ; Ident callBack_t
  3210                                  ; Ident arg
  3211                                  ; Ident in
  3212                                  ; Ident out
  3213                                  ; Ident max
  3214                                  ; Ident callBack
  3215                                  ; Ident descCcb_t
  3216                                  ; Ident ccb_t
  3217                                  ; Ident inicCcb
  3218                                  ; Ident ccb
  3219                                  ; Ident encolarCcb
  3220                                  ; Ident cb
  3221                                  ; Ident desencolarCcb
  3222                                  ; Ident eliminarCcb
  3223                                  ; Ident eliminarSegCcb
  3224                                  ; Ident segmento
  3225                                  ; Ident vaciarCcb
  3226                                  ; Ident atenderCcb
  3227                                  ; Ident libre
  3228                                  ; Ident preparado
  3229                                  ; Ident ejecutandose
  3230                                  ; Ident bloqueado
  3231                                  ; Ident estado_t
  3232                                  ; Ident modoAp
  3233                                  ; Ident dfs
  3234                                  ; Ident pos
  3235                                  ; Ident dfa_t
  3236                                  ; Ident pid
  3237                                  ; Ident noStatus
  3238                                  ; Ident status
  3239                                  ; Ident ppindx
  3240                                  ; Ident hpindx
  3241                                  ; Ident c2cHijos
  3242                                  ; Ident c2cThreads
  3243                                  ; Ident CSProc
  3244                                  ; Ident tamCodigo
  3245                                  ; Ident desplBSS
  3246                                  ; Ident desplPila
  3247                                  ; Ident tamFichero
  3248                                  ; Ident programa
  3249                                  ; Ident comando
  3250                                  ; Ident nfa
  3251                                  ; Ident tfa
  3252                                  ; Ident uid
  3253                                  ; Ident gid
  3254                                  ; Ident descProceso_t
  3255                                  ; Ident tid
  3256                                  ; Ident estado
  3257                                  ; Ident esperandoPor
  3258                                  ; Ident trama
  3259                                  ; Ident ptindx
  3260                                  ; Ident htindx
  3261                                  ; Ident pindx
  3262                                  ; Ident SSThread
  3263                                  ; Ident SP0
  3264                                  ; Ident descThread_t
  3265                                  ; Ident flibre
  3266                                  ; Ident fRegular
  3267                                  ; Ident fedBloques
  3268                                  ; Ident fedCaracteres
  3269                                  ; Ident tuberia
  3270                                  ; Ident tipoFichero_t
  3271                                  ; Ident tipo
  3272                                  ; Ident nombre
  3273                                  ; Ident rindx
  3274                                  ; Ident menor
  3275                                  ; Ident shareMode
  3276                                  ; Ident contAp_L
  3277                                  ; Ident contAp_E
  3278                                  ; Ident descFichero_t
  3279                                  ; Ident rLibre
  3280                                  ; Ident rDCaracteres
  3281                                  ; Ident rDBloques
  3282                                  ; Ident rTuberia
  3283                                  ; Ident rGP
  3284                                  ; Ident rGM
  3285                                  ; Ident rSF
  3286                                  ; Ident rOtro
  3287                                  ; Ident tipoRecurso_t
  3288                                  ; Ident open_t
  3289                                  ; Ident release_t
  3290                                  ; Ident read_t
  3291                                  ; Ident dir
  3292                                  ; Ident nbytes
  3293                                  ; Ident aio_read_t
  3294                                  ; Ident write_t
  3295                                  ; Ident aio_write_t
  3296                                  ; Ident lseek_t
  3297                                  ; Ident whence
  3298                                  ; Ident fcntl_t
  3299                                  ; Ident cmd
  3300                                  ; Ident ioctl_t
  3301                                  ; Ident request
  3302                                  ; Ident eliminar_t
  3303                                  ; Ident tindx
  3304                                  ; Ident c2cFichRec
  3305                                  ; Ident numVI
  3306                                  ; Ident nVInt
  3307                                  ; Ident isr
  3308                                  ; Ident open
  3309                                  ; Ident release
  3310                                  ; Ident read
  3311                                  ; Ident aio_read
  3312                                  ; Ident write
  3313                                  ; Ident aio_write
  3314                                  ; Ident lseek
  3315                                  ; Ident fcntl
  3316                                  ; Ident ioctl
  3317                                  ; Ident eliminar
  3318                                  ; Ident descRecurso_t
  3319                                  ; Ident SP0_So1
  3320                                  ; Ident IMR
  3321                                  ; Ident modoSO1
  3322                                  ; Ident ptrDebugWord
  3323                                  ; Ident info_t
  3324                                  ; Ident signatura
  3325                                  ; Ident bytesUltSector
  3326                                  ; Ident sectores
  3327                                  ; Ident numDirReub
  3328                                  ; Ident numParCabecera
  3329                                  ; Ident minAlloc
  3330                                  ; Ident maxAlloc
  3331                                  ; Ident SS0
  3332                                  ; Ident checkSum
  3333                                  ; Ident IP0
  3334                                  ; Ident CS0
  3335                                  ; Ident offTablaReub
  3336                                  ; Ident numOverlay
  3337                                  ; Ident cabecera_t
  3338                                  ; Ident Libres
  3339                                  ; Ident Ocupados
  3340                                  ; Ident e2DescProceso
  3341                                  ; Ident e2DescThread
  3342                                  ; Ident e2DescFichero
  3343                                  ; Ident e2DescRecurso
  3344                                  ; Ident e2Hijos
  3345                                  ; Ident e2Threads
  3346                                  ; Ident e2Preparados
  3347                                  ; Ident e2Urgentes
  3348                                  ; Ident e2POrdenados
  3349                                  ; Ident e2TDormidos
  3350                                  ; Ident e2FichRec
  3351                                  ; Ident e2PFR_t
  3352                                  ; Ident DPLibres
  3353                                  ; Ident DPOcupados
  3354                                  ; Ident DTLibres
  3355                                  ; Ident DTOcupados
  3356                                  ; Ident TPreparados
  3357                                  ; Ident TUrgentes
  3358                                  ; Ident POrdenados
  3359                                  ; Ident TDormidos
  3360                                  ; Ident DFLibres
  3361                                  ; Ident DFOcupados
  3362                                  ; Ident DRLibres
  3363                                  ; Ident DROcupados
  3364                                  ; Ident numColasPFR
  3365                                  ; Ident cPFR_t
  3366                                  ; Ident sigThread_t
  3367                                  ; Ident activarThread_t
  3368                                  ; Ident buscarNuevoThreadActual_t
  3369                                  ; Ident bloquearThreadActual_t
  3370                                  ; Ident ptrIndProcesoActual
  3371                                  ; Ident ptrIndThreadActual
  3372                                  ; Ident ptrTramaThread
  3373                                  ; Ident ptrActivarAlEpilogo
  3374                                  ; Ident ptrDescProceso
  3375                                  ; Ident tamDescProceso
  3376                                  ; Ident ptrDescThread
  3377                                  ; Ident tamDescThread
  3378                                  ; Ident ptrDescFichero
  3379                                  ; Ident ptrDescRecurso
  3380                                  ; Ident ptrC2cPFR
  3381                                  ; Ident ptrE2PFR
  3382                                  ; Ident ptrNivelActivacionSO1H
  3383                                  ; Ident ptrEnHalt
  3384                                  ; Ident ptrHayTic
  3385                                  ; Ident ptrCcbAlEpilogo
  3386                                  ; Ident ptrSS_Thread
  3387                                  ; Ident ptrSP_Thread
  3388                                  ; Ident ptrSS_Kernel
  3389                                  ; Ident ptrSP0_Kernel
  3390                                  ; Ident SP0_SO1H
  3391                                  ; Ident ptrContRodajas
  3392                                  ; Ident ptrContTicsRodaja
  3393                                  ; Ident ptrVIOrg
  3394                                  ; Ident sigThread
  3395                                  ; Ident activarThread
  3396                                  ; Ident buscarNuevoThreadActual
  3397                                  ; Ident bloquearThreadActual
  3398                                  ; Ident ptrListaLibres
  3399                                  ; Ident ptrTamBloqueMax
  3400                                  ; Ident descSO1H_t
  3401                                  ; Ident startBin
  3402                                  ; Ident unidadBIOS
  3403                                  ; Ident CS_SO1H
  3404                                  ; Ident RO_SO1H
  3405                                  ; Ident DS_SO1H
  3406                                  ; Ident BSS_SO1H
  3407                                  ; Ident SS_SO1H
  3408                                  ; Ident SS_Kernel
  3409                                  ; Ident IMRInicial
  3410                                  ; Ident obtenerMapa
  3411                                  ; Ident puntoDeParadaSO1
  3412                                  ; Ident leerScancodeListo
  3413                                  ; Ident leerScancode
  3414                                  ; Ident mirarLoQueHay
  3415                                  ; Ident loQueHay
  3416                                  ; Ident mostrarLoQueHay
  3417                                  ; Ident tirarS0
  3418                                  ; Ident pos_t
  3419                                  ; Ident t
  3420                                  ; Ident pantalla_t
  3421                                  ; Ident tamPantalla
  3422                                  ; Ident numFilas
  3423                                  ; Ident pantallazo
  3424                                  ; Ident pantalla
  3425                                  ; Ident esqSupDeF
  3426                                  ; Ident esqSupDeC
  3427                                  ; Ident esqInfIzF
  3428                                  ; Ident esqInfIzC
  3429                                  ; Ident borrarPantalla
  3430                                  ; Ident borrarCPantalla
  3431                                  ; Ident copiarPantalla
  3432                                  ; Ident p1
  3433                                  ; Ident p2
  3434                                  ; Ident copiarCPantalla
  3435                                  ; Ident scrollPantalla
  3436                                  ; Ident scrollCPantalla
  3437                                  ; Ident cursorF
  3438                                  ; Ident cursorC
  3439                                  ; Ident lineaOriginal1
  3440                                  ; Ident lineaOriginal2
  3441                                  ; Ident inicMemVideo
  3442                                  ; Ident finMemVideo
  3443                                  ; Ident goToXYVideo
  3444                                  ; Ident F
  3445                                  ; Ident C
  3446                                  ; Ident printCarVideo
  3447                                  ; Ident _NONE
  3448                                  ; Ident _MDA
  3449                                  ; Ident _CGA
  3450                                  ; Ident _EGACOLOR
  3451                                  ; Ident _EGAMONO
  3452                                  ; Ident _VGACOLOR
  3453                                  ; Ident _VGAMONO
  3454                                  ; Ident _MCGACOLOR
  3455                                  ; Ident _MCGAMONO
  3456                                  ; Ident _MDS_GENIUS
  3457                                  ; Ident tipoAdaptador_t
  3458                                  ; Ident _FONT08
  3459                                  ; Ident _FONT14
  3460                                  ; Ident _FONT15
  3461                                  ; Ident _FONT16
  3462                                  ; Ident fontSize_t
  3463                                  ; Ident numColumnas
  3464                                  ; Ident ptrPant
  3465                                  ; Ident tipoAdaptador
  3466                                  ; Ident redimensionable
  3467                                  ; Ident fontSize
  3468                                  ; Ident visibilidad
  3469                                  ; Ident inicBiosCrt
  3470                                  ; Ident finBiosCrt
  3471                                  ; Ident getFontSize
  3472                                  ; Ident getFilas
  3473                                  ; Ident comprobarAdaptador
  3474                                  ; Ident tipoDeAdaptador
  3475                                  ; Ident setCursorVisibilidad
  3476                                  ; Ident valorDeVisibilidad
  3477                                  ; Ident setFontSize
  3478                                  ; Ident size
  3479                                  ; Ident set25x80
  3480                                  ; Ident redimensionar
  3481                                  ; Ident nFilas
  3482                                  ; Ident nCols
  3483                                  ; Ident printLnVideo
  3484                                  ; Ident printStrVideo
  3485                                  ; Ident printStrHastaVideo
  3486                                  ; Ident printDecVideo
  3487                                  ; Ident printLDecVideo
  3488                                  ; Ident printIntVideo
  3489                                  ; Ident printLIntVideo
  3490                                  ; Ident printHexVideo
  3491                                  ; Ident printLHexVideo
  3492                                  ; Ident printBinVideo
  3493                                  ; Ident printLBinVideo
  3494                                  ; Ident printPtrVideo
  3495                                  ; Ident printByteVideo
  3496                                  ; Ident printWordVideo
  3497                                  ; Ident printCadVideo
  3498                                  ; Ident createProcess
  3499                                  ; Ident exec
  3500                                  ; Ident waitpid
  3501                                  ; Ident statloc
  3502                                  ; Ident kill
  3503                                  ; Ident exit
  3504                                  ; Ident setuid
  3505                                  ; Ident setgid
  3506                                  ; Ident close
  3507                                  ; Ident df
  3508                                  ; Ident tamBloqueMax
  3509                                  ; Ident listaLibres
  3510                                  ; Ident k_buscarBloque
  3511                                  ; Ident k_devolverBloque
  3512                                  ; Ident rec_gm
  3513                                  ; Ident inicGM
  3514                                  ; Ident mostrarListaLibres
  3515                                  ; Ident link_gm_k
  3516                                  ; Ident VIOrg
  3517                                  ; Ident recVInt
  3518                                  ; Ident redirigirInt
  3519                                  ; Ident redirigirIntHardware
  3520                                  ; Ident restablecerInt
  3521                                  ; Ident inicTVI
  3522                                  ; Ident link_ints
  3523                                  ; Ident descProcesoExt_t
  3524                                  ; Ident descThreadExt_t
  3525                                  ; Ident descProceso
  3526                                  ; Ident descThread
  3527                                  ; Ident descFichero
  3528                                  ; Ident descRecurso
  3529                                  ; Ident c2cPFR
  3530                                  ; Ident e2PFR
  3531                                  ; Ident descCcbAlEpilogo
  3532                                  ; Ident ccbAlEpilogo
  3533                                  ; Ident tramaThread
  3534                                  ; Ident tramaTarea
  3535                                  ; Ident indThreadActual
  3536                                  ; Ident indProcesoActual
  3537                                  ; Ident indThreadDeSuperficie
  3538                                  ; Ident contRodajas
  3539                                  ; Ident contTicsRodaja
  3540                                  ; Ident contadorTimer00
  3541                                  ; Ident contOcioso
  3542                                  ; Ident nuevoPid
  3543                                  ; Ident nuevoTid
  3544                                  ; Ident indice
  3545                                  ; Ident registrarEnPOrdenados
  3546                                  ; Ident crearThread
  3547                                  ; Ident funcion
  3548                                  ; Ident crearProceso
  3549                                  ; Ident tamFich
  3550                                  ; Ident inicProcesos
  3551                                  ; Ident resetPids
  3552                                  ; Ident resetTids
  3553                                  ; Ident terminarThreadIndx
  3554                                  ; Ident eliminarThreadIndx
  3555                                  ; Ident terminarProcIndx
  3556                                  ; Ident eliminarProcIndx
  3557                                  ; Ident matarThreadIndx
  3558                                  ; Ident matarProcIndx
  3559                                  ; Ident link_procs
  3560                                  ; Ident isr_SO1H
  3561                                  ; Ident link_llamadas
  3562                                  ; Ident inicRecursos
  3563                                  ; Ident crearRec
  3564                                  ; Ident dR
  3565                                  ; Ident crearFich
  3566                                  ; Ident destruirFich
  3567                                  ; Ident destruirRec
  3568                                  ; Ident link_recurs
  3569                                  ; Ident opciones
  3570                                  ; Ident thread_attribs_t
  3571                                  ; Ident thread_create
  3572                                  ; Ident attribs
  3573                                  ; Ident funcionInicial
  3574                                  ; Ident thread_join
  3575                                  ; Ident res
  3576                                  ; Ident thread_exit
  3577                                  ; Ident thread_yield
  3578                                  ; Ident thread_self
  3579                                  ; Ident demo_0
  3580                                  ; Ident main
  3581                                  ; Bytes used: 8183/16384
  3582                                  
  3583                                  ; Next label number: 209
  3584                                  ; Compilation succeeded.
